EXPORTS 
	??_R0?AU?$construct_by_args@V?$linear_congruential_engine@I$0LMIP@$0A@$0HPPPPPPP@@std@@I@d1@detail@tbb@@@8 	 DATA
	??_R0?AU?$construct_by_default@U?$Hist@_K$07@details@manifold@@@d1@detail@tbb@@@8 	 DATA
	??_R0?AU?$construct_by_default@VSparseIndices@manifold@@@d1@detail@tbb@@@8 	 DATA
	??_R0?AU?$default_delete@UImpl@Manifold@manifold@@@std@@@8 	 DATA
	??_R0?AU?$final_sum@V?$blocked_range@_K@d1@detail@tbb@@U?$CopyIfScanBody@PEAHPEAHV<lambda_5c12ef6d5b86dd74cff0ad6bf5f99d2e>@@@details@manifold@@@d1@detail@tbb@@@8 	 DATA
	??_R0?AU?$final_sum@V?$blocked_range@_K@d1@detail@tbb@@U?$CopyIfScanBody@PEAUTmpEdge@manifold@@PEAU12@V<lambda_1d1c6bcdb0a6830adb484fa5460103d0>@@@details@manifold@@@d1@detail@tbb@@@8 	 DATA
	??_R0?AU?$final_sum@V?$blocked_range@_K@d1@detail@tbb@@U?$CopyIfScanBody@PEA_JPEA_JV<lambda_09fe494a54b81d6c69236683cf5b4f26>@@@details@manifold@@@d1@detail@tbb@@@8 	 DATA
	??_R0?AU?$final_sum@V?$blocked_range@_K@d1@detail@tbb@@U?$CopyIfScanBody@U?$CountingIterator@_K@manifold@@PEAHV<lambda_15275a5507336b257891fcec3ad173af>@@@details@manifold@@@d1@detail@tbb@@@8 	 DATA
	??_R0?AU?$final_sum@V?$blocked_range@_K@d1@detail@tbb@@U?$CopyIfScanBody@U?$CountingIterator@_K@manifold@@PEAHV<lambda_4107a9b620f6bac47b0532e36b1e37da>@@@details@manifold@@@d1@detail@tbb@@@8 	 DATA
	??_R0?AU?$final_sum@V?$blocked_range@_K@d1@detail@tbb@@U?$CopyIfScanBody@U?$CountingIterator@_K@manifold@@PEAHV<lambda_f7d217123976fdede42126514b35aac9>@@@details@manifold@@@d1@detail@tbb@@@8 	 DATA
	??_R0?AU?$final_sum@V?$blocked_range@_K@d1@detail@tbb@@U?$ScanBody@HPEAHPEAHU?$plus@H@std@@@details@manifold@@@d1@detail@tbb@@@8 	 DATA
	??_R0?AU?$final_sum@V?$blocked_range@_K@d1@detail@tbb@@U?$ScanBody@_KPEA_KPEA_KU?$plus@_K@std@@@details@manifold@@@d1@detail@tbb@@@8 	 DATA
	??_R0?AU?$final_sum@V?$blocked_range@_K@d1@detail@tbb@@V?$lambda_scan_body@V?$blocked_range@_K@d1@detail@tbb@@HV<lambda_fc34ceecbeedaf8547ac86e00c016eac>@@U?$plus@H@std@@@234@@d1@detail@tbb@@@8 	 DATA
	??_R0?AU?$finish_scan@V?$blocked_range@_K@d1@detail@tbb@@U?$CopyIfScanBody@PEAHPEAHV<lambda_5c12ef6d5b86dd74cff0ad6bf5f99d2e>@@@details@manifold@@@d1@detail@tbb@@@8 	 DATA
	??_R0?AU?$finish_scan@V?$blocked_range@_K@d1@detail@tbb@@U?$CopyIfScanBody@PEAUTmpEdge@manifold@@PEAU12@V<lambda_1d1c6bcdb0a6830adb484fa5460103d0>@@@details@manifold@@@d1@detail@tbb@@@8 	 DATA
	??_R0?AU?$finish_scan@V?$blocked_range@_K@d1@detail@tbb@@U?$CopyIfScanBody@PEA_JPEA_JV<lambda_09fe494a54b81d6c69236683cf5b4f26>@@@details@manifold@@@d1@detail@tbb@@@8 	 DATA
	??_R0?AU?$finish_scan@V?$blocked_range@_K@d1@detail@tbb@@U?$CopyIfScanBody@U?$CountingIterator@_K@manifold@@PEAHV<lambda_15275a5507336b257891fcec3ad173af>@@@details@manifold@@@d1@detail@tbb@@@8 	 DATA
	??_R0?AU?$finish_scan@V?$blocked_range@_K@d1@detail@tbb@@U?$CopyIfScanBody@U?$CountingIterator@_K@manifold@@PEAHV<lambda_4107a9b620f6bac47b0532e36b1e37da>@@@details@manifold@@@d1@detail@tbb@@@8 	 DATA
	??_R0?AU?$finish_scan@V?$blocked_range@_K@d1@detail@tbb@@U?$CopyIfScanBody@U?$CountingIterator@_K@manifold@@PEAHV<lambda_f7d217123976fdede42126514b35aac9>@@@details@manifold@@@d1@detail@tbb@@@8 	 DATA
	??_R0?AU?$finish_scan@V?$blocked_range@_K@d1@detail@tbb@@U?$ScanBody@HPEAHPEAHU?$plus@H@std@@@details@manifold@@@d1@detail@tbb@@@8 	 DATA
	??_R0?AU?$finish_scan@V?$blocked_range@_K@d1@detail@tbb@@U?$ScanBody@_KPEA_KPEA_KU?$plus@_K@std@@@details@manifold@@@d1@detail@tbb@@@8 	 DATA
	??_R0?AU?$finish_scan@V?$blocked_range@_K@d1@detail@tbb@@V?$lambda_scan_body@V?$blocked_range@_K@d1@detail@tbb@@HV<lambda_fc34ceecbeedaf8547ac86e00c016eac>@@U?$plus@H@std@@@234@@d1@detail@tbb@@@8 	 DATA
	??_R0?AU?$function_invoker@V<lambda_2d4d5a4483952ad8bc4443d7963f0bf6>@@Vinvoke_root_task@d1@detail@tbb@@@d1@detail@tbb@@@8 	 DATA
	??_R0?AU?$function_invoker@V<lambda_42a80bed7606999347d3e39cb61f3e6a>@@Vinvoke_root_task@d1@detail@tbb@@@d1@detail@tbb@@@8 	 DATA
	??_R0?AU?$function_invoker@V<lambda_982b4048df917cd1a2509c79852a3283>@@Vinvoke_root_task@d1@detail@tbb@@@d1@detail@tbb@@@8 	 DATA
	??_R0?AU?$function_invoker@V<lambda_9c87cd99b14fb0a789c15762019575b1>@@Vinvoke_root_task@d1@detail@tbb@@@d1@detail@tbb@@@8 	 DATA
	??_R0?AU?$function_invoker@V<lambda_a334879ba5647d6584326ebc7b883e00>@@Vinvoke_root_task@d1@detail@tbb@@@d1@detail@tbb@@@8 	 DATA
	??_R0?AU?$function_invoker@V<lambda_ad0b8abd2a0d6a5d0a0bdb9f590572b3>@@Vinvoke_root_task@d1@detail@tbb@@@d1@detail@tbb@@@8 	 DATA
	??_R0?AU?$function_invoker@V<lambda_bb1552162c64cd18e5712d8c9d2613fa>@@Vinvoke_root_task@d1@detail@tbb@@@d1@detail@tbb@@@8 	 DATA
	??_R0?AU?$function_invoker@V<lambda_fa5942c2cfc5db2b35a05abc42b4d15f>@@Vinvoke_root_task@d1@detail@tbb@@@d1@detail@tbb@@@8 	 DATA
	??_R0?AU?$start_for@V?$blocked_range@PEAD@d1@detail@tbb@@V<lambda_390e7650f5d708b0e84e59fd24728414>@@$$CBVauto_partitioner@234@@d1@detail@tbb@@@8 	 DATA
	??_R0?AU?$start_for@V?$blocked_range@PEAE@d1@detail@tbb@@V<lambda_6b4fcd617dc3091fadf6e4783b22a839>@@$$CBVauto_partitioner@234@@d1@detail@tbb@@@8 	 DATA
	??_R0?AU?$start_for@V?$blocked_range@PEAH@d1@detail@tbb@@V<lambda_1c009478eeb148d97e9341582c6ebdef>@@$$CBVauto_partitioner@234@@d1@detail@tbb@@@8 	 DATA
	??_R0?AU?$start_for@V?$blocked_range@PEAI@d1@detail@tbb@@V<lambda_55bd6547379df8a8634d9ee152318fd0>@@$$CBVauto_partitioner@234@@d1@detail@tbb@@@8 	 DATA
	??_R0?AU?$start_for@V?$blocked_range@PEAN@d1@detail@tbb@@V<lambda_96b4ac76a702b60061fd6b4388172533>@@$$CBVauto_partitioner@234@@d1@detail@tbb@@@8 	 DATA
	??_R0?AU?$start_for@V?$blocked_range@PEAU?$pair@HH@std@@@d1@detail@tbb@@V<lambda_cacf0e9b7eff79c3447974a54ad57622>@@$$CBVauto_partitioner@234@@d1@detail@tbb@@@8 	 DATA
	??_R0?AU?$start_for@V?$blocked_range@PEAU?$vec@H$02@linalg@@@d1@detail@tbb@@V<lambda_50c73d532b09eac601dfed511085ee3f>@@$$CBVauto_partitioner@234@@d1@detail@tbb@@@8 	 DATA
	??_R0?AU?$start_for@V?$blocked_range@PEAU?$vec@N$02@linalg@@@d1@detail@tbb@@V<lambda_7aa2ab451ab11e4b32889fdc5782f714>@@$$CBVauto_partitioner@234@@d1@detail@tbb@@@8 	 DATA
	??_R0?AU?$start_for@V?$blocked_range@PEAU?$vec@N$02@linalg@@@d1@detail@tbb@@V<lambda_bf52f877fdec0d85ccd27fa3a28cde87>@@$$CBVauto_partitioner@234@@d1@detail@tbb@@@8 	 DATA
	??_R0?AU?$start_for@V?$blocked_range@PEAU?$vec@N$03@linalg@@@d1@detail@tbb@@V<lambda_ac42147e527b84c1e18e82d2239b4e00>@@$$CBVauto_partitioner@234@@d1@detail@tbb@@@8 	 DATA
	??_R0?AU?$start_for@V?$blocked_range@PEAUBarycentric@manifold@@@d1@detail@tbb@@V<lambda_5a1b5cf6847d2627f3fed7e4e384c5a5>@@$$CBVauto_partitioner@234@@d1@detail@tbb@@@8 	 DATA
	??_R0?AU?$start_for@V?$blocked_range@PEAUBox@manifold@@@d1@detail@tbb@@V<lambda_94e8667c3c22bf3bc3eec35b8ed39056>@@$$CBVauto_partitioner@234@@d1@detail@tbb@@@8 	 DATA
	??_R0?AU?$start_for@V?$blocked_range@PEAUBox@manifold@@@d1@detail@tbb@@V<lambda_9da81faedc09361c6a787386af9b6f8e>@@$$CBVauto_partitioner@234@@d1@detail@tbb@@@8 	 DATA
	??_R0?AU?$start_for@V?$blocked_range@PEAUFaceData@QuickHull@manifold@@@d1@detail@tbb@@V<lambda_dba04a9a13962c0282956f647a169345>@@$$CBVauto_partitioner@234@@d1@detail@tbb@@@8 	 DATA
	??_R0?AU?$start_for@V?$blocked_range@PEAUHalfedge@manifold@@@d1@detail@tbb@@V<lambda_32c00d621959975f1324ec5a60fb61a7>@@$$CBVauto_partitioner@234@@d1@detail@tbb@@@8 	 DATA
	??_R0?AU?$start_for@V?$blocked_range@PEAUTmpEdge@manifold@@@d1@detail@tbb@@V<lambda_02035d049f954c25fedd5e3c2f22d9ba>@@$$CBVauto_partitioner@234@@d1@detail@tbb@@@8 	 DATA
	??_R0?AU?$start_for@V?$blocked_range@PEAUTriRef@manifold@@@d1@detail@tbb@@V<lambda_2764dc2231b3bfb2b26de9434b902a3c>@@$$CBVauto_partitioner@234@@d1@detail@tbb@@@8 	 DATA
	??_R0?AU?$start_for@V?$blocked_range@PEA_K@d1@detail@tbb@@V<lambda_7c11afd42849bd32ee6b867925cb3ab3>@@$$CBVauto_partitioner@234@@d1@detail@tbb@@@8 	 DATA
	??_R0?AU?$start_for@V?$blocked_range@PEA_N@d1@detail@tbb@@V<lambda_0bdef824febffa99a1b8265514128764>@@$$CBVauto_partitioner@234@@d1@detail@tbb@@@8 	 DATA
	??_R0?AU?$start_for@V?$blocked_range@U?$CountingIterator@_K@manifold@@@d1@detail@tbb@@V<lambda_02dc4021b47f890e4339536daea4e2ea>@@$$CBVauto_partitioner@234@@d1@detail@tbb@@@8 	 DATA
	??_R0?AU?$start_for@V?$blocked_range@U?$CountingIterator@_K@manifold@@@d1@detail@tbb@@V<lambda_125395722cd87c64d27ded1c3ab4c003>@@$$CBVauto_partitioner@234@@d1@detail@tbb@@@8 	 DATA
	??_R0?AU?$start_for@V?$blocked_range@U?$CountingIterator@_K@manifold@@@d1@detail@tbb@@V<lambda_1956f3c9293dc6d188bf97bfdeab53ed>@@$$CBVauto_partitioner@234@@d1@detail@tbb@@@8 	 DATA
	??_R0?AU?$start_for@V?$blocked_range@U?$CountingIterator@_K@manifold@@@d1@detail@tbb@@V<lambda_1e9adf9048cd241e89e58bbd0f247b09>@@$$CBVauto_partitioner@234@@d1@detail@tbb@@@8 	 DATA
	??_R0?AU?$start_for@V?$blocked_range@U?$CountingIterator@_K@manifold@@@d1@detail@tbb@@V<lambda_26d504527354b7114cdfe56beddf2178>@@$$CBVauto_partitioner@234@@d1@detail@tbb@@@8 	 DATA
	??_R0?AU?$start_for@V?$blocked_range@U?$CountingIterator@_K@manifold@@@d1@detail@tbb@@V<lambda_27db5046e7932e3dbada70de608fd096>@@$$CBVauto_partitioner@234@@d1@detail@tbb@@@8 	 DATA
	??_R0?AU?$start_for@V?$blocked_range@U?$CountingIterator@_K@manifold@@@d1@detail@tbb@@V<lambda_29f1866b8f287452ff90a23a0252edd9>@@$$CBVauto_partitioner@234@@d1@detail@tbb@@@8 	 DATA
	??_R0?AU?$start_for@V?$blocked_range@U?$CountingIterator@_K@manifold@@@d1@detail@tbb@@V<lambda_2cd0ea27e88ac2e9c5e2ad6664d98df1>@@$$CBVauto_partitioner@234@@d1@detail@tbb@@@8 	 DATA
	??_R0?AU?$start_for@V?$blocked_range@U?$CountingIterator@_K@manifold@@@d1@detail@tbb@@V<lambda_2daf603a677dabb13dc391e4046b315a>@@$$CBVauto_partitioner@234@@d1@detail@tbb@@@8 	 DATA
	??_R0?AU?$start_for@V?$blocked_range@U?$CountingIterator@_K@manifold@@@d1@detail@tbb@@V<lambda_3f9f3dbeef3d29af65db1e28354a7aa4>@@$$CBVauto_partitioner@234@@d1@detail@tbb@@@8 	 DATA
	??_R0?AU?$start_for@V?$blocked_range@U?$CountingIterator@_K@manifold@@@d1@detail@tbb@@V<lambda_4d78262fb9bb70ea4fa831a94ffef145>@@$$CBVauto_partitioner@234@@d1@detail@tbb@@@8 	 DATA
	??_R0?AU?$start_for@V?$blocked_range@U?$CountingIterator@_K@manifold@@@d1@detail@tbb@@V<lambda_506f0b934a600660933fc1862c825f02>@@$$CBVauto_partitioner@234@@d1@detail@tbb@@@8 	 DATA
	??_R0?AU?$start_for@V?$blocked_range@U?$CountingIterator@_K@manifold@@@d1@detail@tbb@@V<lambda_521749c93a96c6436d07fd36b74bbab8>@@$$CBVauto_partitioner@234@@d1@detail@tbb@@@8 	 DATA
	??_R0?AU?$start_for@V?$blocked_range@U?$CountingIterator@_K@manifold@@@d1@detail@tbb@@V<lambda_63da45c9d74e932208bb009736d1b485>@@$$CBVauto_partitioner@234@@d1@detail@tbb@@@8 	 DATA
	??_R0?AU?$start_for@V?$blocked_range@U?$CountingIterator@_K@manifold@@@d1@detail@tbb@@V<lambda_6ccdfb7e6dff4e8edb19856de089cf21>@@$$CBVauto_partitioner@234@@d1@detail@tbb@@@8 	 DATA
	??_R0?AU?$start_for@V?$blocked_range@U?$CountingIterator@_K@manifold@@@d1@detail@tbb@@V<lambda_780a3844230d1dc8481661a1830dc147>@@$$CBVauto_partitioner@234@@d1@detail@tbb@@@8 	 DATA
	??_R0?AU?$start_for@V?$blocked_range@U?$CountingIterator@_K@manifold@@@d1@detail@tbb@@V<lambda_783a3fe3c5efa311c27c14ac40e01e03>@@$$CBVauto_partitioner@234@@d1@detail@tbb@@@8 	 DATA
	??_R0?AU?$start_for@V?$blocked_range@U?$CountingIterator@_K@manifold@@@d1@detail@tbb@@V<lambda_7cff2e5c2a465897ae733acbfff853fd>@@$$CBVauto_partitioner@234@@d1@detail@tbb@@@8 	 DATA
	??_R0?AU?$start_for@V?$blocked_range@U?$CountingIterator@_K@manifold@@@d1@detail@tbb@@V<lambda_7f9eca30be8c6242d9cf5c6758733a69>@@$$CBVauto_partitioner@234@@d1@detail@tbb@@@8 	 DATA
	??_R0?AU?$start_for@V?$blocked_range@U?$CountingIterator@_K@manifold@@@d1@detail@tbb@@V<lambda_9126d938adfe72b43d3fb711e32fec58>@@$$CBVauto_partitioner@234@@d1@detail@tbb@@@8 	 DATA
	??_R0?AU?$start_for@V?$blocked_range@U?$CountingIterator@_K@manifold@@@d1@detail@tbb@@V<lambda_92e66cac9d1178a2b8523200e0fabdd2>@@$$CBVauto_partitioner@234@@d1@detail@tbb@@@8 	 DATA
	??_R0?AU?$start_for@V?$blocked_range@U?$CountingIterator@_K@manifold@@@d1@detail@tbb@@V<lambda_9575f5f0cae48ec85373a7fe1fcbfa72>@@$$CBVauto_partitioner@234@@d1@detail@tbb@@@8 	 DATA
	??_R0?AU?$start_for@V?$blocked_range@U?$CountingIterator@_K@manifold@@@d1@detail@tbb@@V<lambda_bc749e62b33a04bf20a9f89018c24ad9>@@$$CBVauto_partitioner@234@@d1@detail@tbb@@@8 	 DATA
	??_R0?AU?$start_for@V?$blocked_range@U?$CountingIterator@_K@manifold@@@d1@detail@tbb@@V<lambda_be6873c193848cc6e247d065b3b956d7>@@$$CBVauto_partitioner@234@@d1@detail@tbb@@@8 	 DATA
	??_R0?AU?$start_for@V?$blocked_range@U?$CountingIterator@_K@manifold@@@d1@detail@tbb@@V<lambda_c4d2a604a53dfe3c4acd8238ff486975>@@$$CBVauto_partitioner@234@@d1@detail@tbb@@@8 	 DATA
	??_R0?AU?$start_for@V?$blocked_range@U?$CountingIterator@_K@manifold@@@d1@detail@tbb@@V<lambda_c500369bacae8e90d52452af9e0c5a5f>@@$$CBVauto_partitioner@234@@d1@detail@tbb@@@8 	 DATA
	??_R0?AU?$start_for@V?$blocked_range@U?$CountingIterator@_K@manifold@@@d1@detail@tbb@@V<lambda_cbc8108a9ae962306fcccb3ede9dfe7b>@@$$CBVauto_partitioner@234@@d1@detail@tbb@@@8 	 DATA
	??_R0?AU?$start_for@V?$blocked_range@U?$CountingIterator@_K@manifold@@@d1@detail@tbb@@V<lambda_e0f95191e147729669e5502af0d8c78f>@@$$CBVauto_partitioner@234@@d1@detail@tbb@@@8 	 DATA
	??_R0?AU?$start_for@V?$blocked_range@U?$CountingIterator@_K@manifold@@@d1@detail@tbb@@V<lambda_e6ccefc8389025fdae3070ad6547df8b>@@$$CBVauto_partitioner@234@@d1@detail@tbb@@@8 	 DATA
	??_R0?AU?$start_for@V?$blocked_range@U?$CountingIterator@_K@manifold@@@d1@detail@tbb@@V<lambda_e9d4c16dd2ddde8e2352556dc7221143>@@$$CBVauto_partitioner@234@@d1@detail@tbb@@@8 	 DATA
	??_R0?AU?$start_for@V?$blocked_range@U?$CountingIterator@_K@manifold@@@d1@detail@tbb@@V<lambda_eb78ce1719e35291698c7f0f9fb1de42>@@$$CBVauto_partitioner@234@@d1@detail@tbb@@@8 	 DATA
	??_R0?AU?$start_for@V?$blocked_range@U?$CountingIterator@_K@manifold@@@d1@detail@tbb@@V<lambda_ed823f9406acb25c9c1e9beef7ffd72e>@@$$CBVauto_partitioner@234@@d1@detail@tbb@@@8 	 DATA
	??_R0?AU?$start_for@V?$blocked_range@U?$CountingIterator@_K@manifold@@@d1@detail@tbb@@V<lambda_f6d20b7269383540cbe04483b9eb90fa>@@$$CBVauto_partitioner@234@@d1@detail@tbb@@@8 	 DATA
	??_R0?AU?$start_for@V?$blocked_range@U?$CountingIterator@_K@manifold@@@d1@detail@tbb@@V<lambda_fd0eb947c4292ddc7c05e12e85dc0560>@@$$CBVauto_partitioner@234@@d1@detail@tbb@@@8 	 DATA
	??_R0?AU?$start_for@V?$blocked_range@_K@d1@detail@tbb@@V<lambda_03fb884a4cd862991adc5f74fb847a05>@@$$CBVauto_partitioner@234@@d1@detail@tbb@@@8 	 DATA
	??_R0?AU?$start_for@V?$blocked_range@_K@d1@detail@tbb@@V<lambda_11b10d549c18cb6f5807ee78b48dc7bd>@@$$CBVauto_partitioner@234@@d1@detail@tbb@@@8 	 DATA
	??_R0?AU?$start_for@V?$blocked_range@_K@d1@detail@tbb@@V<lambda_16b5223be46195286e2e8405f732d4b5>@@$$CBVauto_partitioner@234@@d1@detail@tbb@@@8 	 DATA
	??_R0?AU?$start_for@V?$blocked_range@_K@d1@detail@tbb@@V<lambda_2028fcf9990d21ed7bffc3cba0404ce0>@@$$CBVauto_partitioner@234@@d1@detail@tbb@@@8 	 DATA
	??_R0?AU?$start_for@V?$blocked_range@_K@d1@detail@tbb@@V<lambda_23aea90e25cc54a4a61e14d1812e73f1>@@$$CBVauto_partitioner@234@@d1@detail@tbb@@@8 	 DATA
	??_R0?AU?$start_for@V?$blocked_range@_K@d1@detail@tbb@@V<lambda_2596da0e62de8e522dfd94f3c01ad496>@@$$CBVauto_partitioner@234@@d1@detail@tbb@@@8 	 DATA
	??_R0?AU?$start_for@V?$blocked_range@_K@d1@detail@tbb@@V<lambda_26f1855a7dd848bca9cb6ca2551d675b>@@$$CBVauto_partitioner@234@@d1@detail@tbb@@@8 	 DATA
	??_R0?AU?$start_for@V?$blocked_range@_K@d1@detail@tbb@@V<lambda_2b54008fd670a063f1c547b58f1ed842>@@$$CBVauto_partitioner@234@@d1@detail@tbb@@@8 	 DATA
	??_R0?AU?$start_for@V?$blocked_range@_K@d1@detail@tbb@@V<lambda_46c595594061512c0c3ea99d0c6996f4>@@$$CBVauto_partitioner@234@@d1@detail@tbb@@@8 	 DATA
	??_R0?AU?$start_for@V?$blocked_range@_K@d1@detail@tbb@@V<lambda_4fe243d2ac3a58c8cc3c365283b19d0a>@@$$CBVauto_partitioner@234@@d1@detail@tbb@@@8 	 DATA
	??_R0?AU?$start_for@V?$blocked_range@_K@d1@detail@tbb@@V<lambda_5191551fa434103989ffbd56a46de547>@@$$CBVauto_partitioner@234@@d1@detail@tbb@@@8 	 DATA
	??_R0?AU?$start_for@V?$blocked_range@_K@d1@detail@tbb@@V<lambda_54c6a0e62c947039ea7ce7a79db9f988>@@$$CBVauto_partitioner@234@@d1@detail@tbb@@@8 	 DATA
	??_R0?AU?$start_for@V?$blocked_range@_K@d1@detail@tbb@@V<lambda_55b7c4dcea7a3902f163245f32772ee8>@@$$CBVauto_partitioner@234@@d1@detail@tbb@@@8 	 DATA
	??_R0?AU?$start_for@V?$blocked_range@_K@d1@detail@tbb@@V<lambda_5ae50f2b451ce4a833235d87834aee37>@@$$CBVauto_partitioner@234@@d1@detail@tbb@@@8 	 DATA
	??_R0?AU?$start_for@V?$blocked_range@_K@d1@detail@tbb@@V<lambda_5e980b7c07f1b28fb8e6a4f60c41d4ff>@@$$CBVauto_partitioner@234@@d1@detail@tbb@@@8 	 DATA
	??_R0?AU?$start_for@V?$blocked_range@_K@d1@detail@tbb@@V<lambda_6b2095684ba54e50cdef01136ee8be0a>@@$$CBVauto_partitioner@234@@d1@detail@tbb@@@8 	 DATA
	??_R0?AU?$start_for@V?$blocked_range@_K@d1@detail@tbb@@V<lambda_6d64c9e8c7ac1bbeff75af7b660c5275>@@$$CBVauto_partitioner@234@@d1@detail@tbb@@@8 	 DATA
	??_R0?AU?$start_for@V?$blocked_range@_K@d1@detail@tbb@@V<lambda_6e3e7d463341b46cb937fa7953520ac6>@@$$CBVauto_partitioner@234@@d1@detail@tbb@@@8 	 DATA
	??_R0?AU?$start_for@V?$blocked_range@_K@d1@detail@tbb@@V<lambda_81f818a6d773c7c34605d06f5b6a2793>@@$$CBVauto_partitioner@234@@d1@detail@tbb@@@8 	 DATA
	??_R0?AU?$start_for@V?$blocked_range@_K@d1@detail@tbb@@V<lambda_89e81f88a9ae10aeced00f3ca61a0458>@@$$CBVauto_partitioner@234@@d1@detail@tbb@@@8 	 DATA
	??_R0?AU?$start_for@V?$blocked_range@_K@d1@detail@tbb@@V<lambda_98075f30228a2f77d099d86dc83106b5>@@$$CBVauto_partitioner@234@@d1@detail@tbb@@@8 	 DATA
	??_R0?AU?$start_for@V?$blocked_range@_K@d1@detail@tbb@@V<lambda_98381951680be79b2a69819a8c29dab0>@@$$CBVauto_partitioner@234@@d1@detail@tbb@@@8 	 DATA
	??_R0?AU?$start_for@V?$blocked_range@_K@d1@detail@tbb@@V<lambda_9a4b9b95a691ab47a7180b1f1821cebb>@@$$CBVauto_partitioner@234@@d1@detail@tbb@@@8 	 DATA
	??_R0?AU?$start_for@V?$blocked_range@_K@d1@detail@tbb@@V<lambda_a0ae1ff2d5d9c5cac556e22fbfd4489c>@@$$CBVauto_partitioner@234@@d1@detail@tbb@@@8 	 DATA
	??_R0?AU?$start_for@V?$blocked_range@_K@d1@detail@tbb@@V<lambda_a71979c87b6c294711a78ae3d13b1572>@@$$CBVauto_partitioner@234@@d1@detail@tbb@@@8 	 DATA
	??_R0?AU?$start_for@V?$blocked_range@_K@d1@detail@tbb@@V<lambda_afd02db0a2147b3a58f0dfc9869ed237>@@$$CBVauto_partitioner@234@@d1@detail@tbb@@@8 	 DATA
	??_R0?AU?$start_for@V?$blocked_range@_K@d1@detail@tbb@@V<lambda_b5cfbc6c772ee946f04adbc807d49f2f>@@$$CBVauto_partitioner@234@@d1@detail@tbb@@@8 	 DATA
	??_R0?AU?$start_for@V?$blocked_range@_K@d1@detail@tbb@@V<lambda_bd66f17d69b6a3fa46937ef45eef0dac>@@$$CBVauto_partitioner@234@@d1@detail@tbb@@@8 	 DATA
	??_R0?AU?$start_for@V?$blocked_range@_K@d1@detail@tbb@@V<lambda_c2c63180896229d7dd04f8aba5581d85>@@$$CBVauto_partitioner@234@@d1@detail@tbb@@@8 	 DATA
	??_R0?AU?$start_for@V?$blocked_range@_K@d1@detail@tbb@@V<lambda_c3cac6f29c0ef45ccdb48a18f24fd6ab>@@$$CBVauto_partitioner@234@@d1@detail@tbb@@@8 	 DATA
	??_R0?AU?$start_for@V?$blocked_range@_K@d1@detail@tbb@@V<lambda_cd4116d251a2c84c130b04d5b89c4083>@@$$CBVauto_partitioner@234@@d1@detail@tbb@@@8 	 DATA
	??_R0?AU?$start_for@V?$blocked_range@_K@d1@detail@tbb@@V<lambda_e1491ef019c5506a7d7701f7deba09de>@@$$CBVauto_partitioner@234@@d1@detail@tbb@@@8 	 DATA
	??_R0?AU?$start_for@V?$blocked_range@_K@d1@detail@tbb@@V<lambda_e593b19c5b08a79fe55046e04800e3db>@@$$CBVauto_partitioner@234@@d1@detail@tbb@@@8 	 DATA
	??_R0?AU?$start_for@V?$blocked_range@_K@d1@detail@tbb@@V<lambda_ebf7bcb4984ab947248b9aa0075fb9e0>@@$$CBVauto_partitioner@234@@d1@detail@tbb@@@8 	 DATA
	??_R0?AU?$start_for@V?$blocked_range@_K@d1@detail@tbb@@V<lambda_edeaf69f9f53978458d813b9b4c071a4>@@$$CBVauto_partitioner@234@@d1@detail@tbb@@@8 	 DATA
	??_R0?AU?$start_for@V?$blocked_range@_K@d1@detail@tbb@@V<lambda_f53a955f9132fa7d20c11b141a1f56ae>@@$$CBVauto_partitioner@234@@d1@detail@tbb@@@8 	 DATA
	??_R0?AU?$start_for@V?$blocked_range@_K@d1@detail@tbb@@V<lambda_f5b9d82fa8d71682793bdac43c7d37a5>@@$$CBVauto_partitioner@234@@d1@detail@tbb@@@8 	 DATA
	??_R0?AU?$start_for@V?$blocked_range@_K@d1@detail@tbb@@V<lambda_f6d95f579848c0db64d7108a6b4bb55b>@@$$CBVauto_partitioner@234@@d1@detail@tbb@@@8 	 DATA
	??_R0?AU?$start_for@V?$blocked_range@_K@d1@detail@tbb@@V<lambda_f77dbcd751e2aed9cf96ded60b9aaaea>@@$$CBVauto_partitioner@234@@d1@detail@tbb@@@8 	 DATA
	??_R0?AU?$start_reduce@V?$blocked_range@_K@d1@detail@tbb@@U?$SortedRange@_J_K@details@manifold@@$$CBVauto_partitioner@234@@d1@detail@tbb@@@8 	 DATA
	??_R0?AU?$start_scan@V?$blocked_range@_K@d1@detail@tbb@@U?$CopyIfScanBody@PEAHPEAHV<lambda_5c12ef6d5b86dd74cff0ad6bf5f99d2e>@@@details@manifold@@Vauto_partitioner@234@@d1@detail@tbb@@@8 	 DATA
	??_R0?AU?$start_scan@V?$blocked_range@_K@d1@detail@tbb@@U?$CopyIfScanBody@PEAUTmpEdge@manifold@@PEAU12@V<lambda_1d1c6bcdb0a6830adb484fa5460103d0>@@@details@manifold@@Vauto_partitioner@234@@d1@detail@tbb@@@8 	 DATA
	??_R0?AU?$start_scan@V?$blocked_range@_K@d1@detail@tbb@@U?$CopyIfScanBody@PEA_JPEA_JV<lambda_09fe494a54b81d6c69236683cf5b4f26>@@@details@manifold@@Vauto_partitioner@234@@d1@detail@tbb@@@8 	 DATA
	??_R0?AU?$start_scan@V?$blocked_range@_K@d1@detail@tbb@@U?$CopyIfScanBody@U?$CountingIterator@_K@manifold@@PEAHV<lambda_15275a5507336b257891fcec3ad173af>@@@details@manifold@@Vauto_partitioner@234@@d1@detail@tbb@@@8 	 DATA
	??_R0?AU?$start_scan@V?$blocked_range@_K@d1@detail@tbb@@U?$CopyIfScanBody@U?$CountingIterator@_K@manifold@@PEAHV<lambda_4107a9b620f6bac47b0532e36b1e37da>@@@details@manifold@@Vauto_partitioner@234@@d1@detail@tbb@@@8 	 DATA
	??_R0?AU?$start_scan@V?$blocked_range@_K@d1@detail@tbb@@U?$CopyIfScanBody@U?$CountingIterator@_K@manifold@@PEAHV<lambda_f7d217123976fdede42126514b35aac9>@@@details@manifold@@Vauto_partitioner@234@@d1@detail@tbb@@@8 	 DATA
	??_R0?AU?$start_scan@V?$blocked_range@_K@d1@detail@tbb@@U?$ScanBody@HPEAHPEAHU?$plus@H@std@@@details@manifold@@Vauto_partitioner@234@@d1@detail@tbb@@@8 	 DATA
	??_R0?AU?$start_scan@V?$blocked_range@_K@d1@detail@tbb@@U?$ScanBody@_KPEA_KPEA_KU?$plus@_K@std@@@details@manifold@@Vauto_partitioner@234@@d1@detail@tbb@@@8 	 DATA
	??_R0?AU?$start_scan@V?$blocked_range@_K@d1@detail@tbb@@V?$lambda_scan_body@V?$blocked_range@_K@d1@detail@tbb@@HV<lambda_fc34ceecbeedaf8547ac86e00c016eac>@@U?$plus@H@std@@@234@Vauto_partitioner@234@@d1@detail@tbb@@@8 	 DATA
	??_R0?AU?$sum_node@V?$blocked_range@_K@d1@detail@tbb@@U?$CopyIfScanBody@PEAHPEAHV<lambda_5c12ef6d5b86dd74cff0ad6bf5f99d2e>@@@details@manifold@@@d1@detail@tbb@@@8 	 DATA
	??_R0?AU?$sum_node@V?$blocked_range@_K@d1@detail@tbb@@U?$CopyIfScanBody@PEAUTmpEdge@manifold@@PEAU12@V<lambda_1d1c6bcdb0a6830adb484fa5460103d0>@@@details@manifold@@@d1@detail@tbb@@@8 	 DATA
	??_R0?AU?$sum_node@V?$blocked_range@_K@d1@detail@tbb@@U?$CopyIfScanBody@PEA_JPEA_JV<lambda_09fe494a54b81d6c69236683cf5b4f26>@@@details@manifold@@@d1@detail@tbb@@@8 	 DATA
	??_R0?AU?$sum_node@V?$blocked_range@_K@d1@detail@tbb@@U?$CopyIfScanBody@U?$CountingIterator@_K@manifold@@PEAHV<lambda_15275a5507336b257891fcec3ad173af>@@@details@manifold@@@d1@detail@tbb@@@8 	 DATA
	??_R0?AU?$sum_node@V?$blocked_range@_K@d1@detail@tbb@@U?$CopyIfScanBody@U?$CountingIterator@_K@manifold@@PEAHV<lambda_4107a9b620f6bac47b0532e36b1e37da>@@@details@manifold@@@d1@detail@tbb@@@8 	 DATA
	??_R0?AU?$sum_node@V?$blocked_range@_K@d1@detail@tbb@@U?$CopyIfScanBody@U?$CountingIterator@_K@manifold@@PEAHV<lambda_f7d217123976fdede42126514b35aac9>@@@details@manifold@@@d1@detail@tbb@@@8 	 DATA
	??_R0?AU?$sum_node@V?$blocked_range@_K@d1@detail@tbb@@U?$ScanBody@HPEAHPEAHU?$plus@H@std@@@details@manifold@@@d1@detail@tbb@@@8 	 DATA
	??_R0?AU?$sum_node@V?$blocked_range@_K@d1@detail@tbb@@U?$ScanBody@_KPEA_KPEA_KU?$plus@_K@std@@@details@manifold@@@d1@detail@tbb@@@8 	 DATA
	??_R0?AU?$sum_node@V?$blocked_range@_K@d1@detail@tbb@@V?$lambda_scan_body@V?$blocked_range@_K@d1@detail@tbb@@HV<lambda_fc34ceecbeedaf8547ac86e00c016eac>@@U?$plus@H@std@@@234@@d1@detail@tbb@@@8 	 DATA
	??_R0?AV?$_Func_base@HU?$vec@N$02@linalg@@U?$vec@N$03@2@U32@@std@@@8 	 DATA
	??_R0?AV?$_Func_base@V?$vector@U?$vec@H$02@linalg@@V?$allocator@U?$vec@H$02@linalg@@@std@@@std@@H@std@@@8 	 DATA
	??_R0?AV?$_Func_base@X$$V@std@@@8 	 DATA
	??_R0?AV?$_Func_base@XH@std@@@8 	 DATA
	??_R0?AV?$_Func_base@XHU?$vec@H$02@linalg@@U?$vec@N$02@2@UTriRef@manifold@@@std@@@8 	 DATA
	??_R0?AV?$_Func_base@XPEANU?$vec@N$02@linalg@@PEBN@std@@@8 	 DATA
	??_R0?AV?$_Func_base@XV?$VecView@U?$vec@N$01@linalg@@@manifold@@@std@@@8 	 DATA
	??_R0?AV?$_Func_base@XV?$VecView@U?$vec@N$02@linalg@@@manifold@@@std@@@8 	 DATA
	??_R0?AV?$_Func_base@X_K@std@@@8 	 DATA
	??_R0?AV?$_Ref_count_obj2@$$CBUImpl@Manifold@manifold@@@std@@@8 	 DATA
	??_R0?AV?$_Ref_count_obj2@$$CBUPathImpl@manifold@@@std@@@8 	 DATA
	??_R0?AV?$_Ref_count_obj2@UCsgStackFrame@manifold@@@std@@@8 	 DATA
	??_R0?AV?$_Ref_count_obj2@UImpl@Manifold@manifold@@@std@@@8 	 DATA
	??_R0?AV?$_Ref_count_obj2@V?$vector@V?$shared_ptr@VCsgNode@manifold@@@std@@V?$allocator@V?$shared_ptr@VCsgNode@manifold@@@std@@@2@@std@@@std@@@8 	 DATA
	??_R0?AV?$_Ref_count_obj2@VCsgLeafNode@manifold@@@std@@@8 	 DATA
	??_R0?AV?$_Ref_count_obj2@VCsgOpNode@manifold@@@std@@@8 	 DATA
	??_R0?AV?$_Ref_count_obj2@Vrecursive_mutex@std@@@std@@@8 	 DATA
	??_R0?AV?$_Ref_count_resource@PEAUImpl@Manifold@manifold@@U?$default_delete@UImpl@Manifold@manifold@@@std@@@std@@@8 	 DATA
	??_R0?AV?$callback_leaf@U?$construct_by_args@V?$linear_congruential_engine@I$0LMIP@$0A@$0HPPPPPPP@@std@@I@d1@detail@tbb@@@d1@detail@tbb@@@8 	 DATA
	??_R0?AV?$callback_leaf@U?$construct_by_default@U?$Hist@_K$07@details@manifold@@@d1@detail@tbb@@@d1@detail@tbb@@@8 	 DATA
	??_R0?AV?$callback_leaf@U?$construct_by_default@VSparseIndices@manifold@@@d1@detail@tbb@@@d1@detail@tbb@@@8 	 DATA
	??_R0?AV?$enable_shared_from_this@VCsgNode@manifold@@@std@@@8 	 DATA
	??_R0?AV?$enumerable_thread_specific@U?$Hist@_K$07@details@manifold@@V?$cache_aligned_allocator@U?$Hist@_K$07@details@manifold@@@d1@detail@tbb@@$00@d1@detail@tbb@@@8 	 DATA
	??_R0?AV?$enumerable_thread_specific@V?$linear_congruential_engine@I$0LMIP@$0A@$0HPPPPPPP@@std@@V?$cache_aligned_allocator@V?$linear_congruential_engine@I$0LMIP@$0A@$0HPPPPPPP@@std@@@d1@detail@tbb@@$00@d1@detail@tbb@@@8 	 DATA
	??_R0?AV?$enumerable_thread_specific@VSparseIndices@manifold@@V?$cache_aligned_allocator@VSparseIndices@manifold@@@d1@detail@tbb@@$00@d1@detail@tbb@@@8 	 DATA
	??_R0?AV?$ets_base@$00@d1@detail@tbb@@@8 	 DATA
	??_R0?AV?$function_stack_task@V?$function@$$A6AXXZ@std@@@d2@detail@tbb@@@8 	 DATA
	??_R0?AV?$function_task@V?$function@$$A6AXXZ@std@@@d2@detail@tbb@@@8 	 DATA
	??_R0?AV?$task_arena_function@V<lambda_1486255ac5052f8f92f74f2766e62908>@@X@d1@detail@tbb@@@8 	 DATA
	??_R0?AV?$task_arena_function@V<lambda_8448a636cae94117123e0a62cebb7767>@@X@d1@detail@tbb@@@8 	 DATA
	??_R0?AVClipper2Exception@Clipper2Lib@@@8 	 DATA
	??_R0?AVClipperBase@Clipper2Lib@@@8 	 DATA
	??_R0?AVClipperD@Clipper2Lib@@@8 	 DATA
	??_R0?AVCsgLeafNode@manifold@@@8 	 DATA
	??_R0?AVCsgNode@manifold@@@8 	 DATA
	??_R0?AVCsgOpNode@manifold@@@8 	 DATA
	??_R0?AVPolyPath@Clipper2Lib@@@8 	 DATA
	??_R0?AVPolyPathD@Clipper2Lib@@@8 	 DATA
	??_R0?AV_Ref_count_base@std@@@8 	 DATA
	??_R0?AVbad_alloc@std@@@8 	 DATA
	??_R0?AVbad_array_new_length@std@@@8 	 DATA
	??_R0?AVbad_weak_ptr@std@@@8 	 DATA
	??_R0?AVcallback_base@d1@detail@tbb@@@8 	 DATA
	??_R0?AVdelegate_base@d1@detail@tbb@@@8 	 DATA
	??_R0?AVexception@std@@@8 	 DATA
	??_R0?AVno_assign@d0@detail@tbb@@@8 	 DATA
	??_R0?AVno_copy@d0@detail@tbb@@@8 	 DATA
	??_R0?AVtask@d1@detail@tbb@@@8 	 DATA
	??_R0?AVtask_handle_task@d2@detail@tbb@@@8 	 DATA
	??_R0?AVtask_traits@d1@detail@tbb@@@8 	 DATA
	??_R0?AVwait_context_vertex@d1@detail@tbb@@@8 	 DATA
	??_R0?AVwait_tree_vertex_interface@d1@detail@tbb@@@8 	 DATA
	?circularAngle_@Quality@manifold@@0NA 	 DATA
	?circularEdgeLength_@Quality@manifold@@0NA 	 DATA
	?circularSegments_@Quality@manifold@@0HA 	 DATA
	?meshIDCounter_@Impl@Manifold@manifold@@2U?$atomic@I@std@@A 	 DATA
	_Avx2WmemEnabledWeakValue 	 DATA
	__isa_available_default 	 DATA
	??$?0$$CBVCsgNode@manifold@@@?$shared_ptr@$$CBVCsgOpNode@manifold@@@std@@QEAA@$$QEAV?$shared_ptr@$$CBVCsgNode@manifold@@@1@PEBVCsgOpNode@manifold@@@Z
	??$?0$$QEAH$$Z$$V@?$pair@$$CBHH@std@@QEAA@Upiecewise_construct_t@1@V?$tuple@$$QEAH@1@V?$tuple@$$V@1@@Z
	??$?0$$QEAH$$Z$$V@?$pair@$$CBHURelation@Impl@Manifold@manifold@@@std@@QEAA@Upiecewise_construct_t@1@V?$tuple@$$QEAH@1@V?$tuple@$$V@1@@Z
	??$?0$$QEAH$$Z$$V@?$pair@$$CBHV?$vector@U?$vec@H$02@linalg@@V?$allocator@U?$vec@H$02@linalg@@@std@@@std@@@std@@QEAA@Upiecewise_construct_t@1@V?$tuple@$$QEAH@1@V?$tuple@$$V@1@@Z
	??$?0$$QEA_K$$Z$$V@?$pair@$$CB_K_K@std@@QEAA@Upiecewise_construct_t@1@V?$tuple@$$QEA_K@1@V?$tuple@$$V@1@@Z
	??$?0$$TH$0A@@?$pair@PEAH_J@std@@QEAA@$$QEA$$T$$QEAH@Z
	??$?0$$TH$0A@@?$pair@PEAUHalfedge@manifold@@_J@std@@QEAA@$$QEA$$T$$QEAH@Z
	??$?0$$TH$0A@@?$pair@PEA_J_J@std@@QEAA@$$QEA$$T$$QEAH@Z
	??$?0$$V@?$_Compressed_pair@U?$default_delete@V?$Vec@_K@manifold@@@std@@PEAV?$Vec@_K@manifold@@$00@std@@QEAA@U_Zero_then_variadic_args_t@1@@Z
	??$?0$$V@?$_Compressed_pair@U?$default_delete@VPolyPathD@Clipper2Lib@@@std@@PEAVPolyPathD@Clipper2Lib@@$00@std@@QEAA@U_Zero_then_variadic_args_t@1@@Z
	??$?0$$V@?$_Compressed_pair@V?$allocator@D@std@@V?$_String_val@U?$_Simple_types@D@std@@@2@$00@std@@QEAA@U_Zero_then_variadic_args_t@1@@Z
	??$?0$$V@?$_Compressed_pair@V?$allocator@H@std@@V?$_Deque_val@U?$_Deque_simple_types@H@std@@@2@$00@std@@QEAA@U_Zero_then_variadic_args_t@1@@Z
	??$?0$$V@?$_Compressed_pair@V?$allocator@H@std@@V?$_Vector_val@U?$_Simple_types@H@std@@@2@$00@std@@QEAA@U_Zero_then_variadic_args_t@1@@Z
	??$?0$$V@?$_Compressed_pair@V?$allocator@I@std@@V?$_Vector_val@U?$_Simple_types@I@std@@@2@$00@std@@QEAA@U_Zero_then_variadic_args_t@1@@Z
	??$?0$$V@?$_Compressed_pair@V?$allocator@M@std@@V?$_Vector_val@U?$_Simple_types@M@std@@@2@$00@std@@QEAA@U_Zero_then_variadic_args_t@1@@Z
	??$?0$$V@?$_Compressed_pair@V?$allocator@N@std@@V?$_Vector_val@U?$_Simple_types@N@std@@@2@$00@std@@QEAA@U_Zero_then_variadic_args_t@1@@Z
	??$?0$$V@?$_Compressed_pair@V?$allocator@PEAUOutRec@Clipper2Lib@@@std@@V?$_Vector_val@U?$_Simple_types@PEAUOutRec@Clipper2Lib@@@std@@@2@$00@std@@QEAA@U_Zero_then_variadic_args_t@1@@Z
	??$?0$$V@?$_Compressed_pair@V?$allocator@PEAUVertex@Clipper2Lib@@@std@@V?$_Vector_val@U?$_Simple_types@PEAUVertex@Clipper2Lib@@@std@@@2@$00@std@@QEAA@U_Zero_then_variadic_args_t@1@@Z
	??$?0$$V@?$_Compressed_pair@V?$allocator@U?$Point@N@Clipper2Lib@@@std@@V?$_Vector_val@U?$_Simple_types@U?$Point@N@Clipper2Lib@@@std@@@2@$00@std@@QEAA@U_Zero_then_variadic_args_t@1@@Z
	??$?0$$V@?$_Compressed_pair@V?$allocator@U?$Point@_J@Clipper2Lib@@@std@@V?$_Vector_val@U?$_Simple_types@U?$Point@_J@Clipper2Lib@@@std@@@2@$00@std@@QEAA@U_Zero_then_variadic_args_t@1@@Z
	??$?0$$V@?$_Compressed_pair@V?$allocator@U?$_Tree_node@U?$pair@$$CBHH@std@@PEAX@std@@@std@@V?$_Tree_val@U?$_Tree_simple_types@U?$pair@$$CBHH@std@@@std@@@2@$00@std@@QEAA@U_Zero_then_variadic_args_t@1@@Z
	??$?0$$V@?$_Compressed_pair@V?$allocator@U?$_Tree_node@U?$pair@$$CBHU?$pair@USmoothness@manifold@@U12@@std@@@std@@PEAX@std@@@std@@V?$_Tree_val@U?$_Tree_simple_types@U?$pair@$$CBHU?$pair@USmoothness@manifold@@U12@@std@@@std@@@std@@@2@$00@std@@QEAA@U_Zero_then_variadic_args_t@1@@Z
	??$?0$$V@?$_Compressed_pair@V?$allocator@U?$_Tree_node@U?$pair@$$CBHURelation@Impl@Manifold@manifold@@@std@@PEAX@std@@@std@@V?$_Tree_val@U?$_Tree_simple_types@U?$pair@$$CBHURelation@Impl@Manifold@manifold@@@std@@@std@@@2@$00@std@@QEAA@U_Zero_then_variadic_args_t@1@@Z
	??$?0$$V@?$_Compressed_pair@V?$allocator@U?$_Tree_node@U?$pair@$$CBHV?$vector@U?$pair@USmoothness@manifold@@U12@@std@@V?$allocator@U?$pair@USmoothness@manifold@@U12@@std@@@2@@std@@@std@@PEAX@std@@@std@@V?$_Tree_val@U?$_Tree_simple_types@U?$pair@$$CBHV?$vector@U?$pair@USmoothness@manifold@@U12@@std@@V?$allocator@U?$pair@USmoothness@manifold@@U12@@std@@@2@@std@@@std@@@std@@@2@$00@std@@QEAA@U_Zero_then_variadic_args_t@1@@Z
	??$?0$$V@?$_Compressed_pair@V?$allocator@U?$_Tree_node@U?$pair@HH@std@@PEAX@std@@@std@@V?$_Tree_val@U?$_Tree_simple_types@U?$pair@HH@std@@@std@@@2@$00@std@@QEAA@U_Zero_then_variadic_args_t@1@@Z
	??$?0$$V@?$_Compressed_pair@V?$allocator@U?$mat@N$02$02@linalg@@@std@@V?$_Vector_val@U?$_Simple_types@U?$mat@N$02$02@linalg@@@std@@@2@$00@std@@QEAA@U_Zero_then_variadic_args_t@1@@Z
	??$?0$$V@?$_Compressed_pair@V?$allocator@U?$pair@U?$vec@H$02@linalg@@H@std@@@std@@V?$_Vector_val@U?$_Simple_types@U?$pair@U?$vec@H$02@linalg@@H@std@@@std@@@2@$00@std@@QEAA@U_Zero_then_variadic_args_t@1@@Z
	??$?0$$V@?$_Compressed_pair@V?$allocator@U?$pair@USmoothness@manifold@@U12@@std@@@std@@V?$_Vector_val@U?$_Simple_types@U?$pair@USmoothness@manifold@@U12@@std@@@std@@@2@$00@std@@QEAA@U_Zero_then_variadic_args_t@1@@Z
	??$?0$$V@?$_Compressed_pair@V?$allocator@U?$vec@H$01@linalg@@@std@@V?$_Vector_val@U?$_Simple_types@U?$vec@H$01@linalg@@@std@@@2@$00@std@@QEAA@U_Zero_then_variadic_args_t@1@@Z
	??$?0$$V@?$_Compressed_pair@V?$allocator@U?$vec@H$02@linalg@@@std@@V?$_Vector_val@U?$_Simple_types@U?$vec@H$02@linalg@@@std@@@2@$00@std@@QEAA@U_Zero_then_variadic_args_t@1@@Z
	??$?0$$V@?$_Compressed_pair@V?$allocator@U?$vec@N$01@linalg@@@std@@V?$_Vector_val@U?$_Simple_types@U?$vec@N$01@linalg@@@std@@@2@$00@std@@QEAA@U_Zero_then_variadic_args_t@1@@Z
	??$?0$$V@?$_Compressed_pair@V?$allocator@U?$vec@N$02@linalg@@@std@@V?$_Vector_val@U?$_Simple_types@U?$vec@N$02@linalg@@@std@@@2@$00@std@@QEAA@U_Zero_then_variadic_args_t@1@@Z
	??$?0$$V@?$_Compressed_pair@V?$allocator@UFace@MeshBuilder@manifold@@@std@@V?$_Vector_val@U?$_Simple_types@UFace@MeshBuilder@manifold@@@std@@@2@$00@std@@QEAA@U_Zero_then_variadic_args_t@1@@Z
	??$?0$$V@?$_Compressed_pair@V?$allocator@UHalfedge@manifold@@@std@@V?$_Vector_val@U?$_Simple_types@UHalfedge@manifold@@@std@@@2@$00@std@@QEAA@U_Zero_then_variadic_args_t@1@@Z
	??$?0$$V@?$_Compressed_pair@V?$allocator@UHorzJoin@Clipper2Lib@@@std@@V?$_Vector_val@U?$_Simple_types@UHorzJoin@Clipper2Lib@@@std@@@2@$00@std@@QEAA@U_Zero_then_variadic_args_t@1@@Z
	??$?0$$V@?$_Compressed_pair@V?$allocator@UHorzSegment@Clipper2Lib@@@std@@V?$_Vector_val@U?$_Simple_types@UHorzSegment@Clipper2Lib@@@std@@@2@$00@std@@QEAA@U_Zero_then_variadic_args_t@1@@Z
	??$?0$$V@?$_Compressed_pair@V?$allocator@UIntersectNode@Clipper2Lib@@@std@@V?$_Vector_val@U?$_Simple_types@UIntersectNode@Clipper2Lib@@@std@@@2@$00@std@@QEAA@U_Zero_then_variadic_args_t@1@@Z
	??$?0$$V@?$_Compressed_pair@V?$allocator@UPolyVert@manifold@@@std@@V?$_Vector_val@U?$_Simple_types@UPolyVert@manifold@@@std@@@2@$00@std@@QEAA@U_Zero_then_variadic_args_t@1@@Z
	??$?0$$V@?$_Compressed_pair@V?$allocator@USmoothness@manifold@@@std@@V?$_Vector_val@U?$_Simple_types@USmoothness@manifold@@@std@@@2@$00@std@@QEAA@U_Zero_then_variadic_args_t@1@@Z
	??$?0$$V@?$_Compressed_pair@V?$allocator@V?$Vec@_K@manifold@@@std@@V?$_Vector_val@U?$_Simple_types@V?$Vec@_K@manifold@@@std@@@2@$00@std@@QEAA@U_Zero_then_variadic_args_t@1@@Z
	??$?0$$V@?$_Compressed_pair@V?$allocator@V?$shared_ptr@UCsgStackFrame@manifold@@@std@@@std@@V?$_Vector_val@U?$_Simple_types@V?$shared_ptr@UCsgStackFrame@manifold@@@std@@@std@@@2@$00@std@@QEAA@U_Zero_then_variadic_args_t@1@@Z
	??$?0$$V@?$_Compressed_pair@V?$allocator@V?$shared_ptr@VCsgLeafNode@manifold@@@std@@@std@@V?$_Vector_val@U?$_Simple_types@V?$shared_ptr@VCsgLeafNode@manifold@@@std@@@std@@@2@$00@std@@QEAA@U_Zero_then_variadic_args_t@1@@Z
	??$?0$$V@?$_Compressed_pair@V?$allocator@V?$shared_ptr@VCsgNode@manifold@@@std@@@std@@V?$_Vector_val@U?$_Simple_types@V?$shared_ptr@VCsgNode@manifold@@@std@@@std@@@2@$00@std@@QEAA@U_Zero_then_variadic_args_t@1@@Z
	??$?0$$V@?$_Compressed_pair@V?$allocator@V?$shared_ptr@VCsgOpNode@manifold@@@std@@@std@@V?$_Vector_val@U?$_Simple_types@V?$shared_ptr@VCsgOpNode@manifold@@@std@@@std@@@2@$00@std@@QEAA@U_Zero_then_variadic_args_t@1@@Z
	??$?0$$V@?$_Compressed_pair@V?$allocator@V?$unique_ptr@ULocalMinima@Clipper2Lib@@U?$default_delete@ULocalMinima@Clipper2Lib@@@std@@@std@@@std@@V?$_Vector_val@U?$_Simple_types@V?$unique_ptr@ULocalMinima@Clipper2Lib@@U?$default_delete@ULocalMinima@Clipper2Lib@@@std@@@std@@@std@@@2@$00@std@@QEAA@U_Zero_then_variadic_args_t@1@@Z
	??$?0$$V@?$_Compressed_pair@V?$allocator@V?$unique_ptr@V?$Vec@_K@manifold@@U?$default_delete@V?$Vec@_K@manifold@@@std@@@std@@@std@@V?$_Vector_val@U?$_Simple_types@V?$unique_ptr@V?$Vec@_K@manifold@@U?$default_delete@V?$Vec@_K@manifold@@@std@@@std@@@std@@@2@$00@std@@QEAA@U_Zero_then_variadic_args_t@1@@Z
	??$?0$$V@?$_Compressed_pair@V?$allocator@V?$unique_ptr@VPolyPathD@Clipper2Lib@@U?$default_delete@VPolyPathD@Clipper2Lib@@@std@@@std@@@std@@V?$_Vector_val@U?$_Simple_types@V?$unique_ptr@VPolyPathD@Clipper2Lib@@U?$default_delete@VPolyPathD@Clipper2Lib@@@std@@@std@@@std@@@2@$00@std@@QEAA@U_Zero_then_variadic_args_t@1@@Z
	??$?0$$V@?$_Compressed_pair@V?$allocator@V?$vector@U?$Point@N@Clipper2Lib@@V?$allocator@U?$Point@N@Clipper2Lib@@@std@@@std@@@std@@V?$_Vector_val@U?$_Simple_types@V?$vector@U?$Point@N@Clipper2Lib@@V?$allocator@U?$Point@N@Clipper2Lib@@@std@@@std@@@std@@@2@$00@std@@QEAA@U_Zero_then_variadic_args_t@1@@Z
	??$?0$$V@?$_Compressed_pair@V?$allocator@V?$vector@U?$Point@_J@Clipper2Lib@@V?$allocator@U?$Point@_J@Clipper2Lib@@@std@@@std@@@std@@V?$_Vector_val@U?$_Simple_types@V?$vector@U?$Point@_J@Clipper2Lib@@V?$allocator@U?$Point@_J@Clipper2Lib@@@std@@@std@@@std@@@2@$00@std@@QEAA@U_Zero_then_variadic_args_t@1@@Z
	??$?0$$V@?$_Compressed_pair@V?$allocator@V?$vector@U?$vec@N$01@linalg@@V?$allocator@U?$vec@N$01@linalg@@@std@@@std@@@std@@V?$_Vector_val@U?$_Simple_types@V?$vector@U?$vec@N$01@linalg@@V?$allocator@U?$vec@N$01@linalg@@@std@@@std@@@std@@@2@$00@std@@QEAA@U_Zero_then_variadic_args_t@1@@Z
	??$?0$$V@?$_Compressed_pair@V?$allocator@V?$vector@UPolyVert@manifold@@V?$allocator@UPolyVert@manifold@@@std@@@std@@@std@@V?$_Vector_val@U?$_Simple_types@V?$vector@UPolyVert@manifold@@V?$allocator@UPolyVert@manifold@@@std@@@std@@@std@@@2@$00@std@@QEAA@U_Zero_then_variadic_args_t@1@@Z
	??$?0$$V@?$_Compressed_pair@V?$allocator@V?$vector@V?$vector@U?$Point@N@Clipper2Lib@@V?$allocator@U?$Point@N@Clipper2Lib@@@std@@@std@@V?$allocator@V?$vector@U?$Point@N@Clipper2Lib@@V?$allocator@U?$Point@N@Clipper2Lib@@@std@@@std@@@2@@std@@@std@@V?$_Vector_val@U?$_Simple_types@V?$vector@V?$vector@U?$Point@N@Clipper2Lib@@V?$allocator@U?$Point@N@Clipper2Lib@@@std@@@std@@V?$allocator@V?$vector@U?$Point@N@Clipper2Lib@@V?$allocator@U?$Point@N@Clipper2Lib@@@std@@@std@@@2@@std@@@std@@@2@$00@std@@QEAA@U_Zero_then_variadic_args_t@1@@Z
	??$?0$$V@?$_Compressed_pair@V?$allocator@VCrossSection@manifold@@@std@@V?$_Vector_val@U?$_Simple_types@VCrossSection@manifold@@@std@@@2@$00@std@@QEAA@U_Zero_then_variadic_args_t@1@@Z
	??$?0$$V@?$_Compressed_pair@V?$allocator@VGroup@ClipperOffset@Clipper2Lib@@@std@@V?$_Vector_val@U?$_Simple_types@VGroup@ClipperOffset@Clipper2Lib@@@std@@@2@$00@std@@QEAA@U_Zero_then_variadic_args_t@1@@Z
	??$?0$$V@?$_Compressed_pair@V?$allocator@VManifold@manifold@@@std@@V?$_Vector_val@U?$_Simple_types@VManifold@manifold@@@std@@@2@$00@std@@QEAA@U_Zero_then_variadic_args_t@1@@Z
	??$?0$$V@?$_Compressed_pair@V?$allocator@VSparseIndices@manifold@@@std@@V?$_Vector_val@U?$_Simple_types@VSparseIndices@manifold@@@std@@@2@$00@std@@QEAA@U_Zero_then_variadic_args_t@1@@Z
	??$?0$$V@?$_Compressed_pair@V?$allocator@_J@std@@V?$_Vector_val@U?$_Simple_types@_J@std@@@2@$00@std@@QEAA@U_Zero_then_variadic_args_t@1@@Z
	??$?0$$V@?$_Compressed_pair@V?$allocator@_K@std@@V?$_Vector_val@U?$_Simple_types@_K@std@@@2@$00@std@@QEAA@U_Zero_then_variadic_args_t@1@@Z
	??$?0$$V@?$_Ref_count_obj2@UImpl@Manifold@manifold@@@std@@QEAA@XZ
	??$?0$$V@?$_Ref_count_obj2@VCsgLeafNode@manifold@@@std@@QEAA@XZ
	??$?0$$V@?$_Ref_count_obj2@VCsgOpNode@manifold@@@std@@QEAA@XZ
	??$?0$$V@?$_Ref_count_obj2@Vrecursive_mutex@std@@@std@@QEAA@XZ
	??$?0AEAHAEAH$0A@@?$pair@HH@std@@QEAA@AEAH0@Z
	??$?0AEAHAEAU?$vec@N$01@linalg@@$0A@@?$pair@HU?$vec@N$01@linalg@@@std@@QEAA@AEAHAEAU?$vec@N$01@linalg@@@Z
	??$?0AEANAEAN$0A@@?$pair@NN@std@@QEAA@AEAN0@Z
	??$?0AEAPEAHAEAPEAH$0A@@?$pair@PEAHPEAH@std@@QEAA@AEAPEAH0@Z
	??$?0AEAPEAU?$_List_node@U?$pair@$$CBHH@std@@PEAX@std@@_N$0A@@?$pair@PEAU?$_List_node@U?$pair@$$CBHH@std@@PEAX@std@@_N@std@@QEAA@AEAPEAU?$_List_node@U?$pair@$$CBHH@std@@PEAX@1@$$QEA_N@Z
	??$?0AEAPEAU?$_List_node@U?$pair@$$CB_K_K@std@@PEAX@std@@_N$0A@@?$pair@PEAU?$_List_node@U?$pair@$$CB_K_K@std@@PEAX@std@@_N@std@@QEAA@AEAPEAU?$_List_node@U?$pair@$$CB_K_K@std@@PEAX@1@$$QEA_N@Z
	??$?0AEAPEAU?$_Tree_node@U?$pair@$$CBHURelation@Impl@Manifold@manifold@@@std@@PEAX@std@@AEAPEAU01@$0A@@?$pair@PEAU?$_Tree_node@U?$pair@$$CBHURelation@Impl@Manifold@manifold@@@std@@PEAX@std@@PEAU12@@std@@QEAA@AEAPEAU?$_Tree_node@U?$pair@$$CBHURelation@Impl@Manifold@manifold@@@std@@PEAX@1@0@Z
	??$?0AEAPEAU?$sum_node@V?$blocked_range@_K@d1@detail@tbb@@U?$CopyIfScanBody@PEAHPEAHV<lambda_5c12ef6d5b86dd74cff0ad6bf5f99d2e>@@@details@manifold@@@d1@detail@tbb@@$0A@@?$reference_wrapper@PEAU?$sum_node@V?$blocked_range@_K@d1@detail@tbb@@U?$CopyIfScanBody@PEAHPEAHV<lambda_5c12ef6d5b86dd74cff0ad6bf5f99d2e>@@@details@manifold@@@d1@detail@tbb@@@std@@QEAA@AEAPEAU?$sum_node@V?$blocked_range@_K@d1@detail@tbb@@U?$CopyIfScanBody@PEAHPEAHV<lambda_5c12ef6d5b86dd74cff0ad6bf5f99d2e>@@@details@manifold@@@d1@detail@tbb@@@Z
	??$?0AEAPEAU?$sum_node@V?$blocked_range@_K@d1@detail@tbb@@U?$CopyIfScanBody@PEAUTmpEdge@manifold@@PEAU12@V<lambda_1d1c6bcdb0a6830adb484fa5460103d0>@@@details@manifold@@@d1@detail@tbb@@$0A@@?$reference_wrapper@PEAU?$sum_node@V?$blocked_range@_K@d1@detail@tbb@@U?$CopyIfScanBody@PEAUTmpEdge@manifold@@PEAU12@V<lambda_1d1c6bcdb0a6830adb484fa5460103d0>@@@details@manifold@@@d1@detail@tbb@@@std@@QEAA@AEAPEAU?$sum_node@V?$blocked_range@_K@d1@detail@tbb@@U?$CopyIfScanBody@PEAUTmpEdge@manifold@@PEAU12@V<lambda_1d1c6bcdb0a6830adb484fa5460103d0>@@@details@manifold@@@d1@detail@tbb@@@Z
	??$?0AEAPEAU?$sum_node@V?$blocked_range@_K@d1@detail@tbb@@U?$CopyIfScanBody@PEA_JPEA_JV<lambda_09fe494a54b81d6c69236683cf5b4f26>@@@details@manifold@@@d1@detail@tbb@@$0A@@?$reference_wrapper@PEAU?$sum_node@V?$blocked_range@_K@d1@detail@tbb@@U?$CopyIfScanBody@PEA_JPEA_JV<lambda_09fe494a54b81d6c69236683cf5b4f26>@@@details@manifold@@@d1@detail@tbb@@@std@@QEAA@AEAPEAU?$sum_node@V?$blocked_range@_K@d1@detail@tbb@@U?$CopyIfScanBody@PEA_JPEA_JV<lambda_09fe494a54b81d6c69236683cf5b4f26>@@@details@manifold@@@d1@detail@tbb@@@Z
	??$?0AEAPEAU?$sum_node@V?$blocked_range@_K@d1@detail@tbb@@U?$CopyIfScanBody@U?$CountingIterator@_K@manifold@@PEAHV<lambda_15275a5507336b257891fcec3ad173af>@@@details@manifold@@@d1@detail@tbb@@$0A@@?$reference_wrapper@PEAU?$sum_node@V?$blocked_range@_K@d1@detail@tbb@@U?$CopyIfScanBody@U?$CountingIterator@_K@manifold@@PEAHV<lambda_15275a5507336b257891fcec3ad173af>@@@details@manifold@@@d1@detail@tbb@@@std@@QEAA@AEAPEAU?$sum_node@V?$blocked_range@_K@d1@detail@tbb@@U?$CopyIfScanBody@U?$CountingIterator@_K@manifold@@PEAHV<lambda_15275a5507336b257891fcec3ad173af>@@@details@manifold@@@d1@detail@tbb@@@Z
	??$?0AEAPEAU?$sum_node@V?$blocked_range@_K@d1@detail@tbb@@U?$CopyIfScanBody@U?$CountingIterator@_K@manifold@@PEAHV<lambda_4107a9b620f6bac47b0532e36b1e37da>@@@details@manifold@@@d1@detail@tbb@@$0A@@?$reference_wrapper@PEAU?$sum_node@V?$blocked_range@_K@d1@detail@tbb@@U?$CopyIfScanBody@U?$CountingIterator@_K@manifold@@PEAHV<lambda_4107a9b620f6bac47b0532e36b1e37da>@@@details@manifold@@@d1@detail@tbb@@@std@@QEAA@AEAPEAU?$sum_node@V?$blocked_range@_K@d1@detail@tbb@@U?$CopyIfScanBody@U?$CountingIterator@_K@manifold@@PEAHV<lambda_4107a9b620f6bac47b0532e36b1e37da>@@@details@manifold@@@d1@detail@tbb@@@Z
	??$?0AEAPEAU?$sum_node@V?$blocked_range@_K@d1@detail@tbb@@U?$CopyIfScanBody@U?$CountingIterator@_K@manifold@@PEAHV<lambda_f7d217123976fdede42126514b35aac9>@@@details@manifold@@@d1@detail@tbb@@$0A@@?$reference_wrapper@PEAU?$sum_node@V?$blocked_range@_K@d1@detail@tbb@@U?$CopyIfScanBody@U?$CountingIterator@_K@manifold@@PEAHV<lambda_f7d217123976fdede42126514b35aac9>@@@details@manifold@@@d1@detail@tbb@@@std@@QEAA@AEAPEAU?$sum_node@V?$blocked_range@_K@d1@detail@tbb@@U?$CopyIfScanBody@U?$CountingIterator@_K@manifold@@PEAHV<lambda_f7d217123976fdede42126514b35aac9>@@@details@manifold@@@d1@detail@tbb@@@Z
	??$?0AEAPEAU?$sum_node@V?$blocked_range@_K@d1@detail@tbb@@U?$ScanBody@HPEAHPEAHU?$plus@H@std@@@details@manifold@@@d1@detail@tbb@@$0A@@?$reference_wrapper@PEAU?$sum_node@V?$blocked_range@_K@d1@detail@tbb@@U?$ScanBody@HPEAHPEAHU?$plus@H@std@@@details@manifold@@@d1@detail@tbb@@@std@@QEAA@AEAPEAU?$sum_node@V?$blocked_range@_K@d1@detail@tbb@@U?$ScanBody@HPEAHPEAHU?$plus@H@std@@@details@manifold@@@d1@detail@tbb@@@Z
	??$?0AEAPEAU?$sum_node@V?$blocked_range@_K@d1@detail@tbb@@U?$ScanBody@_KPEA_KPEA_KU?$plus@_K@std@@@details@manifold@@@d1@detail@tbb@@$0A@@?$reference_wrapper@PEAU?$sum_node@V?$blocked_range@_K@d1@detail@tbb@@U?$ScanBody@_KPEA_KPEA_KU?$plus@_K@std@@@details@manifold@@@d1@detail@tbb@@@std@@QEAA@AEAPEAU?$sum_node@V?$blocked_range@_K@d1@detail@tbb@@U?$ScanBody@_KPEA_KPEA_KU?$plus@_K@std@@@details@manifold@@@d1@detail@tbb@@@Z
	??$?0AEAPEAU?$sum_node@V?$blocked_range@_K@d1@detail@tbb@@V?$lambda_scan_body@V?$blocked_range@_K@d1@detail@tbb@@HV<lambda_fc34ceecbeedaf8547ac86e00c016eac>@@U?$plus@H@std@@@234@@d1@detail@tbb@@$0A@@?$reference_wrapper@PEAU?$sum_node@V?$blocked_range@_K@d1@detail@tbb@@V?$lambda_scan_body@V?$blocked_range@_K@d1@detail@tbb@@HV<lambda_fc34ceecbeedaf8547ac86e00c016eac>@@U?$plus@H@std@@@234@@d1@detail@tbb@@@std@@QEAA@AEAPEAU?$sum_node@V?$blocked_range@_K@d1@detail@tbb@@V?$lambda_scan_body@V?$blocked_range@_K@d1@detail@tbb@@HV<lambda_fc34ceecbeedaf8547ac86e00c016eac>@@U?$plus@H@std@@@234@@d1@detail@tbb@@@Z
	??$?0AEAPEAU?$vec@N$01@linalg@@AEAPEAU01@$0A@@?$pair@PEAU?$vec@N$01@linalg@@PEAU12@@std@@QEAA@AEAPEAU?$vec@N$01@linalg@@0@Z
	??$?0AEAPEAUImpl@Manifold@manifold@@@?$_Compressed_pair@U?$default_delete@UImpl@Manifold@manifold@@@std@@PEAUImpl@Manifold@manifold@@$00@std@@QEAA@U_Zero_then_variadic_args_t@1@AEAPEAUImpl@Manifold@manifold@@@Z
	??$?0AEAPEAV?$Vec@_K@manifold@@@?$_Compressed_pair@U?$default_delete@V?$Vec@_K@manifold@@@std@@PEAV?$Vec@_K@manifold@@$00@std@@QEAA@U_Zero_then_variadic_args_t@1@AEAPEAV?$Vec@_K@manifold@@@Z
	??$?0AEAPEAVPolyPathD@Clipper2Lib@@@?$_Compressed_pair@U?$default_delete@VPolyPathD@Clipper2Lib@@@std@@PEAVPolyPathD@Clipper2Lib@@$00@std@@QEAA@U_Zero_then_variadic_args_t@1@AEAPEAVPolyPathD@Clipper2Lib@@@Z
	??$?0AEAU?$final_sum@V?$blocked_range@_K@d1@detail@tbb@@U?$CopyIfScanBody@PEAHPEAHV<lambda_5c12ef6d5b86dd74cff0ad6bf5f99d2e>@@@details@manifold@@@d1@detail@tbb@@$0A@@?$reference_wrapper@U?$final_sum@V?$blocked_range@_K@d1@detail@tbb@@U?$CopyIfScanBody@PEAHPEAHV<lambda_5c12ef6d5b86dd74cff0ad6bf5f99d2e>@@@details@manifold@@@d1@detail@tbb@@@std@@QEAA@AEAU?$final_sum@V?$blocked_range@_K@d1@detail@tbb@@U?$CopyIfScanBody@PEAHPEAHV<lambda_5c12ef6d5b86dd74cff0ad6bf5f99d2e>@@@details@manifold@@@d1@detail@tbb@@@Z
	??$?0AEAU?$final_sum@V?$blocked_range@_K@d1@detail@tbb@@U?$CopyIfScanBody@PEAUTmpEdge@manifold@@PEAU12@V<lambda_1d1c6bcdb0a6830adb484fa5460103d0>@@@details@manifold@@@d1@detail@tbb@@$0A@@?$reference_wrapper@U?$final_sum@V?$blocked_range@_K@d1@detail@tbb@@U?$CopyIfScanBody@PEAUTmpEdge@manifold@@PEAU12@V<lambda_1d1c6bcdb0a6830adb484fa5460103d0>@@@details@manifold@@@d1@detail@tbb@@@std@@QEAA@AEAU?$final_sum@V?$blocked_range@_K@d1@detail@tbb@@U?$CopyIfScanBody@PEAUTmpEdge@manifold@@PEAU12@V<lambda_1d1c6bcdb0a6830adb484fa5460103d0>@@@details@manifold@@@d1@detail@tbb@@@Z
	??$?0AEAU?$final_sum@V?$blocked_range@_K@d1@detail@tbb@@U?$CopyIfScanBody@PEA_JPEA_JV<lambda_09fe494a54b81d6c69236683cf5b4f26>@@@details@manifold@@@d1@detail@tbb@@$0A@@?$reference_wrapper@U?$final_sum@V?$blocked_range@_K@d1@detail@tbb@@U?$CopyIfScanBody@PEA_JPEA_JV<lambda_09fe494a54b81d6c69236683cf5b4f26>@@@details@manifold@@@d1@detail@tbb@@@std@@QEAA@AEAU?$final_sum@V?$blocked_range@_K@d1@detail@tbb@@U?$CopyIfScanBody@PEA_JPEA_JV<lambda_09fe494a54b81d6c69236683cf5b4f26>@@@details@manifold@@@d1@detail@tbb@@@Z
	??$?0AEAU?$final_sum@V?$blocked_range@_K@d1@detail@tbb@@U?$CopyIfScanBody@U?$CountingIterator@_K@manifold@@PEAHV<lambda_15275a5507336b257891fcec3ad173af>@@@details@manifold@@@d1@detail@tbb@@$0A@@?$reference_wrapper@U?$final_sum@V?$blocked_range@_K@d1@detail@tbb@@U?$CopyIfScanBody@U?$CountingIterator@_K@manifold@@PEAHV<lambda_15275a5507336b257891fcec3ad173af>@@@details@manifold@@@d1@detail@tbb@@@std@@QEAA@AEAU?$final_sum@V?$blocked_range@_K@d1@detail@tbb@@U?$CopyIfScanBody@U?$CountingIterator@_K@manifold@@PEAHV<lambda_15275a5507336b257891fcec3ad173af>@@@details@manifold@@@d1@detail@tbb@@@Z
	??$?0AEAU?$final_sum@V?$blocked_range@_K@d1@detail@tbb@@U?$CopyIfScanBody@U?$CountingIterator@_K@manifold@@PEAHV<lambda_4107a9b620f6bac47b0532e36b1e37da>@@@details@manifold@@@d1@detail@tbb@@$0A@@?$reference_wrapper@U?$final_sum@V?$blocked_range@_K@d1@detail@tbb@@U?$CopyIfScanBody@U?$CountingIterator@_K@manifold@@PEAHV<lambda_4107a9b620f6bac47b0532e36b1e37da>@@@details@manifold@@@d1@detail@tbb@@@std@@QEAA@AEAU?$final_sum@V?$blocked_range@_K@d1@detail@tbb@@U?$CopyIfScanBody@U?$CountingIterator@_K@manifold@@PEAHV<lambda_4107a9b620f6bac47b0532e36b1e37da>@@@details@manifold@@@d1@detail@tbb@@@Z
	??$?0AEAU?$final_sum@V?$blocked_range@_K@d1@detail@tbb@@U?$CopyIfScanBody@U?$CountingIterator@_K@manifold@@PEAHV<lambda_f7d217123976fdede42126514b35aac9>@@@details@manifold@@@d1@detail@tbb@@$0A@@?$reference_wrapper@U?$final_sum@V?$blocked_range@_K@d1@detail@tbb@@U?$CopyIfScanBody@U?$CountingIterator@_K@manifold@@PEAHV<lambda_f7d217123976fdede42126514b35aac9>@@@details@manifold@@@d1@detail@tbb@@@std@@QEAA@AEAU?$final_sum@V?$blocked_range@_K@d1@detail@tbb@@U?$CopyIfScanBody@U?$CountingIterator@_K@manifold@@PEAHV<lambda_f7d217123976fdede42126514b35aac9>@@@details@manifold@@@d1@detail@tbb@@@Z
	??$?0AEAU?$final_sum@V?$blocked_range@_K@d1@detail@tbb@@U?$ScanBody@HPEAHPEAHU?$plus@H@std@@@details@manifold@@@d1@detail@tbb@@$0A@@?$reference_wrapper@U?$final_sum@V?$blocked_range@_K@d1@detail@tbb@@U?$ScanBody@HPEAHPEAHU?$plus@H@std@@@details@manifold@@@d1@detail@tbb@@@std@@QEAA@AEAU?$final_sum@V?$blocked_range@_K@d1@detail@tbb@@U?$ScanBody@HPEAHPEAHU?$plus@H@std@@@details@manifold@@@d1@detail@tbb@@@Z
	??$?0AEAU?$final_sum@V?$blocked_range@_K@d1@detail@tbb@@U?$ScanBody@_KPEA_KPEA_KU?$plus@_K@std@@@details@manifold@@@d1@detail@tbb@@$0A@@?$reference_wrapper@U?$final_sum@V?$blocked_range@_K@d1@detail@tbb@@U?$ScanBody@_KPEA_KPEA_KU?$plus@_K@std@@@details@manifold@@@d1@detail@tbb@@@std@@QEAA@AEAU?$final_sum@V?$blocked_range@_K@d1@detail@tbb@@U?$ScanBody@_KPEA_KPEA_KU?$plus@_K@std@@@details@manifold@@@d1@detail@tbb@@@Z
	??$?0AEAU?$final_sum@V?$blocked_range@_K@d1@detail@tbb@@V?$lambda_scan_body@V?$blocked_range@_K@d1@detail@tbb@@HV<lambda_fc34ceecbeedaf8547ac86e00c016eac>@@U?$plus@H@std@@@234@@d1@detail@tbb@@$0A@@?$reference_wrapper@U?$final_sum@V?$blocked_range@_K@d1@detail@tbb@@V?$lambda_scan_body@V?$blocked_range@_K@d1@detail@tbb@@HV<lambda_fc34ceecbeedaf8547ac86e00c016eac>@@U?$plus@H@std@@@234@@d1@detail@tbb@@@std@@QEAA@AEAU?$final_sum@V?$blocked_range@_K@d1@detail@tbb@@V?$lambda_scan_body@V?$blocked_range@_K@d1@detail@tbb@@HV<lambda_fc34ceecbeedaf8547ac86e00c016eac>@@U?$plus@H@std@@@234@@d1@detail@tbb@@@Z
	??$?0AEAUImpl@Manifold@manifold@@@?$_Ref_count_obj2@UImpl@Manifold@manifold@@@std@@QEAA@AEAUImpl@Manifold@manifold@@@Z
	??$?0AEAV?$Vec@H@manifold@@$0A@@?$tuple@AEAV?$Vec@H@manifold@@AEAV12@@std@@QEAA@AEAV?$Vec@H@manifold@@0@Z
	??$?0AEAV?$Vec@H@manifold@@$0A@@?$tuple@AEAV?$Vec@H@manifold@@AEAV?$Vec@N@2@@std@@QEAA@AEAV?$Vec@H@manifold@@AEAV?$Vec@N@3@@Z
	??$?0AEAV?$Vec@H@manifold@@$0A@@?$tuple@AEAV?$Vec@H@manifold@@AEAV?$Vec@U?$vec@N$02@linalg@@@2@@std@@QEAA@AEAV?$Vec@H@manifold@@AEAV?$Vec@U?$vec@N$02@linalg@@@3@@Z
	??$?0AEAV?$Vec@H@manifold@@$0A@@?$tuple@AEAV?$Vec@H@manifold@@AEAV?$Vec@U?$vec@N$03@linalg@@@2@@std@@QEAA@AEAV?$Vec@H@manifold@@AEAV?$Vec@U?$vec@N$03@linalg@@@3@@Z
	??$?0AEAV?$Vec@H@manifold@@@?$_Tuple_val@AEAV?$Vec@H@manifold@@@std@@QEAA@AEAV?$Vec@H@manifold@@@Z
	??$?0AEAV?$Vec@H@manifold@@@?$_Tuple_val@V?$Vec@H@manifold@@@std@@QEAA@AEAV?$Vec@H@manifold@@@Z
	??$?0AEAV?$Vec@H@manifold@@AEAV01@$0A@@?$tuple@V?$Vec@H@manifold@@V12@@std@@QEAA@AEAV?$Vec@H@manifold@@0@Z
	??$?0AEAV?$Vec@H@manifold@@AEAV?$Vec@N@1@$0A@@?$tuple@V?$Vec@H@manifold@@V?$Vec@N@2@@std@@QEAA@AEAV?$Vec@H@manifold@@AEAV?$Vec@N@3@@Z
	??$?0AEAV?$Vec@H@manifold@@AEAV?$Vec@U?$vec@N$02@linalg@@@1@$0A@@?$tuple@V?$Vec@H@manifold@@V?$Vec@U?$vec@N$02@linalg@@@2@@std@@QEAA@AEAV?$Vec@H@manifold@@AEAV?$Vec@U?$vec@N$02@linalg@@@3@@Z
	??$?0AEAV?$Vec@H@manifold@@AEAV?$Vec@U?$vec@N$03@linalg@@@1@$0A@@?$tuple@V?$Vec@H@manifold@@V?$Vec@U?$vec@N$03@linalg@@@2@@std@@QEAA@AEAV?$Vec@H@manifold@@AEAV?$Vec@U?$vec@N$03@linalg@@@3@@Z
	??$?0AEAV?$Vec@N@manifold@@@?$_Tuple_val@AEAV?$Vec@N@manifold@@@std@@QEAA@AEAV?$Vec@N@manifold@@@Z
	??$?0AEAV?$Vec@N@manifold@@@?$_Tuple_val@V?$Vec@N@manifold@@@std@@QEAA@AEAV?$Vec@N@manifold@@@Z
	??$?0AEAV?$Vec@U?$vec@N$02@linalg@@@manifold@@@?$_Tuple_val@AEAV?$Vec@U?$vec@N$02@linalg@@@manifold@@@std@@QEAA@AEAV?$Vec@U?$vec@N$02@linalg@@@manifold@@@Z
	??$?0AEAV?$Vec@U?$vec@N$02@linalg@@@manifold@@@?$_Tuple_val@V?$Vec@U?$vec@N$02@linalg@@@manifold@@@std@@QEAA@AEAV?$Vec@U?$vec@N$02@linalg@@@manifold@@@Z
	??$?0AEAV?$Vec@U?$vec@N$03@linalg@@@manifold@@@?$_Tuple_val@AEAV?$Vec@U?$vec@N$03@linalg@@@manifold@@@std@@QEAA@AEAV?$Vec@U?$vec@N$03@linalg@@@manifold@@@Z
	??$?0AEAV?$Vec@U?$vec@N$03@linalg@@@manifold@@@?$_Tuple_val@V?$Vec@U?$vec@N$03@linalg@@@manifold@@@std@@QEAA@AEAV?$Vec@U?$vec@N$03@linalg@@@manifold@@@Z
	??$?0AEAV?$Vec@UHalfedge@manifold@@@manifold@@$0A@@?$tuple@AEAV?$Vec@UHalfedge@manifold@@@manifold@@AEAV?$Vec@U?$vec@N$02@linalg@@@2@@std@@QEAA@AEAV?$Vec@UHalfedge@manifold@@@manifold@@AEAV?$Vec@U?$vec@N$02@linalg@@@3@@Z
	??$?0AEAV?$Vec@UHalfedge@manifold@@@manifold@@@?$_Tuple_val@AEAV?$Vec@UHalfedge@manifold@@@manifold@@@std@@QEAA@AEAV?$Vec@UHalfedge@manifold@@@manifold@@@Z
	??$?0AEAV?$function@$$A6AXXZ@std@@@?$function_task@V?$function@$$A6AXXZ@std@@@d2@detail@tbb@@QEAA@AEAV?$function@$$A6AXXZ@std@@PEAVwait_tree_vertex_interface@d1@23@AEAVtask_group_context@723@AEAVsmall_object_allocator@723@@Z
	??$?0AEAV?$shared_ptr@$$CBUImpl@Manifold@manifold@@@std@@U?$mat@N$02$03@linalg@@@?$_Ref_count_obj2@VCsgLeafNode@manifold@@@std@@QEAA@AEAV?$shared_ptr@$$CBUImpl@Manifold@manifold@@@1@$$QEAU?$mat@N$02$03@linalg@@@Z
	??$?0AEAV?$shared_ptr@UImpl@Manifold@manifold@@@std@@@?$_Ref_count_obj2@VCsgLeafNode@manifold@@@std@@QEAA@AEAV?$shared_ptr@UImpl@Manifold@manifold@@@1@@Z
	??$?0AEAV?$vector@V?$shared_ptr@VCsgNode@manifold@@@std@@V?$allocator@V?$shared_ptr@VCsgNode@manifold@@@std@@@2@@std@@@?$_Ref_count_obj2@V?$vector@V?$shared_ptr@VCsgNode@manifold@@@std@@V?$allocator@V?$shared_ptr@VCsgNode@manifold@@@std@@@2@@std@@@std@@QEAA@AEAV?$vector@V?$shared_ptr@VCsgNode@manifold@@@std@@V?$allocator@V?$shared_ptr@VCsgNode@manifold@@@std@@@2@@1@@Z
	??$?0AEAV?$vector@V?$shared_ptr@VCsgNode@manifold@@@std@@V?$allocator@V?$shared_ptr@VCsgNode@manifold@@@std@@@2@@std@@AEAW4OpType@manifold@@@?$_Ref_count_obj2@VCsgOpNode@manifold@@@std@@QEAA@AEAV?$vector@V?$shared_ptr@VCsgNode@manifold@@@std@@V?$allocator@V?$shared_ptr@VCsgNode@manifold@@@std@@@2@@1@AEAW4OpType@manifold@@@Z
	??$?0AEA_K$0A@@?$tuple@AEA_K@std@@QEAA@AEA_K@Z
	??$?0AEA_K@?$_Tuple_val@AEA_K@std@@QEAA@AEA_K@Z
	??$?0AEA_KAEA_K$0A@@?$pair@_K_K@std@@QEAA@AEA_K0@Z
	??$?0AEA_N@?$_Tuple_val@_N@std@@QEAA@AEA_N@Z
	??$?0AEBH$$Z$$V@?$pair@$$CBHU?$pair@USmoothness@manifold@@U12@@std@@@std@@QEAA@Upiecewise_construct_t@1@V?$tuple@AEBH@1@V?$tuple@$$V@1@@Z
	??$?0AEBH$$Z$$V@?$pair@$$CBHURelation@Impl@Manifold@manifold@@@std@@QEAA@Upiecewise_construct_t@1@V?$tuple@AEBH@1@V?$tuple@$$V@1@@Z
	??$?0AEBH$$Z$$V@?$pair@$$CBHV?$vector@U?$pair@USmoothness@manifold@@U12@@std@@V?$allocator@U?$pair@USmoothness@manifold@@U12@@std@@@2@@std@@@std@@QEAA@Upiecewise_construct_t@1@V?$tuple@AEBH@1@V?$tuple@$$V@1@@Z
	??$?0AEBH$0A@@?$tuple@AEBH@std@@QEAA@AEBH@Z
	??$?0AEBH@?$_List_node_emplace_op2@V?$allocator@U?$_List_node@HPEAX@std@@@std@@@std@@QEAA@AEAV?$allocator@U?$_List_node@HPEAX@std@@@1@AEBH@Z
	??$?0AEBH@?$_Tuple_val@AEBH@std@@QEAA@AEBH@Z
	??$?0AEBHH$0A@@?$pair@HH@std@@QEAA@AEBH$$QEAH@Z
	??$?0AEBQEAU?$_Tree_node@U?$pair@$$CBHU?$pair@USmoothness@manifold@@U12@@std@@@std@@PEAX@std@@_N$0A@@?$pair@PEAU?$_Tree_node@U?$pair@$$CBHU?$pair@USmoothness@manifold@@U12@@std@@@std@@PEAX@std@@_N@std@@QEAA@AEBQEAU?$_Tree_node@U?$pair@$$CBHU?$pair@USmoothness@manifold@@U12@@std@@@std@@PEAX@1@$$QEA_N@Z
	??$?0AEBQEAU?$_Tree_node@U?$pair@$$CBHURelation@Impl@Manifold@manifold@@@std@@PEAX@std@@_N$0A@@?$pair@PEAU?$_Tree_node@U?$pair@$$CBHURelation@Impl@Manifold@manifold@@@std@@PEAX@std@@_N@std@@QEAA@AEBQEAU?$_Tree_node@U?$pair@$$CBHURelation@Impl@Manifold@manifold@@@std@@PEAX@1@$$QEA_N@Z
	??$?0AEBQEAU?$_Tree_node@U?$pair@$$CBHV?$vector@U?$pair@USmoothness@manifold@@U12@@std@@V?$allocator@U?$pair@USmoothness@manifold@@U12@@std@@@2@@std@@@std@@PEAX@std@@_N$0A@@?$pair@PEAU?$_Tree_node@U?$pair@$$CBHV?$vector@U?$pair@USmoothness@manifold@@U12@@std@@V?$allocator@U?$pair@USmoothness@manifold@@U12@@std@@@2@@std@@@std@@PEAX@std@@_N@std@@QEAA@AEBQEAU?$_Tree_node@U?$pair@$$CBHV?$vector@U?$pair@USmoothness@manifold@@U12@@std@@V?$allocator@U?$pair@USmoothness@manifold@@U12@@std@@@2@@std@@@std@@PEAX@1@$$QEA_N@Z
	??$?0AEBU?$MeshGLP@MI@manifold@@@?$_Ref_count_obj2@UImpl@Manifold@manifold@@@std@@QEAA@AEBU?$MeshGLP@MI@manifold@@@Z
	??$?0AEBU?$MeshGLP@N_K@manifold@@@?$_Ref_count_obj2@UImpl@Manifold@manifold@@@std@@QEAA@AEBU?$MeshGLP@N_K@manifold@@@Z
	??$?0AEBU?$_Ph@$00@std@@@?$_Tuple_val@U?$_Ph@$00@std@@@std@@QEAA@AEBU?$_Ph@$00@1@@Z
	??$?0AEBU?$less@H@std@@U_Zero_then_variadic_args_t@1@@?$_Compressed_pair@U?$less@H@std@@V?$_Compressed_pair@V?$allocator@U?$_Tree_node@U?$pair@$$CBHH@std@@PEAX@std@@@std@@V?$_Tree_val@U?$_Tree_simple_types@U?$pair@$$CBHH@std@@@std@@@2@$00@2@$00@std@@QEAA@U_One_then_variadic_args_t@1@AEBU?$less@H@1@$$QEAU_Zero_then_variadic_args_t@1@@Z
	??$?0AEBU?$less@H@std@@U_Zero_then_variadic_args_t@1@@?$_Compressed_pair@U?$less@H@std@@V?$_Compressed_pair@V?$allocator@U?$_Tree_node@U?$pair@$$CBHU?$pair@USmoothness@manifold@@U12@@std@@@std@@PEAX@std@@@std@@V?$_Tree_val@U?$_Tree_simple_types@U?$pair@$$CBHU?$pair@USmoothness@manifold@@U12@@std@@@std@@@std@@@2@$00@2@$00@std@@QEAA@U_One_then_variadic_args_t@1@AEBU?$less@H@1@$$QEAU_Zero_then_variadic_args_t@1@@Z
	??$?0AEBU?$less@H@std@@U_Zero_then_variadic_args_t@1@@?$_Compressed_pair@U?$less@H@std@@V?$_Compressed_pair@V?$allocator@U?$_Tree_node@U?$pair@$$CBHURelation@Impl@Manifold@manifold@@@std@@PEAX@std@@@std@@V?$_Tree_val@U?$_Tree_simple_types@U?$pair@$$CBHURelation@Impl@Manifold@manifold@@@std@@@std@@@2@$00@2@$00@std@@QEAA@U_One_then_variadic_args_t@1@AEBU?$less@H@1@$$QEAU_Zero_then_variadic_args_t@1@@Z
	??$?0AEBU?$less@H@std@@U_Zero_then_variadic_args_t@1@@?$_Compressed_pair@U?$less@H@std@@V?$_Compressed_pair@V?$allocator@U?$_Tree_node@U?$pair@$$CBHV?$vector@U?$pair@USmoothness@manifold@@U12@@std@@V?$allocator@U?$pair@USmoothness@manifold@@U12@@std@@@2@@std@@@std@@PEAX@std@@@std@@V?$_Tree_val@U?$_Tree_simple_types@U?$pair@$$CBHV?$vector@U?$pair@USmoothness@manifold@@U12@@std@@V?$allocator@U?$pair@USmoothness@manifold@@U12@@std@@@2@@std@@@std@@@std@@@2@$00@2@$00@std@@QEAA@U_One_then_variadic_args_t@1@AEBU?$less@H@1@$$QEAU_Zero_then_variadic_args_t@1@@Z
	??$?0AEBU?$less@U?$pair@HH@std@@@std@@U_Zero_then_variadic_args_t@1@@?$_Compressed_pair@U?$less@U?$pair@HH@std@@@std@@V?$_Compressed_pair@V?$allocator@U?$_Tree_node@U?$pair@HH@std@@PEAX@std@@@std@@V?$_Tree_val@U?$_Tree_simple_types@U?$pair@HH@std@@@std@@@2@$00@2@$00@std@@QEAA@U_One_then_variadic_args_t@1@AEBU?$less@U?$pair@HH@std@@@1@$$QEAU_Zero_then_variadic_args_t@1@@Z
	??$?0AEBU?$pair@HH@std@@$0A@@?$tuple@AEBU?$pair@HH@std@@@std@@QEAA@AEBU?$pair@HH@1@@Z
	??$?0AEBU?$pair@HH@std@@@?$_Tree_temp_node@V?$allocator@U?$_Tree_node@U?$pair@HH@std@@PEAX@std@@@std@@@std@@QEAA@AEAV?$allocator@U?$_Tree_node@U?$pair@HH@std@@PEAX@std@@@1@PEAU?$_Tree_node@U?$pair@HH@std@@PEAX@1@AEBU?$pair@HH@1@@Z
	??$?0AEBU?$pair@HH@std@@@?$_Tuple_val@AEBU?$pair@HH@std@@@std@@QEAA@AEBU?$pair@HH@1@@Z
	??$?0AEBUImpl@Manifold@manifold@@@?$_Ref_count_obj2@UImpl@Manifold@manifold@@@std@@QEAA@AEBUImpl@Manifold@manifold@@@Z
	??$?0AEBUpiecewise_construct_t@std@@V?$tuple@$$QEAH@1@V?$tuple@$$V@1@@?$_List_node_emplace_op2@V?$allocator@U?$_List_node@U?$pair@$$CBHH@std@@PEAX@std@@@std@@@std@@QEAA@AEAV?$allocator@U?$_List_node@U?$pair@$$CBHH@std@@PEAX@std@@@1@AEBUpiecewise_construct_t@1@$$QEAV?$tuple@$$QEAH@1@$$QEAV?$tuple@$$V@1@@Z
	??$?0AEBUpiecewise_construct_t@std@@V?$tuple@$$QEAH@1@V?$tuple@$$V@1@@?$_Tree_temp_node@V?$allocator@U?$_Tree_node@U?$pair@$$CBHURelation@Impl@Manifold@manifold@@@std@@PEAX@std@@@std@@@std@@QEAA@AEAV?$allocator@U?$_Tree_node@U?$pair@$$CBHURelation@Impl@Manifold@manifold@@@std@@PEAX@std@@@1@PEAU?$_Tree_node@U?$pair@$$CBHURelation@Impl@Manifold@manifold@@@std@@PEAX@1@AEBUpiecewise_construct_t@1@$$QEAV?$tuple@$$QEAH@1@$$QEAV?$tuple@$$V@1@@Z
	??$?0AEBUpiecewise_construct_t@std@@V?$tuple@$$QEA_K@1@V?$tuple@$$V@1@@?$_List_node_emplace_op2@V?$allocator@U?$_List_node@U?$pair@$$CB_K_K@std@@PEAX@std@@@std@@@std@@QEAA@AEAV?$allocator@U?$_List_node@U?$pair@$$CB_K_K@std@@PEAX@std@@@1@AEBUpiecewise_construct_t@1@$$QEAV?$tuple@$$QEA_K@1@$$QEAV?$tuple@$$V@1@@Z
	??$?0AEBUpiecewise_construct_t@std@@V?$tuple@AEBH@1@V?$tuple@$$V@1@@?$_Tree_temp_node@V?$allocator@U?$_Tree_node@U?$pair@$$CBHU?$pair@USmoothness@manifold@@U12@@std@@@std@@PEAX@std@@@std@@@std@@QEAA@AEAV?$allocator@U?$_Tree_node@U?$pair@$$CBHU?$pair@USmoothness@manifold@@U12@@std@@@std@@PEAX@std@@@1@PEAU?$_Tree_node@U?$pair@$$CBHU?$pair@USmoothness@manifold@@U12@@std@@@std@@PEAX@1@AEBUpiecewise_construct_t@1@$$QEAV?$tuple@AEBH@1@$$QEAV?$tuple@$$V@1@@Z
	??$?0AEBUpiecewise_construct_t@std@@V?$tuple@AEBH@1@V?$tuple@$$V@1@@?$_Tree_temp_node@V?$allocator@U?$_Tree_node@U?$pair@$$CBHURelation@Impl@Manifold@manifold@@@std@@PEAX@std@@@std@@@std@@QEAA@AEAV?$allocator@U?$_Tree_node@U?$pair@$$CBHURelation@Impl@Manifold@manifold@@@std@@PEAX@std@@@1@PEAU?$_Tree_node@U?$pair@$$CBHURelation@Impl@Manifold@manifold@@@std@@PEAX@1@AEBUpiecewise_construct_t@1@$$QEAV?$tuple@AEBH@1@$$QEAV?$tuple@$$V@1@@Z
	??$?0AEBUpiecewise_construct_t@std@@V?$tuple@AEBH@1@V?$tuple@$$V@1@@?$_Tree_temp_node@V?$allocator@U?$_Tree_node@U?$pair@$$CBHV?$vector@U?$pair@USmoothness@manifold@@U12@@std@@V?$allocator@U?$pair@USmoothness@manifold@@U12@@std@@@2@@std@@@std@@PEAX@std@@@std@@@std@@QEAA@AEAV?$allocator@U?$_Tree_node@U?$pair@$$CBHV?$vector@U?$pair@USmoothness@manifold@@U12@@std@@V?$allocator@U?$pair@USmoothness@manifold@@U12@@std@@@2@@std@@@std@@PEAX@std@@@1@PEAU?$_Tree_node@U?$pair@$$CBHV?$vector@U?$pair@USmoothness@manifold@@U12@@std@@V?$allocator@U?$pair@USmoothness@manifold@@U12@@std@@@2@@std@@@std@@PEAX@1@AEBUpiecewise_construct_t@1@$$QEAV?$tuple@AEBH@1@$$QEAV?$tuple@$$V@1@@Z
	??$?0AEBUpiecewise_construct_t@std@@V?$tuple@AEB_K@1@V?$tuple@$$V@1@@?$_List_node_emplace_op2@V?$allocator@U?$_List_node@U?$pair@$$CB_K_K@std@@PEAX@std@@@std@@@std@@QEAA@AEAV?$allocator@U?$_List_node@U?$pair@$$CB_K_K@std@@PEAX@std@@@1@AEBUpiecewise_construct_t@1@$$QEAV?$tuple@AEB_K@1@$$QEAV?$tuple@$$V@1@@Z
	??$?0AEBV?$allocator@H@std@@$$V@?$_Compressed_pair@V?$allocator@H@std@@V?$_Vector_val@U?$_Simple_types@H@std@@@2@$00@std@@QEAA@U_One_then_variadic_args_t@1@AEBV?$allocator@H@1@@Z
	??$?0AEBV?$allocator@H@std@@$$V@?$_Compressed_pair@V?$allocator@U?$_List_node@HPEAX@std@@@std@@V?$_List_val@U?$_List_simple_types@H@std@@@2@$00@std@@QEAA@U_One_then_variadic_args_t@1@AEBV?$allocator@H@1@@Z
	??$?0AEBV?$allocator@H@std@@$$V@?$_Compressed_pair@V?$allocator@V?$_List_unchecked_const_iterator@V?$_List_val@U?$_List_simple_types@H@std@@@std@@U_Iterator_base0@2@@std@@@std@@V?$_Vector_val@U?$_Simple_types@V?$_List_unchecked_const_iterator@V?$_List_val@U?$_List_simple_types@H@std@@@std@@U_Iterator_base0@2@@std@@@std@@@2@$00@std@@QEAA@U_One_then_variadic_args_t@1@AEBV?$allocator@H@1@@Z
	??$?0AEBV?$allocator@H@std@@$0A@@?$_Hash_vec@V?$allocator@V?$_List_unchecked_const_iterator@V?$_List_val@U?$_List_simple_types@H@std@@@std@@U_Iterator_base0@2@@std@@@std@@@std@@QEAA@AEBV?$allocator@H@1@@Z
	??$?0AEBV?$allocator@I@std@@$$V@?$_Compressed_pair@V?$allocator@I@std@@V?$_Vector_val@U?$_Simple_types@I@std@@@2@$00@std@@QEAA@U_One_then_variadic_args_t@1@AEBV?$allocator@I@1@@Z
	??$?0AEBV?$allocator@N@std@@$$V@?$_Compressed_pair@V?$allocator@N@std@@V?$_Vector_val@U?$_Simple_types@N@std@@@2@$00@std@@QEAA@U_One_then_variadic_args_t@1@AEBV?$allocator@N@1@@Z
	??$?0AEBV?$allocator@U?$Point@N@Clipper2Lib@@@std@@$$V@?$_Compressed_pair@V?$allocator@U?$Point@N@Clipper2Lib@@@std@@V?$_Vector_val@U?$_Simple_types@U?$Point@N@Clipper2Lib@@@std@@@2@$00@std@@QEAA@U_One_then_variadic_args_t@1@AEBV?$allocator@U?$Point@N@Clipper2Lib@@@1@@Z
	??$?0AEBV?$allocator@U?$pair@$$CBHH@std@@@std@@$$V@?$_Compressed_pair@V?$allocator@U?$_List_node@U?$pair@$$CBHH@std@@PEAX@std@@@std@@V?$_List_val@U?$_List_simple_types@U?$pair@$$CBHH@std@@@std@@@2@$00@std@@QEAA@U_One_then_variadic_args_t@1@AEBV?$allocator@U?$pair@$$CBHH@std@@@1@@Z
	??$?0AEBV?$allocator@U?$pair@$$CBHH@std@@@std@@$$V@?$_Compressed_pair@V?$allocator@V?$_List_unchecked_iterator@V?$_List_val@U?$_List_simple_types@U?$pair@$$CBHH@std@@@std@@@std@@@std@@@std@@V?$_Vector_val@U?$_Simple_types@V?$_List_unchecked_iterator@V?$_List_val@U?$_List_simple_types@U?$pair@$$CBHH@std@@@std@@@std@@@std@@@std@@@2@$00@std@@QEAA@U_One_then_variadic_args_t@1@AEBV?$allocator@U?$pair@$$CBHH@std@@@1@@Z
	??$?0AEBV?$allocator@U?$pair@$$CBHH@std@@@std@@$0A@@?$_Hash_vec@V?$allocator@V?$_List_unchecked_iterator@V?$_List_val@U?$_List_simple_types@U?$pair@$$CBHH@std@@@std@@@std@@@std@@@std@@@std@@QEAA@AEBV?$allocator@U?$pair@$$CBHH@std@@@1@@Z
	??$?0AEBV?$allocator@U?$pair@$$CB_K_K@std@@@std@@$$V@?$_Compressed_pair@V?$allocator@U?$_List_node@U?$pair@$$CB_K_K@std@@PEAX@std@@@std@@V?$_List_val@U?$_List_simple_types@U?$pair@$$CB_K_K@std@@@std@@@2@$00@std@@QEAA@U_One_then_variadic_args_t@1@AEBV?$allocator@U?$pair@$$CB_K_K@std@@@1@@Z
	??$?0AEBV?$allocator@U?$pair@$$CB_K_K@std@@@std@@$$V@?$_Compressed_pair@V?$allocator@V?$_List_unchecked_iterator@V?$_List_val@U?$_List_simple_types@U?$pair@$$CB_K_K@std@@@std@@@std@@@std@@@std@@V?$_Vector_val@U?$_Simple_types@V?$_List_unchecked_iterator@V?$_List_val@U?$_List_simple_types@U?$pair@$$CB_K_K@std@@@std@@@std@@@std@@@std@@@2@$00@std@@QEAA@U_One_then_variadic_args_t@1@AEBV?$allocator@U?$pair@$$CB_K_K@std@@@1@@Z
	??$?0AEBV?$allocator@U?$pair@$$CB_K_K@std@@@std@@$0A@@?$_Hash_vec@V?$allocator@V?$_List_unchecked_iterator@V?$_List_val@U?$_List_simple_types@U?$pair@$$CB_K_K@std@@@std@@@std@@@std@@@std@@@std@@QEAA@AEBV?$allocator@U?$pair@$$CB_K_K@std@@@1@@Z
	??$?0AEBV?$allocator@U?$vec@N$01@linalg@@@std@@$$V@?$_Compressed_pair@V?$allocator@U?$vec@N$01@linalg@@@std@@V?$_Vector_val@U?$_Simple_types@U?$vec@N$01@linalg@@@std@@@2@$00@std@@QEAA@U_One_then_variadic_args_t@1@AEBV?$allocator@U?$vec@N$01@linalg@@@1@@Z
	??$?0AEBV?$allocator@V?$shared_ptr@VCsgNode@manifold@@@std@@@std@@$$V@?$_Compressed_pair@V?$allocator@V?$shared_ptr@VCsgNode@manifold@@@std@@@std@@V?$_Vector_val@U?$_Simple_types@V?$shared_ptr@VCsgNode@manifold@@@std@@@std@@@2@$00@std@@QEAA@U_One_then_variadic_args_t@1@AEBV?$allocator@V?$shared_ptr@VCsgNode@manifold@@@std@@@1@@Z
	??$?0AEBV?$allocator@V?$vector@U?$Point@N@Clipper2Lib@@V?$allocator@U?$Point@N@Clipper2Lib@@@std@@@std@@@std@@$$V@?$_Compressed_pair@V?$allocator@V?$vector@U?$Point@N@Clipper2Lib@@V?$allocator@U?$Point@N@Clipper2Lib@@@std@@@std@@@std@@V?$_Vector_val@U?$_Simple_types@V?$vector@U?$Point@N@Clipper2Lib@@V?$allocator@U?$Point@N@Clipper2Lib@@@std@@@std@@@std@@@2@$00@std@@QEAA@U_One_then_variadic_args_t@1@AEBV?$allocator@V?$vector@U?$Point@N@Clipper2Lib@@V?$allocator@U?$Point@N@Clipper2Lib@@@std@@@std@@@1@@Z
	??$?0AEBV?$allocator@V?$vector@U?$pair@U?$vec@H$02@linalg@@H@std@@V?$allocator@U?$pair@U?$vec@H$02@linalg@@H@std@@@2@@std@@@std@@$$V@?$_Compressed_pair@V?$allocator@V?$vector@U?$pair@U?$vec@H$02@linalg@@H@std@@V?$allocator@U?$pair@U?$vec@H$02@linalg@@H@std@@@2@@std@@@std@@V?$_Vector_val@U?$_Simple_types@V?$vector@U?$pair@U?$vec@H$02@linalg@@H@std@@V?$allocator@U?$pair@U?$vec@H$02@linalg@@H@std@@@2@@std@@@std@@@2@$00@std@@QEAA@U_One_then_variadic_args_t@1@AEBV?$allocator@V?$vector@U?$pair@U?$vec@H$02@linalg@@H@std@@V?$allocator@U?$pair@U?$vec@H$02@linalg@@H@std@@@2@@std@@@1@@Z
	??$?0AEBV?$allocator@V?$vector@U?$vec@H$01@linalg@@V?$allocator@U?$vec@H$01@linalg@@@std@@@std@@@std@@$$V@?$_Compressed_pair@V?$allocator@V?$vector@U?$vec@H$01@linalg@@V?$allocator@U?$vec@H$01@linalg@@@std@@@std@@@std@@V?$_Vector_val@U?$_Simple_types@V?$vector@U?$vec@H$01@linalg@@V?$allocator@U?$vec@H$01@linalg@@@std@@@std@@@std@@@2@$00@std@@QEAA@U_One_then_variadic_args_t@1@AEBV?$allocator@V?$vector@U?$vec@H$01@linalg@@V?$allocator@U?$vec@H$01@linalg@@@std@@@std@@@1@@Z
	??$?0AEBV?$allocator@V?$vector@U?$vec@N$01@linalg@@V?$allocator@U?$vec@N$01@linalg@@@std@@@std@@@std@@$$V@?$_Compressed_pair@V?$allocator@V?$vector@U?$vec@N$01@linalg@@V?$allocator@U?$vec@N$01@linalg@@@std@@@std@@@std@@V?$_Vector_val@U?$_Simple_types@V?$vector@U?$vec@N$01@linalg@@V?$allocator@U?$vec@N$01@linalg@@@std@@@std@@@std@@@2@$00@std@@QEAA@U_One_then_variadic_args_t@1@AEBV?$allocator@V?$vector@U?$vec@N$01@linalg@@V?$allocator@U?$vec@N$01@linalg@@@std@@@std@@@1@@Z
	??$?0AEBV?$allocator@VCrossSection@manifold@@@std@@$$V@?$_Compressed_pair@V?$allocator@VCrossSection@manifold@@@std@@V?$_Vector_val@U?$_Simple_types@VCrossSection@manifold@@@std@@@2@$00@std@@QEAA@U_One_then_variadic_args_t@1@AEBV?$allocator@VCrossSection@manifold@@@1@@Z
	??$?0AEBV?$allocator@VManifold@manifold@@@std@@$$V@?$_Compressed_pair@V?$allocator@VManifold@manifold@@@std@@V?$_Vector_val@U?$_Simple_types@VManifold@manifold@@@std@@@2@$00@std@@QEAA@U_One_then_variadic_args_t@1@AEBV?$allocator@VManifold@manifold@@@1@@Z
	??$?0AEBV?$allocator@_K@std@@$$V@?$_Compressed_pair@V?$allocator@_K@std@@V?$_Vector_val@U?$_Simple_types@_K@std@@@2@$00@std@@QEAA@U_One_then_variadic_args_t@1@AEBV?$allocator@_K@1@@Z
	??$?0AEBV?$cache_aligned_allocator@V?$shared_ptr@VCsgLeafNode@manifold@@@std@@@d1@detail@tbb@@$$V@?$_Compressed_pair@V?$cache_aligned_allocator@V?$shared_ptr@VCsgLeafNode@manifold@@@std@@@d1@detail@tbb@@V?$_Vector_val@U?$_Simple_types@V?$shared_ptr@VCsgLeafNode@manifold@@@std@@@std@@@std@@$00@std@@QEAA@U_One_then_variadic_args_t@1@AEBV?$cache_aligned_allocator@V?$shared_ptr@VCsgLeafNode@manifold@@@std@@@d1@detail@tbb@@@Z
	??$?0AEBV?$vector@V?$vector@U?$Point@N@Clipper2Lib@@V?$allocator@U?$Point@N@Clipper2Lib@@@std@@@std@@V?$allocator@V?$vector@U?$Point@N@Clipper2Lib@@V?$allocator@U?$Point@N@Clipper2Lib@@@std@@@std@@@2@@std@@@?$_Ref_count_obj2@$$CBUPathImpl@manifold@@@std@@QEAA@AEBV?$vector@V?$vector@U?$Point@N@Clipper2Lib@@V?$allocator@U?$Point@N@Clipper2Lib@@@std@@@std@@V?$allocator@V?$vector@U?$Point@N@Clipper2Lib@@V?$allocator@U?$Point@N@Clipper2Lib@@@std@@@std@@@2@@1@@Z
	??$?0AEBVCsgLeafNode@manifold@@@?$_Ref_count_obj2@VCsgLeafNode@manifold@@@std@@QEAA@AEBVCsgLeafNode@manifold@@@Z
	??$?0AEB_K$$Z$$V@?$pair@$$CB_K_K@std@@QEAA@Upiecewise_construct_t@1@V?$tuple@AEB_K@1@V?$tuple@$$V@1@@Z
	??$?0AEB_K$0A@@?$tuple@AEB_K@std@@QEAA@AEB_K@Z
	??$?0AEB_K@?$_Tuple_val@AEB_K@std@@QEAA@AEB_K@Z
	??$?0H$$V$0A@@?$tuple@$$QEAH@std@@QEAA@$$QEAH@Z
	??$?0H$02@?$vec@N$02@linalg@@QEAA@AEBU?$vec@H$02@1@@Z
	??$?0H$03@?$vec@H$02@linalg@@QEAA@AEBU?$vec@H$03@1@@Z
	??$?0H$03@?$vec@N$02@linalg@@QEAA@AEBU?$vec@H$03@1@@Z
	??$?0H@?$_Tuple_val@$$QEAH@std@@QEAA@$$QEAH@Z
	??$?0H@?$_Tuple_val@H@std@@QEAA@$$QEAH@Z
	??$?0H@?$_Tuple_val@_N@std@@QEAA@$$QEAH@Z
	??$?0H@?$allocator@PEAH@std@@QEAA@AEBV?$allocator@H@1@@Z
	??$?0H@?$allocator@U?$_List_node@HPEAX@std@@@std@@QEAA@AEBV?$allocator@H@1@@Z
	??$?0H@?$allocator@U_Container_proxy@std@@@std@@QEAA@AEBV?$allocator@H@1@@Z
	??$?0H@?$allocator@V?$_List_unchecked_const_iterator@V?$_List_val@U?$_List_simple_types@H@std@@@std@@U_Iterator_base0@2@@std@@@std@@QEAA@AEBV?$allocator@H@1@@Z
	??$?0H@?$callback_leaf@U?$construct_by_default@U?$Hist@_K$07@details@manifold@@@d1@detail@tbb@@@d1@detail@tbb@@AEAA@$$QEAH@Z
	??$?0H@?$callback_leaf@U?$construct_by_default@VSparseIndices@manifold@@@d1@detail@tbb@@@d1@detail@tbb@@AEAA@$$QEAH@Z
	??$?0HAEBH$0A@@?$pair@HH@std@@QEAA@$$QEAHAEBH@Z
	??$?0HH$0A@@?$pair@$$CBHH@std@@QEAA@$$QEAU?$pair@HH@1@@Z
	??$?0HH$0A@@?$pair@HH@std@@QEAA@$$QEAH0@Z
	??$?0HH$0A@@?$pair@HH@std@@QEAA@AEBH0@Z
	??$?0I$$VX@?$enumerable_thread_specific@V?$linear_congruential_engine@I$0LMIP@$0A@$0HPPPPPPP@@std@@V?$cache_aligned_allocator@V?$linear_congruential_engine@I$0LMIP@$0A@$0HPPPPPPP@@std@@@d1@detail@tbb@@$00@d1@detail@tbb@@QEAA@$$QEAI@Z
	??$?0I@?$callback_leaf@U?$construct_by_args@V?$linear_congruential_engine@I$0LMIP@$0A@$0HPPPPPPP@@std@@I@d1@detail@tbb@@@d1@detail@tbb@@AEAA@$$QEAI@Z
	??$?0M@?$_Compressed_pair@U?$equal_to@H@std@@M$00@std@@QEAA@U_Zero_then_variadic_args_t@1@$$QEAM@Z
	??$?0M@?$_Compressed_pair@U?$equal_to@U?$vec@H$03@linalg@@@std@@M$00@std@@QEAA@U_Zero_then_variadic_args_t@1@$$QEAM@Z
	??$?0M@?$_Compressed_pair@U?$equal_to@_K@std@@M$00@std@@QEAA@U_Zero_then_variadic_args_t@1@$$QEAM@Z
	??$?0MI@Impl@Manifold@manifold@@QEAA@AEBU?$MeshGLP@MI@2@@Z
	??$?0N$01$02@?$mat@N$01$01@linalg@@QEAA@AEBU?$mat@N$01$02@1@@Z
	??$?0N$02$03@?$mat@N$02$02@linalg@@QEAA@AEBU?$mat@N$02$03@1@@Z
	??$?0N$02@?$vec@H$02@linalg@@QEAA@AEBU?$vec@N$02@1@@Z
	??$?0N$02@?$vec@N$01@linalg@@QEAA@AEBU?$vec@N$02@1@@Z
	??$?0N$03@?$vec@N$02@linalg@@QEAA@AEBU?$vec@N$03@1@@Z
	??$?0N@?$Point@N@Clipper2Lib@@QEAA@NN@Z
	??$?0N@?$Point@_J@Clipper2Lib@@QEAA@NN@Z
	??$?0NN$0A@@?$pair@NN@std@@QEAA@$$QEAN0@Z
	??$?0NN$0A@@?$pair@NN@std@@QEAA@AEBN0@Z
	??$?0N_K@Impl@Manifold@manifold@@QEAA@AEBU?$MeshGLP@N_K@2@@Z
	??$?0PEAHAEA_J$0A@@?$pair@PEAH_J@std@@QEAA@$$QEAPEAHAEA_J@Z
	??$?0PEAU?$_List_node@U?$pair@$$CBHH@std@@PEAX@std@@_N$0A@@?$pair@PEAU?$_List_node@U?$pair@$$CBHH@std@@PEAX@std@@_N@std@@QEAA@$$QEAPEAU?$_List_node@U?$pair@$$CBHH@std@@PEAX@1@$$QEA_N@Z
	??$?0PEAU?$_List_node@U?$pair@$$CB_K_K@std@@PEAX@std@@_N$0A@@?$pair@PEAU?$_List_node@U?$pair@$$CB_K_K@std@@PEAX@std@@_N@std@@QEAA@$$QEAPEAU?$_List_node@U?$pair@$$CB_K_K@std@@PEAX@1@$$QEA_N@Z
	??$?0PEAU?$_Tree_node@U?$pair@$$CBHH@std@@PEAX@std@@_N$0A@@?$pair@PEAU?$_Tree_node@U?$pair@$$CBHH@std@@PEAX@std@@_N@std@@QEAA@$$QEAPEAU?$_Tree_node@U?$pair@$$CBHH@std@@PEAX@1@$$QEA_N@Z
	??$?0PEAU?$_Tree_node@U?$pair@$$CBHU?$pair@USmoothness@manifold@@U12@@std@@@std@@PEAX@std@@_N$0A@@?$pair@PEAU?$_Tree_node@U?$pair@$$CBHU?$pair@USmoothness@manifold@@U12@@std@@@std@@PEAX@std@@_N@std@@QEAA@$$QEAPEAU?$_Tree_node@U?$pair@$$CBHU?$pair@USmoothness@manifold@@U12@@std@@@std@@PEAX@1@$$QEA_N@Z
	??$?0PEAU?$_Tree_node@U?$pair@$$CBHURelation@Impl@Manifold@manifold@@@std@@PEAX@std@@_N$0A@@?$pair@PEAU?$_Tree_node@U?$pair@$$CBHURelation@Impl@Manifold@manifold@@@std@@PEAX@std@@_N@std@@QEAA@$$QEAPEAU?$_Tree_node@U?$pair@$$CBHURelation@Impl@Manifold@manifold@@@std@@PEAX@1@$$QEA_N@Z
	??$?0PEAU?$_Tree_node@U?$pair@$$CBHV?$vector@U?$pair@USmoothness@manifold@@U12@@std@@V?$allocator@U?$pair@USmoothness@manifold@@U12@@std@@@2@@std@@@std@@PEAX@std@@_N$0A@@?$pair@PEAU?$_Tree_node@U?$pair@$$CBHV?$vector@U?$pair@USmoothness@manifold@@U12@@std@@V?$allocator@U?$pair@USmoothness@manifold@@U12@@std@@@2@@std@@@std@@PEAX@std@@_N@std@@QEAA@$$QEAPEAU?$_Tree_node@U?$pair@$$CBHV?$vector@U?$pair@USmoothness@manifold@@U12@@std@@V?$allocator@U?$pair@USmoothness@manifold@@U12@@std@@@2@@std@@@std@@PEAX@1@$$QEA_N@Z
	??$?0PEAU?$_Tree_node@U?$pair@HH@std@@PEAX@std@@_N$0A@@?$pair@PEAU?$_Tree_node@U?$pair@HH@std@@PEAX@std@@_N@std@@QEAA@$$QEAPEAU?$_Tree_node@U?$pair@HH@std@@PEAX@1@$$QEA_N@Z
	??$?0PEAUHalfedge@manifold@@AEA_J$0A@@?$pair@PEAUHalfedge@manifold@@_J@std@@QEAA@$$QEAPEAUHalfedge@manifold@@AEA_J@Z
	??$?0PEAV?$value_node@U?$pair@$$CBHV?$vector@U?$vec@H$02@linalg@@V?$allocator@U?$vec@H$02@linalg@@@std@@@std@@@std@@_K@d2@detail@tbb@@_N$0A@@?$pair@PEAV?$value_node@U?$pair@$$CBHV?$vector@U?$vec@H$02@linalg@@V?$allocator@U?$vec@H$02@linalg@@@std@@@std@@@std@@_K@d2@detail@tbb@@_N@std@@QEAA@$$QEAPEAV?$value_node@U?$pair@$$CBHV?$vector@U?$vec@H$02@linalg@@V?$allocator@U?$vec@H$02@linalg@@@std@@@std@@@std@@_K@d2@detail@tbb@@$$QEA_N@Z
	??$?0PEA_JAEA_J$0A@@?$pair@PEA_J_J@std@@QEAA@$$QEAPEA_JAEA_J@Z
	??$?0U?$atomic@PEAU?$atomic@PEAV?$list_node@_K@d2@detail@tbb@@@std@@@std@@@?$tbb_allocator@U?$atomic@PEAV?$list_node@_K@d2@detail@tbb@@@std@@@d1@detail@tbb@@QEAA@AEBV?$tbb_allocator@U?$atomic@PEAU?$atomic@PEAV?$list_node@_K@d2@detail@tbb@@@std@@@std@@@123@@Z
	??$?0U?$atomic@PEAU?$atomic@PEAV?$list_node@_K@d2@detail@tbb@@@std@@@std@@@?$tbb_allocator@V?$list_node@_K@d2@detail@tbb@@@d1@detail@tbb@@QEAA@AEBV?$tbb_allocator@U?$atomic@PEAU?$atomic@PEAV?$list_node@_K@d2@detail@tbb@@@std@@@std@@@123@@Z
	??$?0U?$atomic@PEAU?$atomic@PEAV?$list_node@_K@d2@detail@tbb@@@std@@@std@@@?$tbb_allocator@V?$value_node@U?$pair@$$CBHV?$vector@U?$vec@H$02@linalg@@V?$allocator@U?$vec@H$02@linalg@@@std@@@std@@@std@@_K@d2@detail@tbb@@@d1@detail@tbb@@QEAA@AEBV?$tbb_allocator@U?$atomic@PEAU?$atomic@PEAV?$list_node@_K@d2@detail@tbb@@@std@@@std@@@123@@Z
	??$?0U?$atomic@PEAU?$padded@U?$ets_element@U?$Hist@_K$07@details@manifold@@@d1@detail@tbb@@$0IA@@d0@detail@tbb@@@std@@@?$cache_aligned_allocator@U?$padded@U?$ets_element@U?$Hist@_K$07@details@manifold@@@d1@detail@tbb@@$0IA@@d0@detail@tbb@@@d1@detail@tbb@@QEAA@AEBV?$cache_aligned_allocator@U?$atomic@PEAU?$padded@U?$ets_element@U?$Hist@_K$07@details@manifold@@@d1@detail@tbb@@$0IA@@d0@detail@tbb@@@std@@@123@@Z
	??$?0U?$atomic@PEAU?$padded@U?$ets_element@V?$linear_congruential_engine@I$0LMIP@$0A@$0HPPPPPPP@@std@@@d1@detail@tbb@@$0IA@@d0@detail@tbb@@@std@@@?$cache_aligned_allocator@U?$padded@U?$ets_element@V?$linear_congruential_engine@I$0LMIP@$0A@$0HPPPPPPP@@std@@@d1@detail@tbb@@$0IA@@d0@detail@tbb@@@d1@detail@tbb@@QEAA@AEBV?$cache_aligned_allocator@U?$atomic@PEAU?$padded@U?$ets_element@V?$linear_congruential_engine@I$0LMIP@$0A@$0HPPPPPPP@@std@@@d1@detail@tbb@@$0IA@@d0@detail@tbb@@@std@@@123@@Z
	??$?0U?$atomic@PEAU?$padded@U?$ets_element@VSparseIndices@manifold@@@d1@detail@tbb@@$0IA@@d0@detail@tbb@@@std@@@?$cache_aligned_allocator@U?$padded@U?$ets_element@VSparseIndices@manifold@@@d1@detail@tbb@@$0IA@@d0@detail@tbb@@@d1@detail@tbb@@QEAA@AEBV?$cache_aligned_allocator@U?$atomic@PEAU?$padded@U?$ets_element@VSparseIndices@manifold@@@d1@detail@tbb@@$0IA@@d0@detail@tbb@@@std@@@123@@Z
	??$?0U?$default_delete@UImpl@Manifold@manifold@@@std@@$0A@@?$unique_ptr@UImpl@Manifold@manifold@@U?$default_delete@UImpl@Manifold@manifold@@@std@@@std@@QEAA@PEAUImpl@Manifold@manifold@@@Z
	??$?0U?$default_delete@UImpl@Manifold@manifold@@@std@@AEAPEAUImpl@Manifold@manifold@@@?$_Compressed_pair@U?$default_delete@UImpl@Manifold@manifold@@@std@@PEAUImpl@Manifold@manifold@@$00@std@@QEAA@U_One_then_variadic_args_t@1@$$QEAU?$default_delete@UImpl@Manifold@manifold@@@1@AEAPEAUImpl@Manifold@manifold@@@Z
	??$?0U?$default_delete@V?$Vec@_K@manifold@@@std@@$0A@@?$unique_ptr@V?$Vec@_K@manifold@@U?$default_delete@V?$Vec@_K@manifold@@@std@@@std@@QEAA@$$QEAV01@@Z
	??$?0U?$default_delete@V?$Vec@_K@manifold@@@std@@$0A@@?$unique_ptr@V?$Vec@_K@manifold@@U?$default_delete@V?$Vec@_K@manifold@@@std@@@std@@QEAA@PEAV?$Vec@_K@manifold@@@Z
	??$?0U?$default_delete@V?$Vec@_K@manifold@@@std@@$0A@@?$unique_ptr@V?$Vec@_K@manifold@@U?$default_delete@V?$Vec@_K@manifold@@@std@@@std@@QEAA@XZ
	??$?0U?$default_delete@V?$Vec@_K@manifold@@@std@@PEAV?$Vec@_K@manifold@@@?$_Compressed_pair@U?$default_delete@V?$Vec@_K@manifold@@@std@@PEAV?$Vec@_K@manifold@@$00@std@@QEAA@U_One_then_variadic_args_t@1@$$QEAU?$default_delete@V?$Vec@_K@manifold@@@1@$$QEAPEAV?$Vec@_K@manifold@@@Z
	??$?0U?$default_delete@VPolyPathD@Clipper2Lib@@@std@@$0A@@?$unique_ptr@VPolyPathD@Clipper2Lib@@U?$default_delete@VPolyPathD@Clipper2Lib@@@std@@@std@@QEAA@$$QEAV01@@Z
	??$?0U?$default_delete@VPolyPathD@Clipper2Lib@@@std@@$0A@@?$unique_ptr@VPolyPathD@Clipper2Lib@@U?$default_delete@VPolyPathD@Clipper2Lib@@@std@@@std@@QEAA@PEAVPolyPathD@Clipper2Lib@@@Z
	??$?0U?$default_delete@VPolyPathD@Clipper2Lib@@@std@@$0A@@?$unique_ptr@VPolyPathD@Clipper2Lib@@U?$default_delete@VPolyPathD@Clipper2Lib@@@std@@@std@@QEAA@XZ
	??$?0U?$default_delete@VPolyPathD@Clipper2Lib@@@std@@PEAVPolyPathD@Clipper2Lib@@@?$_Compressed_pair@U?$default_delete@VPolyPathD@Clipper2Lib@@@std@@PEAVPolyPathD@Clipper2Lib@@$00@std@@QEAA@U_One_then_variadic_args_t@1@$$QEAU?$default_delete@VPolyPathD@Clipper2Lib@@@1@$$QEAPEAVPolyPathD@Clipper2Lib@@@Z
	??$?0U?$less@H@std@@U_One_then_variadic_args_t@1@V?$allocator@U?$_Tree_node@U?$pair@$$CBHURelation@Impl@Manifold@manifold@@@std@@PEAX@std@@@1@@?$_Compressed_pair@U?$less@H@std@@V?$_Compressed_pair@V?$allocator@U?$_Tree_node@U?$pair@$$CBHURelation@Impl@Manifold@manifold@@@std@@PEAX@std@@@std@@V?$_Tree_val@U?$_Tree_simple_types@U?$pair@$$CBHURelation@Impl@Manifold@manifold@@@std@@@std@@@2@$00@2@$00@std@@QEAA@U_One_then_variadic_args_t@1@$$QEAU?$less@H@1@$$QEAU21@$$QEAV?$allocator@U?$_Tree_node@U?$pair@$$CBHURelation@Impl@Manifold@manifold@@@std@@PEAX@std@@@1@@Z
	??$?0U?$padded@U?$ets_element@U?$Hist@_K$07@details@manifold@@@d1@detail@tbb@@$0IA@@d0@detail@tbb@@@?$cache_aligned_allocator@U?$atomic@PEAU?$padded@U?$ets_element@U?$Hist@_K$07@details@manifold@@@d1@detail@tbb@@$0IA@@d0@detail@tbb@@@std@@@d1@detail@tbb@@QEAA@AEBV?$cache_aligned_allocator@U?$padded@U?$ets_element@U?$Hist@_K$07@details@manifold@@@d1@detail@tbb@@$0IA@@d0@detail@tbb@@@123@@Z
	??$?0U?$padded@U?$ets_element@V?$linear_congruential_engine@I$0LMIP@$0A@$0HPPPPPPP@@std@@@d1@detail@tbb@@$0IA@@d0@detail@tbb@@@?$cache_aligned_allocator@U?$atomic@PEAU?$padded@U?$ets_element@V?$linear_congruential_engine@I$0LMIP@$0A@$0HPPPPPPP@@std@@@d1@detail@tbb@@$0IA@@d0@detail@tbb@@@std@@@d1@detail@tbb@@QEAA@AEBV?$cache_aligned_allocator@U?$padded@U?$ets_element@V?$linear_congruential_engine@I$0LMIP@$0A@$0HPPPPPPP@@std@@@d1@detail@tbb@@$0IA@@d0@detail@tbb@@@123@@Z
	??$?0U?$padded@U?$ets_element@VSparseIndices@manifold@@@d1@detail@tbb@@$0IA@@d0@detail@tbb@@@?$cache_aligned_allocator@U?$atomic@PEAU?$padded@U?$ets_element@VSparseIndices@manifold@@@d1@detail@tbb@@$0IA@@d0@detail@tbb@@@std@@@d1@detail@tbb@@QEAA@AEBV?$cache_aligned_allocator@U?$padded@U?$ets_element@VSparseIndices@manifold@@@d1@detail@tbb@@$0IA@@d0@detail@tbb@@@123@@Z
	??$?0U?$pair@$$CBHH@std@@@?$allocator@U?$_List_node@U?$pair@$$CBHH@std@@PEAX@std@@@std@@QEAA@AEBV?$allocator@U?$pair@$$CBHH@std@@@1@@Z
	??$?0U?$pair@$$CBHH@std@@@?$allocator@V?$_List_unchecked_iterator@V?$_List_val@U?$_List_simple_types@U?$pair@$$CBHH@std@@@std@@@std@@@std@@@std@@QEAA@AEBV?$allocator@U?$pair@$$CBHH@std@@@1@@Z
	??$?0U?$pair@$$CBHV?$vector@U?$vec@H$02@linalg@@V?$allocator@U?$vec@H$02@linalg@@@std@@@std@@@std@@@?$tbb_allocator@U?$atomic@PEAU?$atomic@PEAV?$list_node@_K@d2@detail@tbb@@@std@@@std@@@d1@detail@tbb@@QEAA@AEBV?$tbb_allocator@U?$pair@$$CBHV?$vector@U?$vec@H$02@linalg@@V?$allocator@U?$vec@H$02@linalg@@@std@@@std@@@std@@@123@@Z
	??$?0U?$pair@$$CB_K_K@std@@@?$allocator@U?$_List_node@U?$pair@$$CB_K_K@std@@PEAX@std@@@std@@QEAA@AEBV?$allocator@U?$pair@$$CB_K_K@std@@@1@@Z
	??$?0U?$pair@$$CB_K_K@std@@@?$allocator@V?$_List_unchecked_iterator@V?$_List_val@U?$_List_simple_types@U?$pair@$$CB_K_K@std@@@std@@@std@@@std@@@std@@QEAA@AEBV?$allocator@U?$pair@$$CB_K_K@std@@@1@@Z
	??$?0U?$pair@HH@std@@@?$_List_node_emplace_op2@V?$allocator@U?$_List_node@U?$pair@$$CBHH@std@@PEAX@std@@@std@@@std@@QEAA@AEAV?$allocator@U?$_List_node@U?$pair@$$CBHH@std@@PEAX@std@@@1@$$QEAU?$pair@HH@1@@Z
	??$?0U?$pair@HH@std@@@?$_Tree_temp_node@V?$allocator@U?$_Tree_node@U?$pair@$$CBHH@std@@PEAX@std@@@std@@@std@@QEAA@AEAV?$allocator@U?$_Tree_node@U?$pair@$$CBHH@std@@PEAX@std@@@1@PEAU?$_Tree_node@U?$pair@$$CBHH@std@@PEAX@1@$$QEAU?$pair@HH@1@@Z
	??$?0U?$vec@H$02@linalg@@AEAH$0A@@?$pair@U?$vec@H$02@linalg@@H@std@@QEAA@$$QEAU?$vec@H$02@linalg@@AEAH@Z
	??$?0UImpl@Manifold@manifold@@$0A@@?$shared_ptr@$$CBUImpl@Manifold@manifold@@@std@@QEAA@$$QEAV?$shared_ptr@UImpl@Manifold@manifold@@@1@@Z
	??$?0UImpl@Manifold@manifold@@$0A@@?$shared_ptr@$$CBUImpl@Manifold@manifold@@@std@@QEAA@AEBV?$shared_ptr@UImpl@Manifold@manifold@@@1@@Z
	??$?0UImpl@Manifold@manifold@@@?$_Ref_count_obj2@$$CBUImpl@Manifold@manifold@@@std@@QEAA@$$QEAUImpl@Manifold@manifold@@@Z
	??$?0UImpl@Manifold@manifold@@U?$default_delete@UImpl@Manifold@manifold@@@std@@$0A@@?$shared_ptr@$$CBUImpl@Manifold@manifold@@@std@@QEAA@$$QEAV?$unique_ptr@UImpl@Manifold@manifold@@U?$default_delete@UImpl@Manifold@manifold@@@std@@@1@@Z
	??$?0USmoothness@manifold@@U01@$0A@@?$pair@USmoothness@manifold@@U12@@std@@QEAA@AEBUSmoothness@manifold@@0@Z
	??$?0USmoothness@manifold@@U01@$0A@@?$pair@USmoothness@manifold@@U12@@std@@QEAA@XZ
	??$?0U_Exact_args_t@std@@$0A@@?$tuple@$$V@std@@QEAA@U_Exact_args_t@1@@Z
	??$?0U_Exact_args_t@std@@AEAV?$Vec@H@manifold@@$$V$0A@@?$tuple@AEAV?$Vec@H@manifold@@@std@@QEAA@U_Exact_args_t@1@AEAV?$Vec@H@manifold@@@Z
	??$?0U_Exact_args_t@std@@AEAV?$Vec@H@manifold@@$$V$0A@@?$tuple@V?$Vec@H@manifold@@@std@@QEAA@U_Exact_args_t@1@AEAV?$Vec@H@manifold@@@Z
	??$?0U_Exact_args_t@std@@AEAV?$Vec@H@manifold@@AEAV23@$0A@@?$tuple@AEAV?$Vec@H@manifold@@AEAV12@@std@@QEAA@U_Exact_args_t@1@AEAV?$Vec@H@manifold@@1@Z
	??$?0U_Exact_args_t@std@@AEAV?$Vec@H@manifold@@AEAV23@$0A@@?$tuple@V?$Vec@H@manifold@@V12@@std@@QEAA@U_Exact_args_t@1@AEAV?$Vec@H@manifold@@1@Z
	??$?0U_Exact_args_t@std@@AEAV?$Vec@H@manifold@@AEAV?$Vec@N@3@$0A@@?$tuple@AEAV?$Vec@H@manifold@@AEAV?$Vec@N@2@@std@@QEAA@U_Exact_args_t@1@AEAV?$Vec@H@manifold@@AEAV?$Vec@N@4@@Z
	??$?0U_Exact_args_t@std@@AEAV?$Vec@H@manifold@@AEAV?$Vec@N@3@$0A@@?$tuple@V?$Vec@H@manifold@@V?$Vec@N@2@@std@@QEAA@U_Exact_args_t@1@AEAV?$Vec@H@manifold@@AEAV?$Vec@N@4@@Z
	??$?0U_Exact_args_t@std@@AEAV?$Vec@H@manifold@@AEAV?$Vec@U?$vec@N$02@linalg@@@3@$0A@@?$tuple@AEAV?$Vec@H@manifold@@AEAV?$Vec@U?$vec@N$02@linalg@@@2@@std@@QEAA@U_Exact_args_t@1@AEAV?$Vec@H@manifold@@AEAV?$Vec@U?$vec@N$02@linalg@@@4@@Z
	??$?0U_Exact_args_t@std@@AEAV?$Vec@H@manifold@@AEAV?$Vec@U?$vec@N$02@linalg@@@3@$0A@@?$tuple@V?$Vec@H@manifold@@V?$Vec@U?$vec@N$02@linalg@@@2@@std@@QEAA@U_Exact_args_t@1@AEAV?$Vec@H@manifold@@AEAV?$Vec@U?$vec@N$02@linalg@@@4@@Z
	??$?0U_Exact_args_t@std@@AEAV?$Vec@H@manifold@@AEAV?$Vec@U?$vec@N$03@linalg@@@3@$0A@@?$tuple@AEAV?$Vec@H@manifold@@AEAV?$Vec@U?$vec@N$03@linalg@@@2@@std@@QEAA@U_Exact_args_t@1@AEAV?$Vec@H@manifold@@AEAV?$Vec@U?$vec@N$03@linalg@@@4@@Z
	??$?0U_Exact_args_t@std@@AEAV?$Vec@H@manifold@@AEAV?$Vec@U?$vec@N$03@linalg@@@3@$0A@@?$tuple@V?$Vec@H@manifold@@V?$Vec@U?$vec@N$03@linalg@@@2@@std@@QEAA@U_Exact_args_t@1@AEAV?$Vec@H@manifold@@AEAV?$Vec@U?$vec@N$03@linalg@@@4@@Z
	??$?0U_Exact_args_t@std@@AEAV?$Vec@N@manifold@@$$V$0A@@?$tuple@AEAV?$Vec@N@manifold@@@std@@QEAA@U_Exact_args_t@1@AEAV?$Vec@N@manifold@@@Z
	??$?0U_Exact_args_t@std@@AEAV?$Vec@N@manifold@@$$V$0A@@?$tuple@V?$Vec@N@manifold@@@std@@QEAA@U_Exact_args_t@1@AEAV?$Vec@N@manifold@@@Z
	??$?0U_Exact_args_t@std@@AEAV?$Vec@U?$vec@N$02@linalg@@@manifold@@$$V$0A@@?$tuple@AEAV?$Vec@U?$vec@N$02@linalg@@@manifold@@@std@@QEAA@U_Exact_args_t@1@AEAV?$Vec@U?$vec@N$02@linalg@@@manifold@@@Z
	??$?0U_Exact_args_t@std@@AEAV?$Vec@U?$vec@N$02@linalg@@@manifold@@$$V$0A@@?$tuple@V?$Vec@U?$vec@N$02@linalg@@@manifold@@@std@@QEAA@U_Exact_args_t@1@AEAV?$Vec@U?$vec@N$02@linalg@@@manifold@@@Z
	??$?0U_Exact_args_t@std@@AEAV?$Vec@U?$vec@N$03@linalg@@@manifold@@$$V$0A@@?$tuple@AEAV?$Vec@U?$vec@N$03@linalg@@@manifold@@@std@@QEAA@U_Exact_args_t@1@AEAV?$Vec@U?$vec@N$03@linalg@@@manifold@@@Z
	??$?0U_Exact_args_t@std@@AEAV?$Vec@U?$vec@N$03@linalg@@@manifold@@$$V$0A@@?$tuple@V?$Vec@U?$vec@N$03@linalg@@@manifold@@@std@@QEAA@U_Exact_args_t@1@AEAV?$Vec@U?$vec@N$03@linalg@@@manifold@@@Z
	??$?0U_Exact_args_t@std@@AEAV?$Vec@UHalfedge@manifold@@@manifold@@AEAV?$Vec@U?$vec@N$02@linalg@@@3@$0A@@?$tuple@AEAV?$Vec@UHalfedge@manifold@@@manifold@@AEAV?$Vec@U?$vec@N$02@linalg@@@2@@std@@QEAA@U_Exact_args_t@1@AEAV?$Vec@UHalfedge@manifold@@@manifold@@AEAV?$Vec@U?$vec@N$02@linalg@@@4@@Z
	??$?0U_Exact_args_t@std@@AEA_K$$V$0A@@?$tuple@AEA_K@std@@QEAA@U_Exact_args_t@1@AEA_K@Z
	??$?0U_Exact_args_t@std@@AEBH$$V$0A@@?$tuple@AEBH@std@@QEAA@U_Exact_args_t@1@AEBH@Z
	??$?0U_Exact_args_t@std@@AEBU?$_Ph@$00@1@$$V$0A@@?$tuple@U?$_Ph@$00@std@@@std@@QEAA@U_Exact_args_t@1@AEBU?$_Ph@$00@1@@Z
	??$?0U_Exact_args_t@std@@AEBU?$pair@HH@1@$$V$0A@@?$tuple@AEBU?$pair@HH@std@@@std@@QEAA@U_Exact_args_t@1@AEBU?$pair@HH@1@@Z
	??$?0U_Exact_args_t@std@@AEB_K$$V$0A@@?$tuple@AEB_K@std@@QEAA@U_Exact_args_t@1@AEB_K@Z
	??$?0U_Exact_args_t@std@@H$$V$0A@@?$tuple@$$QEAH@std@@QEAA@U_Exact_args_t@1@$$QEAH@Z
	??$?0U_Exact_args_t@std@@_K$$V$0A@@?$tuple@$$QEA_K@std@@QEAA@U_Exact_args_t@1@$$QEA_K@Z
	??$?0U_Zero_then_variadic_args_t@std@@M@?$_Compressed_pair@U?$hash@H@std@@V?$_Compressed_pair@U?$equal_to@H@std@@M$00@2@$00@std@@QEAA@U_Zero_then_variadic_args_t@1@$$QEAU21@$$QEAM@Z
	??$?0U_Zero_then_variadic_args_t@std@@M@?$_Compressed_pair@U?$hash@U?$vec@H$03@linalg@@@std@@V?$_Compressed_pair@U?$equal_to@U?$vec@H$03@linalg@@@std@@M$00@2@$00@std@@QEAA@U_Zero_then_variadic_args_t@1@$$QEAU21@$$QEAM@Z
	??$?0U_Zero_then_variadic_args_t@std@@M@?$_Compressed_pair@U?$hash@_K@std@@V?$_Compressed_pair@U?$equal_to@_K@std@@M$00@2@$00@std@@QEAA@U_Zero_then_variadic_args_t@1@$$QEAU21@$$QEAM@Z
	??$?0Uidentity_t@linalg@@U?$mat@N$01$01@1@@?$mat@N$01$01@linalg@@QEAA@AEBUidentity_t@1@@Z
	??$?0Uidentity_t@linalg@@U?$mat@N$01$02@1@@?$mat@N$01$02@linalg@@QEAA@AEBUidentity_t@1@@Z
	??$?0Uidentity_t@linalg@@U?$mat@N$02$02@1@@?$mat@N$02$02@linalg@@QEAA@AEBUidentity_t@1@@Z
	??$?0Uidentity_t@linalg@@U?$mat@N$02$03@1@@?$mat@N$02$03@linalg@@QEAA@AEBUidentity_t@1@@Z
	??$?0V?$Vec@UHalfedge@manifold@@@manifold@@V?$Vec@U?$vec@N$02@linalg@@@1@$0A@@?$pair@V?$Vec@UHalfedge@manifold@@@manifold@@V?$Vec@U?$vec@N$02@linalg@@@2@@std@@QEAA@$$QEAV?$Vec@UHalfedge@manifold@@@manifold@@$$QEAV?$Vec@U?$vec@N$02@linalg@@@3@@Z
	??$?0V?$_List_iterator@V?$_List_val@U?$_List_simple_types@H@std@@@std@@@std@@_N$0A@@?$pair@V?$_List_const_iterator@V?$_List_val@U?$_List_simple_types@H@std@@@std@@@std@@_N@std@@QEAA@$$QEAV?$_List_iterator@V?$_List_val@U?$_List_simple_types@H@std@@@std@@@1@$$QEA_N@Z
	??$?0V?$_List_iterator@V?$_List_val@U?$_List_simple_types@U?$pair@$$CBHH@std@@@std@@@std@@@std@@_N$0A@@?$pair@V?$_List_iterator@V?$_List_val@U?$_List_simple_types@U?$pair@$$CBHH@std@@@std@@@std@@@std@@_N@std@@QEAA@$$QEAV?$_List_iterator@V?$_List_val@U?$_List_simple_types@U?$pair@$$CBHH@std@@@std@@@std@@@1@$$QEA_N@Z
	??$?0V?$_Tree_iterator@V?$_Tree_val@U?$_Tree_simple_types@U?$pair@$$CBHH@std@@@std@@@std@@@std@@AEB_N$0A@@?$pair@V?$_Tree_iterator@V?$_Tree_val@U?$_Tree_simple_types@U?$pair@$$CBHH@std@@@std@@@std@@@std@@_N@std@@QEAA@$$QEAV?$_Tree_iterator@V?$_Tree_val@U?$_Tree_simple_types@U?$pair@$$CBHH@std@@@std@@@std@@@1@AEB_N@Z
	??$?0V?$allocator@D@std@@$$V@?$_Compressed_pair@V?$allocator@D@std@@V?$_String_val@U?$_Simple_types@D@std@@@2@$00@std@@QEAA@U_One_then_variadic_args_t@1@$$QEAV?$allocator@D@1@@Z
	??$?0V?$allocator@I@std@@$$V@?$_Compressed_pair@V?$allocator@I@std@@V?$_Vector_val@U?$_Simple_types@I@std@@@2@$00@std@@QEAA@U_One_then_variadic_args_t@1@$$QEAV?$allocator@I@1@@Z
	??$?0V?$allocator@I@std@@PEAIPEAIPEAI@?$_Compressed_pair@V?$allocator@I@std@@V?$_Vector_val@U?$_Simple_types@I@std@@@2@$00@std@@QEAA@U_One_then_variadic_args_t@1@$$QEAV?$allocator@I@1@$$QEAPEAI22@Z
	??$?0V?$allocator@M@std@@PEAMPEAMPEAM@?$_Compressed_pair@V?$allocator@M@std@@V?$_Vector_val@U?$_Simple_types@M@std@@@2@$00@std@@QEAA@U_One_then_variadic_args_t@1@$$QEAV?$allocator@M@1@$$QEAPEAM22@Z
	??$?0V?$allocator@N@std@@PEANPEANPEAN@?$_Compressed_pair@V?$allocator@N@std@@V?$_Vector_val@U?$_Simple_types@N@std@@@2@$00@std@@QEAA@U_One_then_variadic_args_t@1@$$QEAV?$allocator@N@1@$$QEAPEAN22@Z
	??$?0V?$allocator@U?$Point@N@Clipper2Lib@@@std@@$$V@?$_Compressed_pair@V?$allocator@U?$Point@N@Clipper2Lib@@@std@@V?$_Vector_val@U?$_Simple_types@U?$Point@N@Clipper2Lib@@@std@@@2@$00@std@@QEAA@U_One_then_variadic_args_t@1@$$QEAV?$allocator@U?$Point@N@Clipper2Lib@@@1@@Z
	??$?0V?$allocator@U?$Point@N@Clipper2Lib@@@std@@PEAU?$Point@N@Clipper2Lib@@PEAU23@PEAU23@@?$_Compressed_pair@V?$allocator@U?$Point@N@Clipper2Lib@@@std@@V?$_Vector_val@U?$_Simple_types@U?$Point@N@Clipper2Lib@@@std@@@2@$00@std@@QEAA@U_One_then_variadic_args_t@1@$$QEAV?$allocator@U?$Point@N@Clipper2Lib@@@1@$$QEAPEAU?$Point@N@Clipper2Lib@@22@Z
	??$?0V?$allocator@U?$Point@_J@Clipper2Lib@@@std@@PEAU?$Point@_J@Clipper2Lib@@PEAU23@PEAU23@@?$_Compressed_pair@V?$allocator@U?$Point@_J@Clipper2Lib@@@std@@V?$_Vector_val@U?$_Simple_types@U?$Point@_J@Clipper2Lib@@@std@@@2@$00@std@@QEAA@U_One_then_variadic_args_t@1@$$QEAV?$allocator@U?$Point@_J@Clipper2Lib@@@1@$$QEAPEAU?$Point@_J@Clipper2Lib@@22@Z
	??$?0V?$allocator@U?$_Tree_node@U?$pair@$$CBHURelation@Impl@Manifold@manifold@@@std@@PEAX@std@@@std@@$$V@?$_Compressed_pair@V?$allocator@U?$_Tree_node@U?$pair@$$CBHURelation@Impl@Manifold@manifold@@@std@@PEAX@std@@@std@@V?$_Tree_val@U?$_Tree_simple_types@U?$pair@$$CBHURelation@Impl@Manifold@manifold@@@std@@@std@@@2@$00@std@@QEAA@U_One_then_variadic_args_t@1@$$QEAV?$allocator@U?$_Tree_node@U?$pair@$$CBHURelation@Impl@Manifold@manifold@@@std@@PEAX@std@@@1@@Z
	??$?0V?$allocator@U?$_Tree_node@U?$pair@$$CBHURelation@Impl@Manifold@manifold@@@std@@PEAX@std@@@std@@@?$_Tree@V?$_Tmap_traits@HURelation@Impl@Manifold@manifold@@U?$less@H@std@@V?$allocator@U?$pair@$$CBHURelation@Impl@Manifold@manifold@@@std@@@6@$0A@@std@@@std@@QEAA@AEBV01@$$QEAV?$allocator@U?$_Tree_node@U?$pair@$$CBHURelation@Impl@Manifold@manifold@@@std@@PEAX@std@@@1@@Z
	??$?0V?$allocator@U?$vec@H$02@linalg@@@std@@$$V@?$_Compressed_pair@V?$allocator@U?$vec@H$02@linalg@@@std@@V?$_Vector_val@U?$_Simple_types@U?$vec@H$02@linalg@@@std@@@2@$00@std@@QEAA@U_One_then_variadic_args_t@1@$$QEAV?$allocator@U?$vec@H$02@linalg@@@1@@Z
	??$?0V?$allocator@U?$vec@H$02@linalg@@@std@@PEAU?$vec@H$02@linalg@@PEAU23@PEAU23@@?$_Compressed_pair@V?$allocator@U?$vec@H$02@linalg@@@std@@V?$_Vector_val@U?$_Simple_types@U?$vec@H$02@linalg@@@std@@@2@$00@std@@QEAA@U_One_then_variadic_args_t@1@$$QEAV?$allocator@U?$vec@H$02@linalg@@@1@$$QEAPEAU?$vec@H$02@linalg@@22@Z
	??$?0V?$allocator@U?$vec@N$01@linalg@@@std@@$$V@?$_Compressed_pair@V?$allocator@U?$vec@N$01@linalg@@@std@@V?$_Vector_val@U?$_Simple_types@U?$vec@N$01@linalg@@@std@@@2@$00@std@@QEAA@U_One_then_variadic_args_t@1@$$QEAV?$allocator@U?$vec@N$01@linalg@@@1@@Z
	??$?0V?$allocator@U?$vec@N$01@linalg@@@std@@PEAU?$vec@N$01@linalg@@PEAU23@PEAU23@@?$_Compressed_pair@V?$allocator@U?$vec@N$01@linalg@@@std@@V?$_Vector_val@U?$_Simple_types@U?$vec@N$01@linalg@@@std@@@2@$00@std@@QEAA@U_One_then_variadic_args_t@1@$$QEAV?$allocator@U?$vec@N$01@linalg@@@1@$$QEAPEAU?$vec@N$01@linalg@@22@Z
	??$?0V?$allocator@UHalfedge@manifold@@@std@@PEAUHalfedge@manifold@@PEAU23@PEAU23@@?$_Compressed_pair@V?$allocator@UHalfedge@manifold@@@std@@V?$_Vector_val@U?$_Simple_types@UHalfedge@manifold@@@std@@@2@$00@std@@QEAA@U_One_then_variadic_args_t@1@$$QEAV?$allocator@UHalfedge@manifold@@@1@$$QEAPEAUHalfedge@manifold@@22@Z
	??$?0V?$allocator@UPolyVert@manifold@@@std@@$$V@?$_Compressed_pair@V?$allocator@UPolyVert@manifold@@@std@@V?$_Vector_val@U?$_Simple_types@UPolyVert@manifold@@@std@@@2@$00@std@@QEAA@U_One_then_variadic_args_t@1@$$QEAV?$allocator@UPolyVert@manifold@@@1@@Z
	??$?0V?$allocator@UPolyVert@manifold@@@std@@PEAUPolyVert@manifold@@PEAU23@PEAU23@@?$_Compressed_pair@V?$allocator@UPolyVert@manifold@@@std@@V?$_Vector_val@U?$_Simple_types@UPolyVert@manifold@@@std@@@2@$00@std@@QEAA@U_One_then_variadic_args_t@1@$$QEAV?$allocator@UPolyVert@manifold@@@1@$$QEAPEAUPolyVert@manifold@@22@Z
	??$?0V?$allocator@USmoothness@manifold@@@std@@$$V@?$_Compressed_pair@V?$allocator@USmoothness@manifold@@@std@@V?$_Vector_val@U?$_Simple_types@USmoothness@manifold@@@std@@@2@$00@std@@QEAA@U_One_then_variadic_args_t@1@$$QEAV?$allocator@USmoothness@manifold@@@1@@Z
	??$?0V?$allocator@USmoothness@manifold@@@std@@PEAUSmoothness@manifold@@PEAU23@PEAU23@@?$_Compressed_pair@V?$allocator@USmoothness@manifold@@@std@@V?$_Vector_val@U?$_Simple_types@USmoothness@manifold@@@std@@@2@$00@std@@QEAA@U_One_then_variadic_args_t@1@$$QEAV?$allocator@USmoothness@manifold@@@1@$$QEAPEAUSmoothness@manifold@@22@Z
	??$?0V?$allocator@V?$shared_ptr@VCsgNode@manifold@@@std@@@std@@$$V@?$_Compressed_pair@V?$allocator@V?$shared_ptr@VCsgNode@manifold@@@std@@@std@@V?$_Vector_val@U?$_Simple_types@V?$shared_ptr@VCsgNode@manifold@@@std@@@std@@@2@$00@std@@QEAA@U_One_then_variadic_args_t@1@$$QEAV?$allocator@V?$shared_ptr@VCsgNode@manifold@@@std@@@1@@Z
	??$?0V?$allocator@V?$vector@U?$Point@N@Clipper2Lib@@V?$allocator@U?$Point@N@Clipper2Lib@@@std@@@std@@@std@@$$V@?$_Compressed_pair@V?$allocator@V?$vector@U?$Point@N@Clipper2Lib@@V?$allocator@U?$Point@N@Clipper2Lib@@@std@@@std@@@std@@V?$_Vector_val@U?$_Simple_types@V?$vector@U?$Point@N@Clipper2Lib@@V?$allocator@U?$Point@N@Clipper2Lib@@@std@@@std@@@std@@@2@$00@std@@QEAA@U_One_then_variadic_args_t@1@$$QEAV?$allocator@V?$vector@U?$Point@N@Clipper2Lib@@V?$allocator@U?$Point@N@Clipper2Lib@@@std@@@std@@@1@@Z
	??$?0V?$allocator@V?$vector@U?$Point@N@Clipper2Lib@@V?$allocator@U?$Point@N@Clipper2Lib@@@std@@@std@@@std@@PEAV?$vector@U?$Point@N@Clipper2Lib@@V?$allocator@U?$Point@N@Clipper2Lib@@@std@@@1@PEAV21@PEAV21@@?$_Compressed_pair@V?$allocator@V?$vector@U?$Point@N@Clipper2Lib@@V?$allocator@U?$Point@N@Clipper2Lib@@@std@@@std@@@std@@V?$_Vector_val@U?$_Simple_types@V?$vector@U?$Point@N@Clipper2Lib@@V?$allocator@U?$Point@N@Clipper2Lib@@@std@@@std@@@std@@@2@$00@std@@QEAA@U_One_then_variadic_args_t@1@$$QEAV?$allocator@V?$vector@U?$Point@N@Clipper2Lib@@V?$allocator@U?$Point@N@Clipper2Lib@@@std@@@std@@@1@$$QEAPEAV?$vector@U?$Point@N@Clipper2Lib@@V?$allocator@U?$Point@N@Clipper2Lib@@@std@@@1@22@Z
	??$?0V?$allocator@V?$vector@U?$Point@_J@Clipper2Lib@@V?$allocator@U?$Point@_J@Clipper2Lib@@@std@@@std@@@std@@PEAV?$vector@U?$Point@_J@Clipper2Lib@@V?$allocator@U?$Point@_J@Clipper2Lib@@@std@@@1@PEAV21@PEAV21@@?$_Compressed_pair@V?$allocator@V?$vector@U?$Point@_J@Clipper2Lib@@V?$allocator@U?$Point@_J@Clipper2Lib@@@std@@@std@@@std@@V?$_Vector_val@U?$_Simple_types@V?$vector@U?$Point@_J@Clipper2Lib@@V?$allocator@U?$Point@_J@Clipper2Lib@@@std@@@std@@@std@@@2@$00@std@@QEAA@U_One_then_variadic_args_t@1@$$QEAV?$allocator@V?$vector@U?$Point@_J@Clipper2Lib@@V?$allocator@U?$Point@_J@Clipper2Lib@@@std@@@std@@@1@$$QEAPEAV?$vector@U?$Point@_J@Clipper2Lib@@V?$allocator@U?$Point@_J@Clipper2Lib@@@std@@@1@22@Z
	??$?0V?$allocator@V?$vector@U?$vec@N$01@linalg@@V?$allocator@U?$vec@N$01@linalg@@@std@@@std@@@std@@PEAV?$vector@U?$vec@N$01@linalg@@V?$allocator@U?$vec@N$01@linalg@@@std@@@1@PEAV21@PEAV21@@?$_Compressed_pair@V?$allocator@V?$vector@U?$vec@N$01@linalg@@V?$allocator@U?$vec@N$01@linalg@@@std@@@std@@@std@@V?$_Vector_val@U?$_Simple_types@V?$vector@U?$vec@N$01@linalg@@V?$allocator@U?$vec@N$01@linalg@@@std@@@std@@@std@@@2@$00@std@@QEAA@U_One_then_variadic_args_t@1@$$QEAV?$allocator@V?$vector@U?$vec@N$01@linalg@@V?$allocator@U?$vec@N$01@linalg@@@std@@@std@@@1@$$QEAPEAV?$vector@U?$vec@N$01@linalg@@V?$allocator@U?$vec@N$01@linalg@@@std@@@1@22@Z
	??$?0V?$allocator@V?$vector@UPolyVert@manifold@@V?$allocator@UPolyVert@manifold@@@std@@@std@@@std@@PEAV?$vector@UPolyVert@manifold@@V?$allocator@UPolyVert@manifold@@@std@@@1@PEAV21@PEAV21@@?$_Compressed_pair@V?$allocator@V?$vector@UPolyVert@manifold@@V?$allocator@UPolyVert@manifold@@@std@@@std@@@std@@V?$_Vector_val@U?$_Simple_types@V?$vector@UPolyVert@manifold@@V?$allocator@UPolyVert@manifold@@@std@@@std@@@std@@@2@$00@std@@QEAA@U_One_then_variadic_args_t@1@$$QEAV?$allocator@V?$vector@UPolyVert@manifold@@V?$allocator@UPolyVert@manifold@@@std@@@std@@@1@$$QEAPEAV?$vector@UPolyVert@manifold@@V?$allocator@UPolyVert@manifold@@@std@@@1@22@Z
	??$?0V?$allocator@VCrossSection@manifold@@@std@@PEAVCrossSection@manifold@@PEAV23@PEAV23@@?$_Compressed_pair@V?$allocator@VCrossSection@manifold@@@std@@V?$_Vector_val@U?$_Simple_types@VCrossSection@manifold@@@std@@@2@$00@std@@QEAA@U_One_then_variadic_args_t@1@$$QEAV?$allocator@VCrossSection@manifold@@@1@$$QEAPEAVCrossSection@manifold@@22@Z
	??$?0V?$allocator@VManifold@manifold@@@std@@PEAVManifold@manifold@@PEAV23@PEAV23@@?$_Compressed_pair@V?$allocator@VManifold@manifold@@@std@@V?$_Vector_val@U?$_Simple_types@VManifold@manifold@@@std@@@2@$00@std@@QEAA@U_One_then_variadic_args_t@1@$$QEAV?$allocator@VManifold@manifold@@@1@$$QEAPEAVManifold@manifold@@22@Z
	??$?0V?$allocator@_K@std@@$$V@?$_Compressed_pair@V?$allocator@_K@std@@V?$_Vector_val@U?$_Simple_types@_K@std@@@2@$00@std@@QEAA@U_One_then_variadic_args_t@1@$$QEAV?$allocator@_K@1@@Z
	??$?0V?$allocator@_K@std@@PEA_KPEA_KPEA_K@?$_Compressed_pair@V?$allocator@_K@std@@V?$_Vector_val@U?$_Simple_types@_K@std@@@2@$00@std@@QEAA@U_One_then_variadic_args_t@1@$$QEAV?$allocator@_K@1@$$QEAPEA_K22@Z
	??$?0V?$shared_ptr@UImpl@Manifold@manifold@@@std@@@?$_Ref_count_obj2@VCsgLeafNode@manifold@@@std@@QEAA@$$QEAV?$shared_ptr@UImpl@Manifold@manifold@@@1@@Z
	??$?0V?$solist_iterator@V?$concurrent_unordered_base@U?$concurrent_unordered_map_traits@HV?$vector@U?$vec@H$02@linalg@@V?$allocator@U?$vec@H$02@linalg@@@std@@@std@@U?$hash@H@2@U?$equal_to@H@2@V?$tbb_allocator@U?$pair@$$CBHV?$vector@U?$vec@H$02@linalg@@V?$allocator@U?$vec@H$02@linalg@@@std@@@std@@@std@@@d1@detail@tbb@@$0A@@d2@detail@tbb@@@d2@detail@tbb@@U?$pair@$$CBHV?$vector@U?$vec@H$02@linalg@@V?$allocator@U?$vec@H$02@linalg@@@std@@@std@@@std@@@d2@detail@tbb@@AEA_N$0A@@?$pair@V?$solist_iterator@V?$concurrent_unordered_base@U?$concurrent_unordered_map_traits@HV?$vector@U?$vec@H$02@linalg@@V?$allocator@U?$vec@H$02@linalg@@@std@@@std@@U?$hash@H@2@U?$equal_to@H@2@V?$tbb_allocator@U?$pair@$$CBHV?$vector@U?$vec@H$02@linalg@@V?$allocator@U?$vec@H$02@linalg@@@std@@@std@@@std@@@d1@detail@tbb@@$0A@@d2@detail@tbb@@@d2@detail@tbb@@U?$pair@$$CBHV?$vector@U?$vec@H$02@linalg@@V?$allocator@U?$vec@H$02@linalg@@@std@@@std@@@std@@@d2@detail@tbb@@_N@std@@QEAA@$$QEAV?$solist_iterator@V?$concurrent_unordered_base@U?$concurrent_unordered_map_traits@HV?$vector@U?$vec@H$02@linalg@@V?$allocator@U?$vec@H$02@linalg@@@std@@@std@@U?$hash@H@2@U?$equal_to@H@2@V?$tbb_allocator@U?$pair@$$CBHV?$vector@U?$vec@H$02@linalg@@V?$allocator@U?$vec@H$02@linalg@@@std@@@std@@@std@@@d1@detail@tbb@@$0A@@d2@detail@tbb@@@d2@detail@tbb@@U?$pair@$$CBHV?$vector@U?$vec@H$02@linalg@@V?$allocator@U?$vec@H$02@linalg@@@std@@@std@@@std@@@d2@detail@tbb@@AEA_N@Z
	??$?0V?$tuple@$$QEAH@std@@V?$tuple@$$V@1@$0A@$$Z$S@?$pair@$$CBHH@std@@QEAA@AEAV?$tuple@$$QEAH@1@AEAV?$tuple@$$V@1@U?$integer_sequence@_K$0A@@1@U?$integer_sequence@_K$S@1@@Z
	??$?0V?$tuple@$$QEAH@std@@V?$tuple@$$V@1@$0A@$$Z$S@?$pair@$$CBHURelation@Impl@Manifold@manifold@@@std@@QEAA@AEAV?$tuple@$$QEAH@1@AEAV?$tuple@$$V@1@U?$integer_sequence@_K$0A@@1@U?$integer_sequence@_K$S@1@@Z
	??$?0V?$tuple@$$QEAH@std@@V?$tuple@$$V@1@$0A@$$Z$S@?$pair@$$CBHV?$vector@U?$vec@H$02@linalg@@V?$allocator@U?$vec@H$02@linalg@@@std@@@std@@@std@@QEAA@AEAV?$tuple@$$QEAH@1@AEAV?$tuple@$$V@1@U?$integer_sequence@_K$0A@@1@U?$integer_sequence@_K$S@1@@Z
	??$?0V?$tuple@$$QEA_K@std@@V?$tuple@$$V@1@$0A@$$Z$S@?$pair@$$CB_K_K@std@@QEAA@AEAV?$tuple@$$QEA_K@1@AEAV?$tuple@$$V@1@U?$integer_sequence@_K$0A@@1@U?$integer_sequence@_K$S@1@@Z
	??$?0V?$tuple@AEBH@std@@V?$tuple@$$V@1@$0A@$$Z$S@?$pair@$$CBHU?$pair@USmoothness@manifold@@U12@@std@@@std@@QEAA@AEAV?$tuple@AEBH@1@AEAV?$tuple@$$V@1@U?$integer_sequence@_K$0A@@1@U?$integer_sequence@_K$S@1@@Z
	??$?0V?$tuple@AEBH@std@@V?$tuple@$$V@1@$0A@$$Z$S@?$pair@$$CBHURelation@Impl@Manifold@manifold@@@std@@QEAA@AEAV?$tuple@AEBH@1@AEAV?$tuple@$$V@1@U?$integer_sequence@_K$0A@@1@U?$integer_sequence@_K$S@1@@Z
	??$?0V?$tuple@AEBH@std@@V?$tuple@$$V@1@$0A@$$Z$S@?$pair@$$CBHV?$vector@U?$pair@USmoothness@manifold@@U12@@std@@V?$allocator@U?$pair@USmoothness@manifold@@U12@@std@@@2@@std@@@std@@QEAA@AEAV?$tuple@AEBH@1@AEAV?$tuple@$$V@1@U?$integer_sequence@_K$0A@@1@U?$integer_sequence@_K$S@1@@Z
	??$?0V?$tuple@AEB_K@std@@V?$tuple@$$V@1@$0A@$$Z$S@?$pair@$$CB_K_K@std@@QEAA@AEAV?$tuple@AEB_K@1@AEAV?$tuple@$$V@1@U?$integer_sequence@_K$0A@@1@U?$integer_sequence@_K$S@1@@Z
	??$?0V?$unique_ptr@UImpl@Manifold@manifold@@U?$default_delete@UImpl@Manifold@manifold@@@std@@@std@@@?$_Ref_count_obj2@VCsgLeafNode@manifold@@@std@@QEAA@$$QEAV?$unique_ptr@UImpl@Manifold@manifold@@U?$default_delete@UImpl@Manifold@manifold@@@std@@@1@@Z
	??$?0V?$vector@V?$vector@U?$Point@N@Clipper2Lib@@V?$allocator@U?$Point@N@Clipper2Lib@@@std@@@std@@V?$allocator@V?$vector@U?$Point@N@Clipper2Lib@@V?$allocator@U?$Point@N@Clipper2Lib@@@std@@@std@@@2@@std@@@?$_Ref_count_obj2@$$CBUPathImpl@manifold@@@std@@QEAA@$$QEAV?$vector@V?$vector@U?$Point@N@Clipper2Lib@@V?$allocator@U?$Point@N@Clipper2Lib@@@std@@@std@@V?$allocator@V?$vector@U?$Point@N@Clipper2Lib@@V?$allocator@U?$Point@N@Clipper2Lib@@@std@@@std@@@2@@1@@Z
	??$?0VCsgLeafNode@manifold@@$0A@@?$shared_ptr@VCsgNode@manifold@@@std@@QEAA@$$QEAV?$shared_ptr@VCsgLeafNode@manifold@@@1@@Z
	??$?0VCsgLeafNode@manifold@@$0A@@?$shared_ptr@VCsgNode@manifold@@@std@@QEAA@AEBV?$shared_ptr@VCsgLeafNode@manifold@@@1@@Z
	??$?0VCsgLeafNode@manifold@@$0A@@?$weak_ptr@VCsgNode@manifold@@@std@@QEAA@AEBV?$shared_ptr@VCsgLeafNode@manifold@@@1@@Z
	??$?0VCsgLeafNode@manifold@@@?$shared_ptr@VCsgLeafNode@manifold@@@std@@QEAA@AEBV01@PEAVCsgLeafNode@manifold@@@Z
	??$?0VCsgNode@manifold@@$0A@@?$shared_ptr@$$CBVCsgNode@manifold@@@std@@QEAA@AEBV?$weak_ptr@VCsgNode@manifold@@@1@@Z
	??$?0VCsgNode@manifold@@$0A@@?$shared_ptr@VCsgNode@manifold@@@std@@QEAA@AEBV?$weak_ptr@VCsgNode@manifold@@@1@@Z
	??$?0VCsgNode@manifold@@@?$shared_ptr@$$CBVCsgOpNode@manifold@@@std@@QEAA@AEBV?$shared_ptr@VCsgNode@manifold@@@1@PEBVCsgOpNode@manifold@@@Z
	??$?0VCsgNode@manifold@@@?$shared_ptr@VCsgLeafNode@manifold@@@std@@QEAA@$$QEAV?$shared_ptr@VCsgNode@manifold@@@1@PEAVCsgLeafNode@manifold@@@Z
	??$?0VCsgNode@manifold@@@?$shared_ptr@VCsgLeafNode@manifold@@@std@@QEAA@AEBV?$shared_ptr@VCsgNode@manifold@@@1@PEAVCsgLeafNode@manifold@@@Z
	??$?0VCsgNode@manifold@@@?$shared_ptr@VCsgOpNode@manifold@@@std@@QEAA@$$QEAV?$shared_ptr@VCsgNode@manifold@@@1@PEAVCsgOpNode@manifold@@@Z
	??$?0VCsgNode@manifold@@@?$shared_ptr@VCsgOpNode@manifold@@@std@@QEAA@AEBV?$shared_ptr@VCsgNode@manifold@@@1@PEAVCsgOpNode@manifold@@@Z
	??$?0VCsgOpNode@manifold@@$0A@@?$shared_ptr@VCsgNode@manifold@@@std@@QEAA@$$QEAV?$shared_ptr@VCsgOpNode@manifold@@@1@@Z
	??$?0VCsgOpNode@manifold@@$0A@@?$weak_ptr@VCsgNode@manifold@@@std@@QEAA@AEBV?$shared_ptr@VCsgOpNode@manifold@@@1@@Z
	??$?0VCsgOpNode@manifold@@@?$shared_ptr@VCsgOpNode@manifold@@@std@@QEAA@AEBV01@PEAVCsgOpNode@manifold@@@Z
	??$?0VManifold@manifold@@V01@$0A@@?$pair@VManifold@manifold@@V12@@std@@QEAA@$$QEAVManifold@manifold@@0@Z
	??$?0W4Shape@Impl@Manifold@manifold@@@?$_Ref_count_obj2@UImpl@Manifold@manifold@@@std@@QEAA@$$QEAW4Shape@Impl@Manifold@manifold@@@Z
	??$?0W4Shape@Impl@Manifold@manifold@@AEAU?$mat@N$02$03@linalg@@@?$_Ref_count_obj2@UImpl@Manifold@manifold@@@std@@QEAA@$$QEAW4Shape@Impl@Manifold@manifold@@AEAU?$mat@N$02$03@linalg@@@Z
	??$?0_J@?$Point@_J@Clipper2Lib@@QEAA@_J0@Z
	??$?0_J@?$_Optimistic_temporary_buffer@H@std@@QEAA@_J@Z
	??$?0_J@?$_Optimistic_temporary_buffer@UHalfedge@manifold@@@std@@QEAA@_J@Z
	??$?0_J@?$_Optimistic_temporary_buffer@_J@std@@QEAA@_J@Z
	??$?0_K$$V$0A@@?$tuple@$$QEA_K@std@@QEAA@$$QEA_K@Z
	??$?0_K@?$_Tuple_val@$$QEA_K@std@@QEAA@$$QEA_K@Z
	??$?0_K@?$_Tuple_val@_K@std@@QEAA@$$QEA_K@Z
	??$?0_K_K$0A@@?$pair@_K_K@std@@QEAA@XZ
	??$?0_N@?$allocator@I@std@@QEAA@AEBV?$allocator@_N@1@@Z
	??$?0_NAEAW4OpType@manifold@@AEAU?$mat@N$02$03@linalg@@AEAPEAV?$vector@V?$shared_ptr@VCsgLeafNode@manifold@@@std@@V?$allocator@V?$shared_ptr@VCsgLeafNode@manifold@@@std@@@2@@std@@AEAPEAV45@V?$shared_ptr@$$CBVCsgOpNode@manifold@@@5@@?$_Ref_count_obj2@UCsgStackFrame@manifold@@@std@@QEAA@$$QEA_NAEAW4OpType@manifold@@AEAU?$mat@N$02$03@linalg@@AEAPEAV?$vector@V?$shared_ptr@VCsgLeafNode@manifold@@@std@@V?$allocator@V?$shared_ptr@VCsgLeafNode@manifold@@@std@@@2@@1@3$$QEAV?$shared_ptr@$$CBVCsgOpNode@manifold@@@1@@Z
	??$?0_NAEBW4OpType@manifold@@AEBUidentity_t@linalg@@$$T$$TV?$shared_ptr@$$CBVCsgOpNode@manifold@@@std@@@?$_Ref_count_obj2@UCsgStackFrame@manifold@@@std@@QEAA@$$QEA_NAEBW4OpType@manifold@@AEBUidentity_t@linalg@@$$QEA$$T3$$QEAV?$shared_ptr@$$CBVCsgOpNode@manifold@@@1@@Z
	??$?4U?$default_delete@V?$Vec@_K@manifold@@@std@@$0A@@?$unique_ptr@V?$Vec@_K@manifold@@U?$default_delete@V?$Vec@_K@manifold@@@std@@@std@@QEAAAEAV01@$$QEAV01@@Z
	??$?4U?$pair@HH@std@@$0A@@?$pair@HH@std@@QEAAAEAU01@$$QEAU01@@Z
	??$?4U?$pair@HH@std@@$0A@@?$pair@HH@std@@QEAAAEAU01@AEBU01@@Z
	??$?4U?$pair@NN@std@@$0A@@?$pair@NN@std@@QEAAAEAU01@$$QEAU01@@Z
	??$?4U?$pair@PEAV?$value_node@U?$pair@$$CBHV?$vector@U?$vec@H$02@linalg@@V?$allocator@U?$vec@H$02@linalg@@@std@@@std@@@std@@_K@d2@detail@tbb@@_N@std@@$0A@@?$pair@PEAV?$value_node@U?$pair@$$CBHV?$vector@U?$vec@H$02@linalg@@V?$allocator@U?$vec@H$02@linalg@@@std@@@std@@@std@@_K@d2@detail@tbb@@_N@std@@QEAAAEAU01@$$QEAU01@@Z
	??$?4U?$pair@USmoothness@manifold@@U12@@std@@$0A@@?$pair@USmoothness@manifold@@U12@@std@@QEAAAEAU01@$$QEAU01@@Z
	??$?4U?$pair@_K_K@std@@$0A@@?$pair@_K_K@std@@QEAAAEAU01@$$QEAU01@@Z
	??$?4V?$Vec@H@manifold@@$0A@@?$tuple@AEAV?$Vec@H@manifold@@@std@@QEAAAEAV01@$$QEAV?$tuple@V?$Vec@H@manifold@@@1@@Z
	??$?4V?$Vec@H@manifold@@V01@$0A@@?$tuple@AEAV?$Vec@H@manifold@@AEAV12@@std@@QEAAAEAV01@$$QEAV?$tuple@V?$Vec@H@manifold@@V12@@1@@Z
	??$?4V?$Vec@H@manifold@@V?$Vec@N@1@$0A@@?$tuple@AEAV?$Vec@H@manifold@@AEAV?$Vec@N@2@@std@@QEAAAEAV01@$$QEAV?$tuple@V?$Vec@H@manifold@@V?$Vec@N@2@@1@@Z
	??$?4V?$Vec@H@manifold@@V?$Vec@U?$vec@N$02@linalg@@@1@$0A@@?$tuple@AEAV?$Vec@H@manifold@@AEAV?$Vec@U?$vec@N$02@linalg@@@2@@std@@QEAAAEAV01@$$QEAV?$tuple@V?$Vec@H@manifold@@V?$Vec@U?$vec@N$02@linalg@@@2@@1@@Z
	??$?4V?$Vec@H@manifold@@V?$Vec@U?$vec@N$03@linalg@@@1@$0A@@?$tuple@AEAV?$Vec@H@manifold@@AEAV?$Vec@U?$vec@N$03@linalg@@@2@@std@@QEAAAEAV01@$$QEAV?$tuple@V?$Vec@H@manifold@@V?$Vec@U?$vec@N$03@linalg@@@2@@1@@Z
	??$?4V?$Vec@N@manifold@@$0A@@?$tuple@AEAV?$Vec@N@manifold@@@std@@QEAAAEAV01@$$QEAV?$tuple@V?$Vec@N@manifold@@@1@@Z
	??$?4V?$Vec@U?$vec@N$02@linalg@@@manifold@@$0A@@?$tuple@AEAV?$Vec@U?$vec@N$02@linalg@@@manifold@@@std@@QEAAAEAV01@$$QEAV?$tuple@V?$Vec@U?$vec@N$02@linalg@@@manifold@@@1@@Z
	??$?4V?$Vec@U?$vec@N$03@linalg@@@manifold@@$0A@@?$tuple@AEAV?$Vec@U?$vec@N$03@linalg@@@manifold@@@std@@QEAAAEAV01@$$QEAV?$tuple@V?$Vec@U?$vec@N$03@linalg@@@manifold@@@1@@Z
	??$?4V?$Vec@UHalfedge@manifold@@@manifold@@V?$Vec@U?$vec@N$02@linalg@@@1@$0A@@?$tuple@AEAV?$Vec@UHalfedge@manifold@@@manifold@@AEAV?$Vec@U?$vec@N$02@linalg@@@2@@std@@QEAAAEAV01@$$QEAU?$pair@V?$Vec@UHalfedge@manifold@@@manifold@@V?$Vec@U?$vec@N$02@linalg@@@2@@1@@Z
	??$?4VCsgLeafNode@manifold@@@?$shared_ptr@VCsgNode@manifold@@@std@@QEAAAEAV01@$$QEAV?$shared_ptr@VCsgLeafNode@manifold@@@1@@Z
	??$?4VCsgLeafNode@manifold@@@?$weak_ptr@VCsgNode@manifold@@@std@@QEAAAEAV01@AEBV?$shared_ptr@VCsgLeafNode@manifold@@@1@@Z
	??$?4VCsgOpNode@manifold@@@?$weak_ptr@VCsgNode@manifold@@@std@@QEAAAEAV01@AEBV?$shared_ptr@VCsgOpNode@manifold@@@1@@Z
	??$?7U?$vec@_N$03@linalg@@@linalg@@YA?AU?$vec@_N$03@0@AEBU10@@Z
	??$?8$$A6AXPEANU?$vec@N$02@linalg@@PEBN@Z@std@@YA_NAEBV?$function@$$A6AXPEANU?$vec@N$02@linalg@@PEBN@Z@0@$$T@Z
	??$?8H@detail@linalg@@YA_NAEBU?$ord@H@01@$$T@Z
	??$?8N@detail@linalg@@YA_NAEBU?$ord@N@01@$$T@Z
	??$?8U?$mat@N$01$02@linalg@@U01@@linalg@@YA_NAEBU?$mat@N$01$02@0@0@Z
	??$?8U?$mat@N$02$03@linalg@@U01@@linalg@@YA_NAEBU?$mat@N$02$03@0@0@Z
	??$?8U?$vec@H$02@linalg@@U01@@linalg@@YA_NAEBU?$vec@H$02@0@0@Z
	??$?8U?$vec@H$03@linalg@@U01@@linalg@@YA_NAEBU?$vec@H$03@0@0@Z
	??$?8V?$concurrent_unordered_base@U?$concurrent_unordered_map_traits@HV?$vector@U?$vec@H$02@linalg@@V?$allocator@U?$vec@H$02@linalg@@@std@@@std@@U?$hash@H@2@U?$equal_to@H@2@V?$tbb_allocator@U?$pair@$$CBHV?$vector@U?$vec@H$02@linalg@@V?$allocator@U?$vec@H$02@linalg@@@std@@@std@@@std@@@d1@detail@tbb@@$0A@@d2@detail@tbb@@@d2@detail@tbb@@U?$pair@$$CBHV?$vector@U?$vec@H$02@linalg@@V?$allocator@U?$vec@H$02@linalg@@@std@@@std@@@std@@U45@@d2@detail@tbb@@YA_NAEBV?$solist_iterator@V?$concurrent_unordered_base@U?$concurrent_unordered_map_traits@HV?$vector@U?$vec@H$02@linalg@@V?$allocator@U?$vec@H$02@linalg@@@std@@@std@@U?$hash@H@2@U?$equal_to@H@2@V?$tbb_allocator@U?$pair@$$CBHV?$vector@U?$vec@H$02@linalg@@V?$allocator@U?$vec@H$02@linalg@@@std@@@std@@@std@@@d1@detail@tbb@@$0A@@d2@detail@tbb@@@d2@detail@tbb@@U?$pair@$$CBHV?$vector@U?$vec@H$02@linalg@@V?$allocator@U?$vec@H$02@linalg@@@std@@@std@@@std@@@012@0@Z
	??$?8V?$concurrent_vector@U?$padded@U?$ets_element@U?$Hist@_K$07@details@manifold@@@d1@detail@tbb@@$0IA@@d0@detail@tbb@@V?$cache_aligned_allocator@U?$padded@U?$ets_element@U?$Hist@_K$07@details@manifold@@@d1@detail@tbb@@$0IA@@d0@detail@tbb@@@d1@34@@d1@detail@tbb@@U?$Hist@_K$07@details@manifold@@U456@@d1@detail@tbb@@YA_NAEBV?$enumerable_thread_specific_iterator@V?$concurrent_vector@U?$padded@U?$ets_element@U?$Hist@_K$07@details@manifold@@@d1@detail@tbb@@$0IA@@d0@detail@tbb@@V?$cache_aligned_allocator@U?$padded@U?$ets_element@U?$Hist@_K$07@details@manifold@@@d1@detail@tbb@@$0IA@@d0@detail@tbb@@@d1@34@@d1@detail@tbb@@U?$Hist@_K$07@details@manifold@@@012@0@Z
	??$?8V?$concurrent_vector@U?$padded@U?$ets_element@VSparseIndices@manifold@@@d1@detail@tbb@@$0IA@@d0@detail@tbb@@V?$cache_aligned_allocator@U?$padded@U?$ets_element@VSparseIndices@manifold@@@d1@detail@tbb@@$0IA@@d0@detail@tbb@@@d1@34@@d1@detail@tbb@@VSparseIndices@manifold@@V45@@d1@detail@tbb@@YA_NAEBV?$enumerable_thread_specific_iterator@V?$concurrent_vector@U?$padded@U?$ets_element@VSparseIndices@manifold@@@d1@detail@tbb@@$0IA@@d0@detail@tbb@@V?$cache_aligned_allocator@U?$padded@U?$ets_element@VSparseIndices@manifold@@@d1@detail@tbb@@$0IA@@d0@detail@tbb@@@d1@34@@d1@detail@tbb@@VSparseIndices@manifold@@@012@0@Z
	??$?9N@detail@linalg@@YA_NAEBU?$ord@N@01@$$T@Z
	??$?9U?$vec@N$01@linalg@@U01@@linalg@@YA_NAEBU?$vec@N$01@0@0@Z
	??$?9U?$vec@N$02@linalg@@U01@@linalg@@YA_NAEBU?$vec@N$02@0@0@Z
	??$?9V?$_Vector_iterator@V?$_Vector_val@U?$_Simple_types@U?$vec@N$01@linalg@@@std@@@std@@@std@@V01@@std@@YA_NAEBV?$reverse_iterator@V?$_Vector_iterator@V?$_Vector_val@U?$_Simple_types@U?$vec@N$01@linalg@@@std@@@std@@@std@@@0@0@Z
	??$?9V?$_Vector_iterator@V?$_Vector_val@U?$_Simple_types@V?$vector@V?$vector@U?$Point@N@Clipper2Lib@@V?$allocator@U?$Point@N@Clipper2Lib@@@std@@@std@@V?$allocator@V?$vector@U?$Point@N@Clipper2Lib@@V?$allocator@U?$Point@N@Clipper2Lib@@@std@@@std@@@2@@std@@@std@@@std@@@std@@V01@@std@@YA_NAEBV?$reverse_iterator@V?$_Vector_iterator@V?$_Vector_val@U?$_Simple_types@V?$vector@V?$vector@U?$Point@N@Clipper2Lib@@V?$allocator@U?$Point@N@Clipper2Lib@@@std@@@std@@V?$allocator@V?$vector@U?$Point@N@Clipper2Lib@@V?$allocator@U?$Point@N@Clipper2Lib@@@std@@@std@@@2@@std@@@std@@@std@@@std@@@0@0@Z
	??$?9V?$concurrent_vector@U?$padded@U?$ets_element@U?$Hist@_K$07@details@manifold@@@d1@detail@tbb@@$0IA@@d0@detail@tbb@@V?$cache_aligned_allocator@U?$padded@U?$ets_element@U?$Hist@_K$07@details@manifold@@@d1@detail@tbb@@$0IA@@d0@detail@tbb@@@d1@34@@d1@detail@tbb@@U?$Hist@_K$07@details@manifold@@U456@@d1@detail@tbb@@YA_NAEBV?$enumerable_thread_specific_iterator@V?$concurrent_vector@U?$padded@U?$ets_element@U?$Hist@_K$07@details@manifold@@@d1@detail@tbb@@$0IA@@d0@detail@tbb@@V?$cache_aligned_allocator@U?$padded@U?$ets_element@U?$Hist@_K$07@details@manifold@@@d1@detail@tbb@@$0IA@@d0@detail@tbb@@@d1@34@@d1@detail@tbb@@U?$Hist@_K$07@details@manifold@@@012@0@Z
	??$?9V?$concurrent_vector@U?$padded@U?$ets_element@VSparseIndices@manifold@@@d1@detail@tbb@@$0IA@@d0@detail@tbb@@V?$cache_aligned_allocator@U?$padded@U?$ets_element@VSparseIndices@manifold@@@d1@detail@tbb@@$0IA@@d0@detail@tbb@@@d1@34@@d1@detail@tbb@@VSparseIndices@manifold@@V45@@d1@detail@tbb@@YA_NAEBV?$enumerable_thread_specific_iterator@V?$concurrent_vector@U?$padded@U?$ets_element@VSparseIndices@manifold@@@d1@detail@tbb@@$0IA@@d0@detail@tbb@@V?$cache_aligned_allocator@U?$padded@U?$ets_element@VSparseIndices@manifold@@@d1@detail@tbb@@$0IA@@d0@detail@tbb@@@d1@34@@d1@detail@tbb@@VSparseIndices@manifold@@@012@0@Z
	??$?9VCsgLeafNode@manifold@@@std@@YA_NAEBV?$shared_ptr@VCsgLeafNode@manifold@@@0@$$T@Z
	??$?C$$CBUImpl@Manifold@manifold@@$0A@@?$shared_ptr@$$CBUImpl@Manifold@manifold@@@std@@QEBAPEBUImpl@Manifold@manifold@@XZ
	??$?C$$CBUPathImpl@manifold@@$0A@@?$shared_ptr@$$CBUPathImpl@manifold@@@std@@QEBAPEBUPathImpl@manifold@@XZ
	??$?C$$CBVCsgOpNode@manifold@@$0A@@?$shared_ptr@$$CBVCsgOpNode@manifold@@@std@@QEBAPEBVCsgOpNode@manifold@@XZ
	??$?CUCsgStackFrame@manifold@@$0A@@?$shared_ptr@UCsgStackFrame@manifold@@@std@@QEBAPEAUCsgStackFrame@manifold@@XZ
	??$?CUImpl@Manifold@manifold@@$0A@@?$shared_ptr@UImpl@Manifold@manifold@@@std@@QEBAPEAUImpl@Manifold@manifold@@XZ
	??$?CVCsgLeafNode@manifold@@$0A@@?$shared_ptr@VCsgLeafNode@manifold@@@std@@QEBAPEAVCsgLeafNode@manifold@@XZ
	??$?CVCsgNode@manifold@@$0A@@?$shared_ptr@VCsgNode@manifold@@@std@@QEBAPEAVCsgNode@manifold@@XZ
	??$?CVCsgOpNode@manifold@@$0A@@?$shared_ptr@VCsgOpNode@manifold@@@std@@QEBAPEAVCsgOpNode@manifold@@XZ
	??$?D$$CBUImpl@Manifold@manifold@@$0A@@?$shared_ptr@$$CBUImpl@Manifold@manifold@@@std@@QEBAAEBUImpl@Manifold@manifold@@XZ
	??$?DNU?$mat@N$01$01@linalg@@@linalg@@YA?A_PAEBNAEBU?$mat@N$01$01@0@@Z
	??$?DNU?$mat@N$02$02@linalg@@@linalg@@YA?A_PAEBNAEBU?$mat@N$02$02@0@@Z
	??$?DNU?$vec@N$01@linalg@@@linalg@@YA?A_PAEBNAEBU?$vec@N$01@0@@Z
	??$?DNU?$vec@N$02@linalg@@@linalg@@YA?A_PAEBNAEBU?$vec@N$02@0@@Z
	??$?DNU?$vec@N$03@linalg@@@linalg@@YA?A_PAEBNAEBU?$vec@N$03@0@@Z
	??$?DU?$mat@N$01$01@linalg@@U01@@linalg@@YA?A_PAEBU?$mat@N$01$01@0@0@Z
	??$?DU?$mat@N$01$01@linalg@@U?$vec@N$01@1@@linalg@@YA?A_PAEBU?$mat@N$01$01@0@AEBU?$vec@N$01@0@@Z
	??$?DU?$mat@N$01$02@linalg@@U?$mat@N$02$02@1@@linalg@@YA?A_PAEBU?$mat@N$01$02@0@AEBU?$mat@N$02$02@0@@Z
	??$?DU?$mat@N$01$02@linalg@@U?$vec@N$02@1@@linalg@@YA?A_PAEBU?$mat@N$01$02@0@AEBU?$vec@N$02@0@@Z
	??$?DU?$mat@N$02$02@linalg@@N@linalg@@YA?A_PAEBU?$mat@N$02$02@0@AEBN@Z
	??$?DU?$mat@N$02$02@linalg@@U01@@linalg@@YA?A_PAEBU?$mat@N$02$02@0@0@Z
	??$?DU?$mat@N$02$02@linalg@@U?$vec@N$02@1@@linalg@@YA?A_PAEBU?$mat@N$02$02@0@AEBU?$vec@N$02@0@@Z
	??$?DU?$mat@N$02$03@linalg@@U?$mat@N$03$03@1@@linalg@@YA?A_PAEBU?$mat@N$02$03@0@AEBU?$mat@N$03$03@0@@Z
	??$?DU?$mat@N$02$03@linalg@@U?$vec@N$03@1@@linalg@@YA?A_PAEBU?$mat@N$02$03@0@AEBU?$vec@N$03@0@@Z
	??$?DU?$vec@N$01@linalg@@N@linalg@@YA?A_PAEBU?$vec@N$01@0@AEBN@Z
	??$?DU?$vec@N$01@linalg@@U01@@linalg@@YA?A_PAEBU?$vec@N$01@0@0@Z
	??$?DU?$vec@N$02@linalg@@N@linalg@@YA?A_PAEBU?$vec@N$02@0@AEBN@Z
	??$?DU?$vec@N$02@linalg@@U01@@linalg@@YA?A_PAEBU?$vec@N$02@0@0@Z
	??$?DU?$vec@N$03@linalg@@U01@@linalg@@YA?A_PAEBU?$vec@N$03@0@0@Z
	??$?DVCsgLeafNode@manifold@@$0A@@?$shared_ptr@VCsgLeafNode@manifold@@@std@@QEBAAEAVCsgLeafNode@manifold@@XZ
	??$?GNU?$vec@N$02@linalg@@@linalg@@YA?AU?$vec@N$02@0@AEBNAEBU10@@Z
	??$?GU?$mat@N$01$01@linalg@@U01@@linalg@@YA?AU?$mat@N$01$01@0@AEBU10@0@Z
	??$?GU?$mat@N$02$02@linalg@@U01@@linalg@@YA?AU?$mat@N$02$02@0@AEBU10@0@Z
	??$?GU?$vec@H$02@linalg@@H@linalg@@YA?AU?$vec@H$02@0@AEBU10@AEBH@Z
	??$?GU?$vec@H$02@linalg@@U01@@linalg@@YA?AU?$vec@H$02@0@AEBU10@0@Z
	??$?GU?$vec@H$03@linalg@@H@linalg@@YA?AU?$vec@H$03@0@AEBU10@AEBH@Z
	??$?GU?$vec@H$03@linalg@@U01@@linalg@@YA?AU?$vec@H$03@0@AEBU10@0@Z
	??$?GU?$vec@N$01@linalg@@U01@@linalg@@YA?AU?$vec@N$01@0@AEBU10@0@Z
	??$?GU?$vec@N$02@linalg@@@linalg@@YA?AU?$vec@N$02@0@AEBU10@@Z
	??$?GU?$vec@N$02@linalg@@H@linalg@@YA?AU?$vec@N$02@0@AEBU10@AEBH@Z
	??$?GU?$vec@N$02@linalg@@N@linalg@@YA?AU?$vec@N$02@0@AEBU10@AEBN@Z
	??$?GU?$vec@N$02@linalg@@U01@@linalg@@YA?AU?$vec@N$02@0@AEBU10@0@Z
	??$?GU?$vec@N$03@linalg@@@linalg@@YA?AU?$vec@N$03@0@AEBU10@@Z
	??$?HNU?$vec@N$03@linalg@@@linalg@@YA?AU?$vec@N$03@0@AEBNAEBU10@@Z
	??$?HU?$vec@H$02@linalg@@H@linalg@@YA?AU?$vec@H$02@0@AEBU10@AEBH@Z
	??$?HU?$vec@H$03@linalg@@H@linalg@@YA?AU?$vec@H$03@0@AEBU10@AEBH@Z
	??$?HU?$vec@H$03@linalg@@U01@@linalg@@YA?AU?$vec@H$03@0@AEBU10@0@Z
	??$?HU?$vec@N$01@linalg@@U01@@linalg@@YA?AU?$vec@N$01@0@AEBU10@0@Z
	??$?HU?$vec@N$02@linalg@@H@linalg@@YA?AU?$vec@N$02@0@AEBU10@AEBH@Z
	??$?HU?$vec@N$02@linalg@@N@linalg@@YA?AU?$vec@N$02@0@AEBU10@AEBN@Z
	??$?HU?$vec@N$02@linalg@@U01@@linalg@@YA?AU?$vec@N$02@0@AEBU10@0@Z
	??$?HU?$vec@N$03@linalg@@U01@@linalg@@YA?AU?$vec@N$03@0@AEBU10@0@Z
	??$?KU?$mat@N$02$02@linalg@@N@linalg@@YA?AU?$mat@N$02$02@0@AEBU10@AEBN@Z
	??$?KU?$vec@N$01@linalg@@N@linalg@@YA?AU?$vec@N$01@0@AEBU10@AEBN@Z
	??$?KU?$vec@N$02@linalg@@H@linalg@@YA?AU?$vec@N$02@0@AEBU10@AEBH@Z
	??$?KU?$vec@N$02@linalg@@N@linalg@@YA?AU?$vec@N$02@0@AEBU10@AEBN@Z
	??$?KU?$vec@N$02@linalg@@U01@@linalg@@YA?AU?$vec@N$02@0@AEBU10@0@Z
	??$?KU?$vec@N$03@linalg@@N@linalg@@YA?AU?$vec@N$03@0@AEBU10@AEBN@Z
	??$?LU?$vec@H$03@linalg@@H@linalg@@YA?AU?$vec@H$03@0@AEBU10@AEBH@Z
	??$?MHH@std@@YA_NAEBU?$pair@HH@0@0@Z
	??$?R$$CBU?$mat@N$01$01@linalg@@@?$getter@$00@detail@linalg@@QEBA?AU?$vec@N$01@2@AEBU?$mat@N$01$01@2@@Z
	??$?R$$CBU?$mat@N$01$01@linalg@@@?$getter@$0A@@detail@linalg@@QEBA?AU?$vec@N$01@2@AEBU?$mat@N$01$01@2@@Z
	??$?R$$CBU?$mat@N$02$02@linalg@@@?$getter@$00@detail@linalg@@QEBA?AU?$vec@N$02@2@AEBU?$mat@N$02$02@2@@Z
	??$?R$$CBU?$mat@N$02$02@linalg@@@?$getter@$01@detail@linalg@@QEBA?AU?$vec@N$02@2@AEBU?$mat@N$02$02@2@@Z
	??$?R$$CBU?$mat@N$02$02@linalg@@@?$getter@$0A@@detail@linalg@@QEBA?AU?$vec@N$02@2@AEBU?$mat@N$02$02@2@@Z
	??$?R$$CBU?$mat@N$02$03@linalg@@@?$getter@$00@detail@linalg@@QEBA?AU?$vec@N$02@2@AEBU?$mat@N$02$03@2@@Z
	??$?R$$CBU?$mat@N$02$03@linalg@@@?$getter@$01@detail@linalg@@QEBA?AU?$vec@N$02@2@AEBU?$mat@N$02$03@2@@Z
	??$?R$$CBU?$mat@N$02$03@linalg@@@?$getter@$02@detail@linalg@@QEBA?AU?$vec@N$02@2@AEBU?$mat@N$02$03@2@@Z
	??$?R$$CBU?$mat@N$02$03@linalg@@@?$getter@$0A@@detail@linalg@@QEBA?AU?$vec@N$02@2@AEBU?$mat@N$02$03@2@@Z
	??$?R$$CBU?$vec@H$02@linalg@@@?$getter@$00@detail@linalg@@QEBAHAEBU?$vec@H$02@2@@Z
	??$?R$$CBU?$vec@H$02@linalg@@@?$getter@$01@detail@linalg@@QEBAHAEBU?$vec@H$02@2@@Z
	??$?R$$CBU?$vec@H$02@linalg@@@?$getter@$0A@@detail@linalg@@QEBAHAEBU?$vec@H$02@2@@Z
	??$?R$$CBU?$vec@H$03@linalg@@@?$getter@$00@detail@linalg@@QEBAHAEBU?$vec@H$03@2@@Z
	??$?R$$CBU?$vec@H$03@linalg@@@?$getter@$01@detail@linalg@@QEBAHAEBU?$vec@H$03@2@@Z
	??$?R$$CBU?$vec@H$03@linalg@@@?$getter@$02@detail@linalg@@QEBAHAEBU?$vec@H$03@2@@Z
	??$?R$$CBU?$vec@H$03@linalg@@@?$getter@$0A@@detail@linalg@@QEBAHAEBU?$vec@H$03@2@@Z
	??$?R$$CBU?$vec@N$01@linalg@@@?$getter@$00@detail@linalg@@QEBANAEBU?$vec@N$01@2@@Z
	??$?R$$CBU?$vec@N$01@linalg@@@?$getter@$0A@@detail@linalg@@QEBANAEBU?$vec@N$01@2@@Z
	??$?R$$CBU?$vec@N$02@linalg@@@?$getter@$00@detail@linalg@@QEBANAEBU?$vec@N$02@2@@Z
	??$?R$$CBU?$vec@N$02@linalg@@@?$getter@$01@detail@linalg@@QEBANAEBU?$vec@N$02@2@@Z
	??$?R$$CBU?$vec@N$02@linalg@@@?$getter@$0A@@detail@linalg@@QEBANAEBU?$vec@N$02@2@@Z
	??$?R$$CBU?$vec@N$03@linalg@@@?$getter@$00@detail@linalg@@QEBANAEBU?$vec@N$03@2@@Z
	??$?R$$CBU?$vec@N$03@linalg@@@?$getter@$01@detail@linalg@@QEBANAEBU?$vec@N$03@2@@Z
	??$?R$$CBU?$vec@N$03@linalg@@@?$getter@$02@detail@linalg@@QEBANAEBU?$vec@N$03@2@@Z
	??$?R$$CBU?$vec@N$03@linalg@@@?$getter@$0A@@detail@linalg@@QEBANAEBU?$vec@N$03@2@@Z
	??$?R$$CBU?$vec@_N$03@linalg@@@?$getter@$00@detail@linalg@@QEBA_NAEBU?$vec@_N$03@2@@Z
	??$?R$$CBU?$vec@_N$03@linalg@@@?$getter@$01@detail@linalg@@QEBA_NAEBU?$vec@_N$03@2@@Z
	??$?R$$CBU?$vec@_N$03@linalg@@@?$getter@$02@detail@linalg@@QEBA_NAEBU?$vec@_N$03@2@@Z
	??$?R$$CBU?$vec@_N$03@linalg@@@?$getter@$0A@@detail@linalg@@QEBA_NAEBU?$vec@_N$03@2@@Z
	??$?RAEAV?$blocked_range@_K@d1@detail@tbb@@Ufinal_scan_tag@123@@?$reference_wrapper@U?$final_sum@V?$blocked_range@_K@d1@detail@tbb@@U?$CopyIfScanBody@PEAHPEAHV<lambda_5c12ef6d5b86dd74cff0ad6bf5f99d2e>@@@details@manifold@@@d1@detail@tbb@@@std@@QEBAXAEAV?$blocked_range@_K@d1@detail@tbb@@$$QEAUfinal_scan_tag@345@@Z
	??$?RAEAV?$blocked_range@_K@d1@detail@tbb@@Ufinal_scan_tag@123@@?$reference_wrapper@U?$final_sum@V?$blocked_range@_K@d1@detail@tbb@@U?$CopyIfScanBody@PEAUTmpEdge@manifold@@PEAU12@V<lambda_1d1c6bcdb0a6830adb484fa5460103d0>@@@details@manifold@@@d1@detail@tbb@@@std@@QEBAXAEAV?$blocked_range@_K@d1@detail@tbb@@$$QEAUfinal_scan_tag@345@@Z
	??$?RAEAV?$blocked_range@_K@d1@detail@tbb@@Ufinal_scan_tag@123@@?$reference_wrapper@U?$final_sum@V?$blocked_range@_K@d1@detail@tbb@@U?$CopyIfScanBody@PEA_JPEA_JV<lambda_09fe494a54b81d6c69236683cf5b4f26>@@@details@manifold@@@d1@detail@tbb@@@std@@QEBAXAEAV?$blocked_range@_K@d1@detail@tbb@@$$QEAUfinal_scan_tag@345@@Z
	??$?RAEAV?$blocked_range@_K@d1@detail@tbb@@Ufinal_scan_tag@123@@?$reference_wrapper@U?$final_sum@V?$blocked_range@_K@d1@detail@tbb@@U?$CopyIfScanBody@U?$CountingIterator@_K@manifold@@PEAHV<lambda_15275a5507336b257891fcec3ad173af>@@@details@manifold@@@d1@detail@tbb@@@std@@QEBAXAEAV?$blocked_range@_K@d1@detail@tbb@@$$QEAUfinal_scan_tag@345@@Z
	??$?RAEAV?$blocked_range@_K@d1@detail@tbb@@Ufinal_scan_tag@123@@?$reference_wrapper@U?$final_sum@V?$blocked_range@_K@d1@detail@tbb@@U?$CopyIfScanBody@U?$CountingIterator@_K@manifold@@PEAHV<lambda_4107a9b620f6bac47b0532e36b1e37da>@@@details@manifold@@@d1@detail@tbb@@@std@@QEBAXAEAV?$blocked_range@_K@d1@detail@tbb@@$$QEAUfinal_scan_tag@345@@Z
	??$?RAEAV?$blocked_range@_K@d1@detail@tbb@@Ufinal_scan_tag@123@@?$reference_wrapper@U?$final_sum@V?$blocked_range@_K@d1@detail@tbb@@U?$CopyIfScanBody@U?$CountingIterator@_K@manifold@@PEAHV<lambda_f7d217123976fdede42126514b35aac9>@@@details@manifold@@@d1@detail@tbb@@@std@@QEBAXAEAV?$blocked_range@_K@d1@detail@tbb@@$$QEAUfinal_scan_tag@345@@Z
	??$?RAEAV?$blocked_range@_K@d1@detail@tbb@@Ufinal_scan_tag@123@@?$reference_wrapper@U?$final_sum@V?$blocked_range@_K@d1@detail@tbb@@U?$ScanBody@HPEAHPEAHU?$plus@H@std@@@details@manifold@@@d1@detail@tbb@@@std@@QEBAXAEAV?$blocked_range@_K@d1@detail@tbb@@$$QEAUfinal_scan_tag@345@@Z
	??$?RAEAV?$blocked_range@_K@d1@detail@tbb@@Ufinal_scan_tag@123@@?$reference_wrapper@U?$final_sum@V?$blocked_range@_K@d1@detail@tbb@@U?$ScanBody@_KPEA_KPEA_KU?$plus@_K@std@@@details@manifold@@@d1@detail@tbb@@@std@@QEBAXAEAV?$blocked_range@_K@d1@detail@tbb@@$$QEAUfinal_scan_tag@345@@Z
	??$?RAEAV?$blocked_range@_K@d1@detail@tbb@@Ufinal_scan_tag@123@@?$reference_wrapper@U?$final_sum@V?$blocked_range@_K@d1@detail@tbb@@V?$lambda_scan_body@V?$blocked_range@_K@d1@detail@tbb@@HV<lambda_fc34ceecbeedaf8547ac86e00c016eac>@@U?$plus@H@std@@@234@@d1@detail@tbb@@@std@@QEBAXAEAV?$blocked_range@_K@d1@detail@tbb@@$$QEAUfinal_scan_tag@345@@Z
	??$?RAEAV?$blocked_range@_K@d1@detail@tbb@@Upre_scan_tag@123@@?$reference_wrapper@U?$final_sum@V?$blocked_range@_K@d1@detail@tbb@@U?$CopyIfScanBody@PEAHPEAHV<lambda_5c12ef6d5b86dd74cff0ad6bf5f99d2e>@@@details@manifold@@@d1@detail@tbb@@@std@@QEBAXAEAV?$blocked_range@_K@d1@detail@tbb@@$$QEAUpre_scan_tag@345@@Z
	??$?RAEAV?$blocked_range@_K@d1@detail@tbb@@Upre_scan_tag@123@@?$reference_wrapper@U?$final_sum@V?$blocked_range@_K@d1@detail@tbb@@U?$CopyIfScanBody@PEAUTmpEdge@manifold@@PEAU12@V<lambda_1d1c6bcdb0a6830adb484fa5460103d0>@@@details@manifold@@@d1@detail@tbb@@@std@@QEBAXAEAV?$blocked_range@_K@d1@detail@tbb@@$$QEAUpre_scan_tag@345@@Z
	??$?RAEAV?$blocked_range@_K@d1@detail@tbb@@Upre_scan_tag@123@@?$reference_wrapper@U?$final_sum@V?$blocked_range@_K@d1@detail@tbb@@U?$CopyIfScanBody@PEA_JPEA_JV<lambda_09fe494a54b81d6c69236683cf5b4f26>@@@details@manifold@@@d1@detail@tbb@@@std@@QEBAXAEAV?$blocked_range@_K@d1@detail@tbb@@$$QEAUpre_scan_tag@345@@Z
	??$?RAEAV?$blocked_range@_K@d1@detail@tbb@@Upre_scan_tag@123@@?$reference_wrapper@U?$final_sum@V?$blocked_range@_K@d1@detail@tbb@@U?$CopyIfScanBody@U?$CountingIterator@_K@manifold@@PEAHV<lambda_15275a5507336b257891fcec3ad173af>@@@details@manifold@@@d1@detail@tbb@@@std@@QEBAXAEAV?$blocked_range@_K@d1@detail@tbb@@$$QEAUpre_scan_tag@345@@Z
	??$?RAEAV?$blocked_range@_K@d1@detail@tbb@@Upre_scan_tag@123@@?$reference_wrapper@U?$final_sum@V?$blocked_range@_K@d1@detail@tbb@@U?$CopyIfScanBody@U?$CountingIterator@_K@manifold@@PEAHV<lambda_4107a9b620f6bac47b0532e36b1e37da>@@@details@manifold@@@d1@detail@tbb@@@std@@QEBAXAEAV?$blocked_range@_K@d1@detail@tbb@@$$QEAUpre_scan_tag@345@@Z
	??$?RAEAV?$blocked_range@_K@d1@detail@tbb@@Upre_scan_tag@123@@?$reference_wrapper@U?$final_sum@V?$blocked_range@_K@d1@detail@tbb@@U?$CopyIfScanBody@U?$CountingIterator@_K@manifold@@PEAHV<lambda_f7d217123976fdede42126514b35aac9>@@@details@manifold@@@d1@detail@tbb@@@std@@QEBAXAEAV?$blocked_range@_K@d1@detail@tbb@@$$QEAUpre_scan_tag@345@@Z
	??$?RAEAV?$blocked_range@_K@d1@detail@tbb@@Upre_scan_tag@123@@?$reference_wrapper@U?$final_sum@V?$blocked_range@_K@d1@detail@tbb@@U?$ScanBody@HPEAHPEAHU?$plus@H@std@@@details@manifold@@@d1@detail@tbb@@@std@@QEBAXAEAV?$blocked_range@_K@d1@detail@tbb@@$$QEAUpre_scan_tag@345@@Z
	??$?RAEAV?$blocked_range@_K@d1@detail@tbb@@Upre_scan_tag@123@@?$reference_wrapper@U?$final_sum@V?$blocked_range@_K@d1@detail@tbb@@U?$ScanBody@_KPEA_KPEA_KU?$plus@_K@std@@@details@manifold@@@d1@detail@tbb@@@std@@QEBAXAEAV?$blocked_range@_K@d1@detail@tbb@@$$QEAUpre_scan_tag@345@@Z
	??$?RAEAV?$blocked_range@_K@d1@detail@tbb@@Upre_scan_tag@123@@?$reference_wrapper@U?$final_sum@V?$blocked_range@_K@d1@detail@tbb@@V?$lambda_scan_body@V?$blocked_range@_K@d1@detail@tbb@@HV<lambda_fc34ceecbeedaf8547ac86e00c016eac>@@U?$plus@H@std@@@234@@d1@detail@tbb@@@std@@QEBAXAEAV?$blocked_range@_K@d1@detail@tbb@@$$QEAUpre_scan_tag@345@@Z
	??$?RAEA_JAEA_J@?$equal_to@X@std@@QEBA_NAEA_J0@Z
	??$?RAEA_JAEA_J@?$less@X@std@@QEBA_NAEA_J0@Z
	??$?RH@?$_Uhash_compare@HU?$hash@H@std@@U?$equal_to@H@2@@std@@QEBA_KAEBH@Z
	??$?RH@std_log2@detail@linalg@@QEBANH@Z
	??$?RHAEAH@?$plus@X@std@@QEBAH$$QEAHAEAH@Z
	??$?RHH@?$_Uhash_compare@HU?$hash@H@std@@U?$equal_to@H@2@@std@@QEBA_NAEBH0@Z
	??$?RHH@?$plus@X@std@@QEBAH$$QEAH0@Z
	??$?RHH@max@detail@linalg@@QEBAHHH@Z
	??$?RHH@min@detail@linalg@@QEBAHHH@Z
	??$?RHH@op_add@detail@linalg@@QEBAHHH@Z
	??$?RHH@op_gt@detail@linalg@@QEBA_NHH@Z
	??$?RHH@op_mod@detail@linalg@@QEBAHHH@Z
	??$?RHH@op_sub@detail@linalg@@QEBAHHH@Z
	??$?RN@op_neg@detail@linalg@@QEBANN@Z
	??$?RN@std_abs@detail@linalg@@QEBANN@Z
	??$?RN@std_acos@detail@linalg@@QEBANN@Z
	??$?RN@std_cos@detail@linalg@@QEBANN@Z
	??$?RN@std_isfinite@detail@linalg@@QEBA_NN@Z
	??$?RN@std_sqrt@detail@linalg@@QEBANN@Z
	??$?RNH@op_add@detail@linalg@@QEBANNH@Z
	??$?RNH@op_div@detail@linalg@@QEBANNH@Z
	??$?RNH@op_sub@detail@linalg@@QEBANNH@Z
	??$?RNN@max@detail@linalg@@QEBANNN@Z
	??$?RNN@min@detail@linalg@@QEBANNN@Z
	??$?RNN@op_add@detail@linalg@@QEBANNN@Z
	??$?RNN@op_div@detail@linalg@@QEBANNN@Z
	??$?RNN@op_lt@detail@linalg@@QEBA_NNN@Z
	??$?RNN@op_mul@detail@linalg@@QEBANNN@Z
	??$?RNN@op_sub@detail@linalg@@QEBANNN@Z
	??$?RNN@std_copysign@detail@linalg@@QEBANNN@Z
	??$?RNNN@clamp@detail@linalg@@QEBANNNN@Z
	??$?RNNN@lerp@detail@linalg@@QEBANNNN@Z
	??$?RU?$Point@N@Clipper2Lib@@@<lambda_e5ab439cd2c4d8b63ce0e761c03b1227>@@QEBA?A_PAEBU?$Point@N@Clipper2Lib@@@Z
	??$?RU?$Point@_J@Clipper2Lib@@@<lambda_1652ee7fc5c2d982917a66623ed951d7>@@QEBA?A_PAEBU?$Point@_J@Clipper2Lib@@@Z
	??$?RU?$vec@H$03@linalg@@@?$_Uhash_compare@U?$vec@H$03@linalg@@U?$hash@U?$vec@H$03@linalg@@@std@@U?$equal_to@U?$vec@H$03@linalg@@@4@@std@@QEBA_KAEBU?$vec@H$03@linalg@@@Z
	??$?RU?$vec@H$03@linalg@@U01@@?$_Uhash_compare@U?$vec@H$03@linalg@@U?$hash@U?$vec@H$03@linalg@@@std@@U?$equal_to@U?$vec@H$03@linalg@@@4@@std@@QEBA_NAEBU?$vec@H$03@linalg@@0@Z
	??$?RUfinal_scan_tag@d1@detail@tbb@@@?$CopyIfScanBody@PEAHPEAHV<lambda_5c12ef6d5b86dd74cff0ad6bf5f99d2e>@@@details@manifold@@QEAAXAEBV?$blocked_range@_K@d1@detail@tbb@@Ufinal_scan_tag@456@@Z
	??$?RUfinal_scan_tag@d1@detail@tbb@@@?$CopyIfScanBody@PEAUTmpEdge@manifold@@PEAU12@V<lambda_1d1c6bcdb0a6830adb484fa5460103d0>@@@details@manifold@@QEAAXAEBV?$blocked_range@_K@d1@detail@tbb@@Ufinal_scan_tag@456@@Z
	??$?RUfinal_scan_tag@d1@detail@tbb@@@?$CopyIfScanBody@PEA_JPEA_JV<lambda_09fe494a54b81d6c69236683cf5b4f26>@@@details@manifold@@QEAAXAEBV?$blocked_range@_K@d1@detail@tbb@@Ufinal_scan_tag@456@@Z
	??$?RUfinal_scan_tag@d1@detail@tbb@@@?$CopyIfScanBody@U?$CountingIterator@_K@manifold@@PEAHV<lambda_15275a5507336b257891fcec3ad173af>@@@details@manifold@@QEAAXAEBV?$blocked_range@_K@d1@detail@tbb@@Ufinal_scan_tag@456@@Z
	??$?RUfinal_scan_tag@d1@detail@tbb@@@?$CopyIfScanBody@U?$CountingIterator@_K@manifold@@PEAHV<lambda_4107a9b620f6bac47b0532e36b1e37da>@@@details@manifold@@QEAAXAEBV?$blocked_range@_K@d1@detail@tbb@@Ufinal_scan_tag@456@@Z
	??$?RUfinal_scan_tag@d1@detail@tbb@@@?$CopyIfScanBody@U?$CountingIterator@_K@manifold@@PEAHV<lambda_f7d217123976fdede42126514b35aac9>@@@details@manifold@@QEAAXAEBV?$blocked_range@_K@d1@detail@tbb@@Ufinal_scan_tag@456@@Z
	??$?RUfinal_scan_tag@d1@detail@tbb@@@?$ScanBody@HPEAHPEAHU?$plus@H@std@@@details@manifold@@QEAAXAEBV?$blocked_range@_K@d1@detail@tbb@@Ufinal_scan_tag@456@@Z
	??$?RUfinal_scan_tag@d1@detail@tbb@@@?$ScanBody@_KPEA_KPEA_KU?$plus@_K@std@@@details@manifold@@QEAAXAEBV?$blocked_range@_K@d1@detail@tbb@@Ufinal_scan_tag@456@@Z
	??$?RUfinal_scan_tag@d1@detail@tbb@@@?$final_sum@V?$blocked_range@_K@d1@detail@tbb@@U?$CopyIfScanBody@PEAHPEAHV<lambda_5c12ef6d5b86dd74cff0ad6bf5f99d2e>@@@details@manifold@@@d1@detail@tbb@@QEAAXAEBV?$blocked_range@_K@123@Ufinal_scan_tag@123@@Z
	??$?RUfinal_scan_tag@d1@detail@tbb@@@?$final_sum@V?$blocked_range@_K@d1@detail@tbb@@U?$CopyIfScanBody@PEAUTmpEdge@manifold@@PEAU12@V<lambda_1d1c6bcdb0a6830adb484fa5460103d0>@@@details@manifold@@@d1@detail@tbb@@QEAAXAEBV?$blocked_range@_K@123@Ufinal_scan_tag@123@@Z
	??$?RUfinal_scan_tag@d1@detail@tbb@@@?$final_sum@V?$blocked_range@_K@d1@detail@tbb@@U?$CopyIfScanBody@PEA_JPEA_JV<lambda_09fe494a54b81d6c69236683cf5b4f26>@@@details@manifold@@@d1@detail@tbb@@QEAAXAEBV?$blocked_range@_K@123@Ufinal_scan_tag@123@@Z
	??$?RUfinal_scan_tag@d1@detail@tbb@@@?$final_sum@V?$blocked_range@_K@d1@detail@tbb@@U?$CopyIfScanBody@U?$CountingIterator@_K@manifold@@PEAHV<lambda_15275a5507336b257891fcec3ad173af>@@@details@manifold@@@d1@detail@tbb@@QEAAXAEBV?$blocked_range@_K@123@Ufinal_scan_tag@123@@Z
	??$?RUfinal_scan_tag@d1@detail@tbb@@@?$final_sum@V?$blocked_range@_K@d1@detail@tbb@@U?$CopyIfScanBody@U?$CountingIterator@_K@manifold@@PEAHV<lambda_4107a9b620f6bac47b0532e36b1e37da>@@@details@manifold@@@d1@detail@tbb@@QEAAXAEBV?$blocked_range@_K@123@Ufinal_scan_tag@123@@Z
	??$?RUfinal_scan_tag@d1@detail@tbb@@@?$final_sum@V?$blocked_range@_K@d1@detail@tbb@@U?$CopyIfScanBody@U?$CountingIterator@_K@manifold@@PEAHV<lambda_f7d217123976fdede42126514b35aac9>@@@details@manifold@@@d1@detail@tbb@@QEAAXAEBV?$blocked_range@_K@123@Ufinal_scan_tag@123@@Z
	??$?RUfinal_scan_tag@d1@detail@tbb@@@?$final_sum@V?$blocked_range@_K@d1@detail@tbb@@U?$ScanBody@HPEAHPEAHU?$plus@H@std@@@details@manifold@@@d1@detail@tbb@@QEAAXAEBV?$blocked_range@_K@123@Ufinal_scan_tag@123@@Z
	??$?RUfinal_scan_tag@d1@detail@tbb@@@?$final_sum@V?$blocked_range@_K@d1@detail@tbb@@U?$ScanBody@_KPEA_KPEA_KU?$plus@_K@std@@@details@manifold@@@d1@detail@tbb@@QEAAXAEBV?$blocked_range@_K@123@Ufinal_scan_tag@123@@Z
	??$?RUfinal_scan_tag@d1@detail@tbb@@@?$final_sum@V?$blocked_range@_K@d1@detail@tbb@@V?$lambda_scan_body@V?$blocked_range@_K@d1@detail@tbb@@HV<lambda_fc34ceecbeedaf8547ac86e00c016eac>@@U?$plus@H@std@@@234@@d1@detail@tbb@@QEAAXAEBV?$blocked_range@_K@123@Ufinal_scan_tag@123@@Z
	??$?RUfinal_scan_tag@d1@detail@tbb@@@?$lambda_scan_body@V?$blocked_range@_K@d1@detail@tbb@@HV<lambda_fc34ceecbeedaf8547ac86e00c016eac>@@U?$plus@H@std@@@d1@detail@tbb@@QEAAXAEBV?$blocked_range@_K@123@Ufinal_scan_tag@123@@Z
	??$?RUpre_scan_tag@d1@detail@tbb@@@?$CopyIfScanBody@PEAHPEAHV<lambda_5c12ef6d5b86dd74cff0ad6bf5f99d2e>@@@details@manifold@@QEAAXAEBV?$blocked_range@_K@d1@detail@tbb@@Upre_scan_tag@456@@Z
	??$?RUpre_scan_tag@d1@detail@tbb@@@?$CopyIfScanBody@PEAUTmpEdge@manifold@@PEAU12@V<lambda_1d1c6bcdb0a6830adb484fa5460103d0>@@@details@manifold@@QEAAXAEBV?$blocked_range@_K@d1@detail@tbb@@Upre_scan_tag@456@@Z
	??$?RUpre_scan_tag@d1@detail@tbb@@@?$CopyIfScanBody@PEA_JPEA_JV<lambda_09fe494a54b81d6c69236683cf5b4f26>@@@details@manifold@@QEAAXAEBV?$blocked_range@_K@d1@detail@tbb@@Upre_scan_tag@456@@Z
	??$?RUpre_scan_tag@d1@detail@tbb@@@?$CopyIfScanBody@U?$CountingIterator@_K@manifold@@PEAHV<lambda_15275a5507336b257891fcec3ad173af>@@@details@manifold@@QEAAXAEBV?$blocked_range@_K@d1@detail@tbb@@Upre_scan_tag@456@@Z
	??$?RUpre_scan_tag@d1@detail@tbb@@@?$CopyIfScanBody@U?$CountingIterator@_K@manifold@@PEAHV<lambda_4107a9b620f6bac47b0532e36b1e37da>@@@details@manifold@@QEAAXAEBV?$blocked_range@_K@d1@detail@tbb@@Upre_scan_tag@456@@Z
	??$?RUpre_scan_tag@d1@detail@tbb@@@?$CopyIfScanBody@U?$CountingIterator@_K@manifold@@PEAHV<lambda_f7d217123976fdede42126514b35aac9>@@@details@manifold@@QEAAXAEBV?$blocked_range@_K@d1@detail@tbb@@Upre_scan_tag@456@@Z
	??$?RUpre_scan_tag@d1@detail@tbb@@@?$ScanBody@HPEAHPEAHU?$plus@H@std@@@details@manifold@@QEAAXAEBV?$blocked_range@_K@d1@detail@tbb@@Upre_scan_tag@456@@Z
	??$?RUpre_scan_tag@d1@detail@tbb@@@?$ScanBody@_KPEA_KPEA_KU?$plus@_K@std@@@details@manifold@@QEAAXAEBV?$blocked_range@_K@d1@detail@tbb@@Upre_scan_tag@456@@Z
	??$?RUpre_scan_tag@d1@detail@tbb@@@?$final_sum@V?$blocked_range@_K@d1@detail@tbb@@U?$CopyIfScanBody@PEAHPEAHV<lambda_5c12ef6d5b86dd74cff0ad6bf5f99d2e>@@@details@manifold@@@d1@detail@tbb@@QEAAXAEBV?$blocked_range@_K@123@Upre_scan_tag@123@@Z
	??$?RUpre_scan_tag@d1@detail@tbb@@@?$final_sum@V?$blocked_range@_K@d1@detail@tbb@@U?$CopyIfScanBody@PEAUTmpEdge@manifold@@PEAU12@V<lambda_1d1c6bcdb0a6830adb484fa5460103d0>@@@details@manifold@@@d1@detail@tbb@@QEAAXAEBV?$blocked_range@_K@123@Upre_scan_tag@123@@Z
	??$?RUpre_scan_tag@d1@detail@tbb@@@?$final_sum@V?$blocked_range@_K@d1@detail@tbb@@U?$CopyIfScanBody@PEA_JPEA_JV<lambda_09fe494a54b81d6c69236683cf5b4f26>@@@details@manifold@@@d1@detail@tbb@@QEAAXAEBV?$blocked_range@_K@123@Upre_scan_tag@123@@Z
	??$?RUpre_scan_tag@d1@detail@tbb@@@?$final_sum@V?$blocked_range@_K@d1@detail@tbb@@U?$CopyIfScanBody@U?$CountingIterator@_K@manifold@@PEAHV<lambda_15275a5507336b257891fcec3ad173af>@@@details@manifold@@@d1@detail@tbb@@QEAAXAEBV?$blocked_range@_K@123@Upre_scan_tag@123@@Z
	??$?RUpre_scan_tag@d1@detail@tbb@@@?$final_sum@V?$blocked_range@_K@d1@detail@tbb@@U?$CopyIfScanBody@U?$CountingIterator@_K@manifold@@PEAHV<lambda_4107a9b620f6bac47b0532e36b1e37da>@@@details@manifold@@@d1@detail@tbb@@QEAAXAEBV?$blocked_range@_K@123@Upre_scan_tag@123@@Z
	??$?RUpre_scan_tag@d1@detail@tbb@@@?$final_sum@V?$blocked_range@_K@d1@detail@tbb@@U?$CopyIfScanBody@U?$CountingIterator@_K@manifold@@PEAHV<lambda_f7d217123976fdede42126514b35aac9>@@@details@manifold@@@d1@detail@tbb@@QEAAXAEBV?$blocked_range@_K@123@Upre_scan_tag@123@@Z
	??$?RUpre_scan_tag@d1@detail@tbb@@@?$final_sum@V?$blocked_range@_K@d1@detail@tbb@@U?$ScanBody@HPEAHPEAHU?$plus@H@std@@@details@manifold@@@d1@detail@tbb@@QEAAXAEBV?$blocked_range@_K@123@Upre_scan_tag@123@@Z
	??$?RUpre_scan_tag@d1@detail@tbb@@@?$final_sum@V?$blocked_range@_K@d1@detail@tbb@@U?$ScanBody@_KPEA_KPEA_KU?$plus@_K@std@@@details@manifold@@@d1@detail@tbb@@QEAAXAEBV?$blocked_range@_K@123@Upre_scan_tag@123@@Z
	??$?RUpre_scan_tag@d1@detail@tbb@@@?$final_sum@V?$blocked_range@_K@d1@detail@tbb@@V?$lambda_scan_body@V?$blocked_range@_K@d1@detail@tbb@@HV<lambda_fc34ceecbeedaf8547ac86e00c016eac>@@U?$plus@H@std@@@234@@d1@detail@tbb@@QEAAXAEBV?$blocked_range@_K@123@Upre_scan_tag@123@@Z
	??$?RUpre_scan_tag@d1@detail@tbb@@@?$lambda_scan_body@V?$blocked_range@_K@d1@detail@tbb@@HV<lambda_fc34ceecbeedaf8547ac86e00c016eac>@@U?$plus@H@std@@@d1@detail@tbb@@QEAAXAEBV?$blocked_range@_K@123@Upre_scan_tag@123@@Z
	??$?RV?$blocked_range@_K@d1@detail@tbb@@@<lambda_2028fcf9990d21ed7bffc3cba0404ce0>@@QEBA?A_PAEBV?$blocked_range@_K@d1@detail@tbb@@@Z
	??$?RV?$vector@U?$Point@N@Clipper2Lib@@V?$allocator@U?$Point@N@Clipper2Lib@@@std@@@std@@@<lambda_9ce4bd69619d2e90158025ed2fd73341>@@QEBA?A_PAEBV?$vector@U?$Point@N@Clipper2Lib@@V?$allocator@U?$Point@N@Clipper2Lib@@@std@@@std@@@Z
	??$?RV?$vector@U?$Point@_J@Clipper2Lib@@V?$allocator@U?$Point@_J@Clipper2Lib@@@std@@@std@@@<lambda_1f9bf9e760597caf623b7e827d0c96e4>@@QEBA?A_PAEBV?$vector@U?$Point@_J@Clipper2Lib@@V?$allocator@U?$Point@_J@Clipper2Lib@@@std@@@std@@@Z
	??$?R_K@?$_Uhash_compare@_KU?$hash@_K@std@@U?$equal_to@_K@2@@std@@QEBA_KAEB_K@Z
	??$?R_KN@std_pow@detail@linalg@@QEBAN_KN@Z
	??$?R_K_K@?$_Uhash_compare@_KU?$hash@_K@std@@U?$equal_to@_K@2@@std@@QEBA_NAEB_K0@Z
	??$?R_N@op_not@detail@linalg@@QEBA_N_N@Z
	??$?R_N_N@op_and@detail@linalg@@QEBA_N_N0@Z
	??$?R_N_N@op_or@detail@linalg@@QEBA_N_N0@Z
	??$?XU?$vec@N$02@linalg@@N@linalg@@YAAEAU?$vec@N$02@0@AEAU10@AEBN@Z
	??$?YU?$vec@H$02@linalg@@H@linalg@@YAAEAU?$vec@H$02@0@AEAU10@AEBH@Z
	??$?YU?$vec@H$03@linalg@@H@linalg@@YAAEAU?$vec@H$03@0@AEAU10@AEBH@Z
	??$?YU?$vec@N$02@linalg@@U01@@linalg@@YAAEAU?$vec@N$02@0@AEAU10@AEBU10@@Z
	??$?YU?$vec@N$03@linalg@@U01@@linalg@@YAAEAU?$vec@N$03@0@AEAU10@AEBU10@@Z
	??$?_0U?$vec@N$02@linalg@@H@linalg@@YAAEAU?$vec@N$02@0@AEAU10@AEBH@Z
	??$?_0U?$vec@N$02@linalg@@N@linalg@@YAAEAU?$vec@N$02@0@AEAU10@AEBN@Z
	??$Area@N@Clipper2Lib@@YANAEBV?$vector@U?$Point@N@Clipper2Lib@@V?$allocator@U?$Point@N@Clipper2Lib@@@std@@@std@@@Z
	??$Area@N@Clipper2Lib@@YANAEBV?$vector@V?$vector@U?$Point@N@Clipper2Lib@@V?$allocator@U?$Point@N@Clipper2Lib@@@std@@@std@@V?$allocator@V?$vector@U?$Point@N@Clipper2Lib@@V?$allocator@U?$Point@N@Clipper2Lib@@@std@@@std@@@2@@std@@@Z
	??$AtomicAdd@H@manifold@@YAHAEAHH@Z
	??$AtomicAdd@N@manifold@@YANAEANN@Z
	??$Collisions@$00$0A@UBox@manifold@@@Collider@manifold@@QEBA?AVSparseIndices@1@AEBV?$VecView@$$CBUBox@manifold@@@1@@Z
	??$Collisions@$00$0A@UBox@manifold@@@Collider@manifold@@QEBAXAEBV?$VecView@$$CBUBox@manifold@@@1@AEAVSparseIndices@1@@Z
	??$Collisions@$0A@$00U?$vec@N$02@linalg@@@Collider@manifold@@QEBA?AVSparseIndices@1@AEBV?$VecView@$$CBU?$vec@N$02@linalg@@@1@@Z
	??$Collisions@$0A@$00U?$vec@N$02@linalg@@@Collider@manifold@@QEBAXAEBV?$VecView@$$CBU?$vec@N$02@linalg@@@1@AEAVSparseIndices@1@@Z
	??$Collisions@$0A@$00UBox@manifold@@@Collider@manifold@@QEBA?AVSparseIndices@1@AEBV?$VecView@$$CBUBox@manifold@@@1@@Z
	??$Collisions@$0A@$00UBox@manifold@@@Collider@manifold@@QEBAXAEBV?$VecView@$$CBUBox@manifold@@@1@AEAVSparseIndices@1@@Z
	??$Collisions@$0A@$0A@U?$vec@N$02@linalg@@@Collider@manifold@@QEBA?AVSparseIndices@1@AEBV?$VecView@$$CBU?$vec@N$02@linalg@@@1@@Z
	??$Collisions@$0A@$0A@U?$vec@N$02@linalg@@@Collider@manifold@@QEBAXAEBV?$VecView@$$CBU?$vec@N$02@linalg@@@1@AEAVSparseIndices@1@@Z
	??$Collisions@$0A@$0A@UBox@manifold@@@Collider@manifold@@QEBA?AVSparseIndices@1@AEBV?$VecView@$$CBUBox@manifold@@@1@@Z
	??$Collisions@$0A@$0A@UBox@manifold@@@Collider@manifold@@QEBAXAEBV?$VecView@$$CBUBox@manifold@@@1@AEAVSparseIndices@1@@Z
	??$GetBounds@N@Clipper2Lib@@YA?AU?$Rect@N@0@AEBV?$vector@V?$vector@U?$Point@N@Clipper2Lib@@V?$allocator@U?$Point@N@Clipper2Lib@@@std@@@std@@V?$allocator@V?$vector@U?$Point@N@Clipper2Lib@@V?$allocator@U?$Point@N@Clipper2Lib@@@std@@@std@@@2@@std@@@Z
	??$GetBounds@NN@Clipper2Lib@@YA?AU?$Rect@N@0@AEBV?$vector@V?$vector@U?$Point@N@Clipper2Lib@@V?$allocator@U?$Point@N@Clipper2Lib@@@std@@@std@@V?$allocator@V?$vector@U?$Point@N@Clipper2Lib@@V?$allocator@U?$Point@N@Clipper2Lib@@@std@@@std@@@2@@std@@@Z
	??$Init@N@?$Point@N@Clipper2Lib@@QEAAXNN@Z
	??$Init@N@?$Point@_J@Clipper2Lib@@QEAAXNN@Z
	??$Init@_J@?$Point@_J@Clipper2Lib@@QEAAX_J0@Z
	??$KeepFinite@N@SparseIndices@manifold@@QEAA_KAEAV?$Vec@N@1@AEAV?$Vec@H@1@@Z
	??$KeepFinite@U?$vec@N$02@linalg@@@SparseIndices@manifold@@QEAA_KAEAV?$Vec@U?$vec@N$02@linalg@@@1@AEAV?$Vec@H@1@@Z
	??$KeepFinite@U?$vec@N$03@linalg@@@SparseIndices@manifold@@QEAA_KAEAV?$Vec@U?$vec@N$03@linalg@@@1@AEAV?$Vec@H@1@@Z
	??$LSB_radix_sort@_J_K@details@manifold@@YA_NPEA_J0_K@Z
	??$Permute@HH@manifold@@YAXAEAV?$Vec@H@0@AEBV10@@Z
	??$Permute@IH@manifold@@YAXAEAV?$Vec@I@0@AEBV?$Vec@H@0@@Z
	??$Permute@NH@manifold@@YAXAEAV?$Vec@N@0@AEBV?$Vec@H@0@@Z
	??$Permute@U?$vec@H$02@linalg@@H@manifold@@YAXAEAV?$Vec@U?$vec@H$02@linalg@@@0@AEBV?$Vec@H@0@@Z
	??$Permute@U?$vec@N$02@linalg@@H@manifold@@YAXAEAV?$Vec@U?$vec@N$02@linalg@@@0@AEBV?$Vec@H@0@@Z
	??$Permute@U?$vec@N$03@linalg@@H@manifold@@YAXAEAV?$Vec@U?$vec@N$03@linalg@@@0@AEBV?$Vec@H@0@@Z
	??$Permute@UBox@manifold@@H@manifold@@YAXAEAV?$Vec@UBox@manifold@@@0@AEBV?$Vec@H@0@@Z
	??$Permute@UTriRef@manifold@@H@manifold@@YAXAEAV?$Vec@UTriRef@manifold@@@0@AEBV?$Vec@H@0@@Z
	??$PerpendicDistFromLineSqrd@N@Clipper2Lib@@YANAEBU?$Point@N@0@00@Z
	??$ScalePath@N_J@Clipper2Lib@@YA?AV?$vector@U?$Point@N@Clipper2Lib@@V?$allocator@U?$Point@N@Clipper2Lib@@@std@@@std@@AEBV?$vector@U?$Point@_J@Clipper2Lib@@V?$allocator@U?$Point@_J@Clipper2Lib@@@std@@@2@NAEAH@Z
	??$ScalePath@N_J@Clipper2Lib@@YA?AV?$vector@U?$Point@N@Clipper2Lib@@V?$allocator@U?$Point@N@Clipper2Lib@@@std@@@std@@AEBV?$vector@U?$Point@_J@Clipper2Lib@@V?$allocator@U?$Point@_J@Clipper2Lib@@@std@@@2@NNAEAH@Z
	??$ScalePath@_JN@Clipper2Lib@@YA?AV?$vector@U?$Point@_J@Clipper2Lib@@V?$allocator@U?$Point@_J@Clipper2Lib@@@std@@@std@@AEBV?$vector@U?$Point@N@Clipper2Lib@@V?$allocator@U?$Point@N@Clipper2Lib@@@std@@@2@NNAEAH@Z
	??$ScalePaths@N_J@Clipper2Lib@@YA?AV?$vector@V?$vector@U?$Point@N@Clipper2Lib@@V?$allocator@U?$Point@N@Clipper2Lib@@@std@@@std@@V?$allocator@V?$vector@U?$Point@N@Clipper2Lib@@V?$allocator@U?$Point@N@Clipper2Lib@@@std@@@std@@@2@@std@@AEBV?$vector@V?$vector@U?$Point@_J@Clipper2Lib@@V?$allocator@U?$Point@_J@Clipper2Lib@@@std@@@std@@V?$allocator@V?$vector@U?$Point@_J@Clipper2Lib@@V?$allocator@U?$Point@_J@Clipper2Lib@@@std@@@std@@@2@@2@NAEAH@Z
	??$ScalePaths@N_J@Clipper2Lib@@YA?AV?$vector@V?$vector@U?$Point@N@Clipper2Lib@@V?$allocator@U?$Point@N@Clipper2Lib@@@std@@@std@@V?$allocator@V?$vector@U?$Point@N@Clipper2Lib@@V?$allocator@U?$Point@N@Clipper2Lib@@@std@@@std@@@2@@std@@AEBV?$vector@V?$vector@U?$Point@_J@Clipper2Lib@@V?$allocator@U?$Point@_J@Clipper2Lib@@@std@@@std@@V?$allocator@V?$vector@U?$Point@_J@Clipper2Lib@@V?$allocator@U?$Point@_J@Clipper2Lib@@@std@@@std@@@2@@2@NNAEAH@Z
	??$ScalePaths@_JN@Clipper2Lib@@YA?AV?$vector@V?$vector@U?$Point@_J@Clipper2Lib@@V?$allocator@U?$Point@_J@Clipper2Lib@@@std@@@std@@V?$allocator@V?$vector@U?$Point@_J@Clipper2Lib@@V?$allocator@U?$Point@_J@Clipper2Lib@@@std@@@std@@@2@@std@@AEBV?$vector@V?$vector@U?$Point@N@Clipper2Lib@@V?$allocator@U?$Point@N@Clipper2Lib@@@std@@@std@@V?$allocator@V?$vector@U?$Point@N@Clipper2Lib@@V?$allocator@U?$Point@N@Clipper2Lib@@@std@@@std@@@2@@2@NAEAH@Z
	??$ScalePaths@_JN@Clipper2Lib@@YA?AV?$vector@V?$vector@U?$Point@_J@Clipper2Lib@@V?$allocator@U?$Point@_J@Clipper2Lib@@@std@@@std@@V?$allocator@V?$vector@U?$Point@_J@Clipper2Lib@@V?$allocator@U?$Point@_J@Clipper2Lib@@@std@@@std@@@2@@std@@AEBV?$vector@V?$vector@U?$Point@N@Clipper2Lib@@V?$allocator@U?$Point@N@Clipper2Lib@@@std@@@std@@V?$allocator@V?$vector@U?$Point@N@Clipper2Lib@@V?$allocator@U?$Point@N@Clipper2Lib@@@std@@@std@@@2@@2@NNAEAH@Z
	??$SimplifyPath@N@Clipper2Lib@@YA?AV?$vector@U?$Point@N@Clipper2Lib@@V?$allocator@U?$Point@N@Clipper2Lib@@@std@@@std@@AEBV12@N_N@Z
	??$SimplifyPaths@N@Clipper2Lib@@YA?AV?$vector@V?$vector@U?$Point@N@Clipper2Lib@@V?$allocator@U?$Point@N@Clipper2Lib@@@std@@@std@@V?$allocator@V?$vector@U?$Point@N@Clipper2Lib@@V?$allocator@U?$Point@N@Clipper2Lib@@@std@@@std@@@2@@std@@AEBV12@N_N@Z
	??$Sqr@N@Clipper2Lib@@YANN@Z
	??$_Adl_verify_range@PEADPEAD@std@@YAXAEBQEAD0@Z
	??$_Adl_verify_range@PEAEPEAE@std@@YAXAEBQEAE0@Z
	??$_Adl_verify_range@PEAHPEAH@std@@YAXAEBQEAH0@Z
	??$_Adl_verify_range@PEAIPEAI@std@@YAXAEBQEAI0@Z
	??$_Adl_verify_range@PEANPEAN@std@@YAXAEBQEAN0@Z
	??$_Adl_verify_range@PEAPEAHPEAPEAH@std@@YAXAEBQEAPEAH0@Z
	??$_Adl_verify_range@PEAU?$Point@N@Clipper2Lib@@PEAU12@@std@@YAXAEBQEAU?$Point@N@Clipper2Lib@@0@Z
	??$_Adl_verify_range@PEAU?$pair@HH@std@@PEAU12@@std@@YAXAEBQEAU?$pair@HH@0@0@Z
	??$_Adl_verify_range@PEAU?$vec@H$02@linalg@@PEAU12@@std@@YAXAEBQEAU?$vec@H$02@linalg@@0@Z
	??$_Adl_verify_range@PEAU?$vec@H$03@linalg@@PEAU12@@std@@YAXAEBQEAU?$vec@H$03@linalg@@0@Z
	??$_Adl_verify_range@PEAU?$vec@N$02@linalg@@PEAU12@@std@@YAXAEBQEAU?$vec@N$02@linalg@@0@Z
	??$_Adl_verify_range@PEAU?$vec@N$03@linalg@@PEAU12@@std@@YAXAEBQEAU?$vec@N$03@linalg@@0@Z
	??$_Adl_verify_range@PEAUBarycentric@manifold@@PEAU12@@std@@YAXAEBQEAUBarycentric@manifold@@0@Z
	??$_Adl_verify_range@PEAUBox@manifold@@PEAU12@@std@@YAXAEBQEAUBox@manifold@@0@Z
	??$_Adl_verify_range@PEAUFaceData@QuickHull@manifold@@PEAU123@@std@@YAXAEBQEAUFaceData@QuickHull@manifold@@0@Z
	??$_Adl_verify_range@PEAUHalfedge@manifold@@PEAU12@@std@@YAXAEBQEAUHalfedge@manifold@@0@Z
	??$_Adl_verify_range@PEAUTmpEdge@manifold@@PEAU12@@std@@YAXAEBQEAUTmpEdge@manifold@@0@Z
	??$_Adl_verify_range@PEAUTriRef@manifold@@PEAU12@@std@@YAXAEBQEAUTriRef@manifold@@0@Z
	??$_Adl_verify_range@PEAV?$_List_unchecked_const_iterator@V?$_List_val@U?$_List_simple_types@H@std@@@std@@U_Iterator_base0@2@@std@@PEAV12@@std@@YAXAEBQEAV?$_List_unchecked_const_iterator@V?$_List_val@U?$_List_simple_types@H@std@@@std@@U_Iterator_base0@2@@0@0@Z
	??$_Adl_verify_range@PEAV?$_List_unchecked_iterator@V?$_List_val@U?$_List_simple_types@U?$pair@$$CBHH@std@@@std@@@std@@@std@@PEAV12@@std@@YAXAEBQEAV?$_List_unchecked_iterator@V?$_List_val@U?$_List_simple_types@U?$pair@$$CBHH@std@@@std@@@std@@@0@0@Z
	??$_Adl_verify_range@PEAV?$_List_unchecked_iterator@V?$_List_val@U?$_List_simple_types@U?$pair@$$CB_K_K@std@@@std@@@std@@@std@@PEAV12@@std@@YAXAEBQEAV?$_List_unchecked_iterator@V?$_List_val@U?$_List_simple_types@U?$pair@$$CB_K_K@std@@@std@@@std@@@0@0@Z
	??$_Adl_verify_range@PEA_JPEA_J@std@@YAXAEBQEA_J0@Z
	??$_Adl_verify_range@PEA_KPEA_K@std@@YAXAEBQEA_K0@Z
	??$_Adl_verify_range@PEA_NPEA_N@std@@YAXAEBQEA_N0@Z
	??$_Adl_verify_range@PEBDPEBD@std@@YAXAEBQEBD0@Z
	??$_Adl_verify_range@PEBHPEBH@std@@YAXAEBQEBH0@Z
	??$_Adl_verify_range@PEBNPEBN@std@@YAXAEBQEBN0@Z
	??$_Adl_verify_range@PEBU?$pair@HH@std@@PEBU12@@std@@YAXAEBQEBU?$pair@HH@0@0@Z
	??$_Adl_verify_range@PEBU?$vec@H$02@linalg@@PEBU12@@std@@YAXAEBQEBU?$vec@H$02@linalg@@0@Z
	??$_Adl_verify_range@PEBU?$vec@N$02@linalg@@PEBU12@@std@@YAXAEBQEBU?$vec@N$02@linalg@@0@Z
	??$_Adl_verify_range@PEBU?$vec@N$03@linalg@@PEBU12@@std@@YAXAEBQEBU?$vec@N$03@linalg@@0@Z
	??$_Adl_verify_range@PEBUBox@manifold@@PEBU12@@std@@YAXAEBQEBUBox@manifold@@0@Z
	??$_Adl_verify_range@PEBUHalfedge@manifold@@PEBU12@@std@@YAXAEBQEBUHalfedge@manifold@@0@Z
	??$_Adl_verify_range@PEBUTriRef@manifold@@PEBU12@@std@@YAXAEBQEBUTriRef@manifold@@0@Z
	??$_Adl_verify_range@PEB_KPEB_K@std@@YAXAEBQEB_K0@Z
	??$_Adl_verify_range@U?$CountingIterator@_K@manifold@@U12@@std@@YAXAEBU?$CountingIterator@_K@manifold@@0@Z
	??$_Adl_verify_range@UStridedRangeIter@?$StridedRange@PEBN@manifold@@U123@@std@@YAXAEBUStridedRangeIter@?$StridedRange@PEBN@manifold@@0@Z
	??$_Adl_verify_range@V?$_Tree_unchecked_const_iterator@V?$_Tree_val@U?$_Tree_simple_types@U?$pair@$$CBHURelation@Impl@Manifold@manifold@@@std@@@std@@@std@@U_Iterator_base0@2@@std@@V12@@std@@YAXAEBV?$_Tree_unchecked_const_iterator@V?$_Tree_val@U?$_Tree_simple_types@U?$pair@$$CBHURelation@Impl@Manifold@manifold@@@std@@@std@@@std@@U_Iterator_base0@2@@0@0@Z
	??$_Adl_verify_range@V?$_Vector_const_iterator@V?$_Vector_val@U?$_Simple_types@H@std@@@std@@@std@@V12@@std@@YAXAEBV?$_Vector_const_iterator@V?$_Vector_val@U?$_Simple_types@H@std@@@std@@@0@0@Z
	??$_Adl_verify_range@V?$_Vector_const_iterator@V?$_Vector_val@U?$_Simple_types@M@std@@@std@@@std@@V12@@std@@YAXAEBV?$_Vector_const_iterator@V?$_Vector_val@U?$_Simple_types@M@std@@@std@@@0@0@Z
	??$_Adl_verify_range@V?$_Vector_const_iterator@V?$_Vector_val@U?$_Simple_types@N@std@@@std@@@std@@V12@@std@@YAXAEBV?$_Vector_const_iterator@V?$_Vector_val@U?$_Simple_types@N@std@@@std@@@0@0@Z
	??$_Adl_verify_range@V?$_Vector_const_iterator@V?$_Vector_val@U?$_Simple_types@U?$Point@N@Clipper2Lib@@@std@@@std@@@std@@V12@@std@@YAXAEBV?$_Vector_const_iterator@V?$_Vector_val@U?$_Simple_types@U?$Point@N@Clipper2Lib@@@std@@@std@@@0@0@Z
	??$_Adl_verify_range@V?$_Vector_const_iterator@V?$_Vector_val@U?$_Simple_types@U?$Point@_J@Clipper2Lib@@@std@@@std@@@std@@V12@@std@@YAXAEBV?$_Vector_const_iterator@V?$_Vector_val@U?$_Simple_types@U?$Point@_J@Clipper2Lib@@@std@@@std@@@0@0@Z
	??$_Adl_verify_range@V?$_Vector_const_iterator@V?$_Vector_val@U?$_Simple_types@U?$vec@H$02@linalg@@@std@@@std@@@std@@V12@@std@@YAXAEBV?$_Vector_const_iterator@V?$_Vector_val@U?$_Simple_types@U?$vec@H$02@linalg@@@std@@@std@@@0@0@Z
	??$_Adl_verify_range@V?$_Vector_const_iterator@V?$_Vector_val@U?$_Simple_types@U?$vec@N$02@linalg@@@std@@@std@@@std@@V12@@std@@YAXAEBV?$_Vector_const_iterator@V?$_Vector_val@U?$_Simple_types@U?$vec@N$02@linalg@@@std@@@std@@@0@0@Z
	??$_Adl_verify_range@V?$_Vector_const_iterator@V?$_Vector_val@U?$_Simple_types@V?$vector@U?$Point@N@Clipper2Lib@@V?$allocator@U?$Point@N@Clipper2Lib@@@std@@@std@@@std@@@std@@@std@@V12@@std@@YAXAEBV?$_Vector_const_iterator@V?$_Vector_val@U?$_Simple_types@V?$vector@U?$Point@N@Clipper2Lib@@V?$allocator@U?$Point@N@Clipper2Lib@@@std@@@std@@@std@@@std@@@0@0@Z
	??$_Adl_verify_range@V?$_Vector_const_iterator@V?$_Vector_val@U?$_Simple_types@V?$vector@U?$Point@_J@Clipper2Lib@@V?$allocator@U?$Point@_J@Clipper2Lib@@@std@@@std@@@std@@@std@@@std@@V12@@std@@YAXAEBV?$_Vector_const_iterator@V?$_Vector_val@U?$_Simple_types@V?$vector@U?$Point@_J@Clipper2Lib@@V?$allocator@U?$Point@_J@Clipper2Lib@@@std@@@std@@@std@@@std@@@0@0@Z
	??$_Adl_verify_range@V?$_Vector_const_iterator@V?$_Vector_val@U?$_Simple_types@_K@std@@@std@@@std@@V12@@std@@YAXAEBV?$_Vector_const_iterator@V?$_Vector_val@U?$_Simple_types@_K@std@@@std@@@0@0@Z
	??$_Adl_verify_range@V?$_Vector_iterator@V?$_Vector_val@U?$_Simple_types@H@std@@@std@@@std@@V12@@std@@YAXAEBV?$_Vector_iterator@V?$_Vector_val@U?$_Simple_types@H@std@@@std@@@0@0@Z
	??$_Adl_verify_range@V?$_Vector_iterator@V?$_Vector_val@U?$_Simple_types@U?$vec@N$01@linalg@@@std@@@std@@@std@@V12@@std@@YAXAEBV?$_Vector_iterator@V?$_Vector_val@U?$_Simple_types@U?$vec@N$01@linalg@@@std@@@std@@@0@0@Z
	??$_Adl_verify_range@V?$_Vector_iterator@V?$_Vector_val@U?$_Simple_types@V?$Vec@_K@manifold@@@std@@@std@@@std@@V12@@std@@YAXAEBV?$_Vector_iterator@V?$_Vector_val@U?$_Simple_types@V?$Vec@_K@manifold@@@std@@@std@@@0@0@Z
	??$_Adl_verify_range@V?$_Vector_iterator@V?$_Vector_val@U?$_Simple_types@V?$shared_ptr@VCsgLeafNode@manifold@@@std@@@std@@@std@@@std@@V12@@std@@YAXAEBV?$_Vector_iterator@V?$_Vector_val@U?$_Simple_types@V?$shared_ptr@VCsgLeafNode@manifold@@@std@@@std@@@std@@@0@0@Z
	??$_Alias_construct_from@VCsgLeafNode@manifold@@@?$_Ptr_base@VCsgLeafNode@manifold@@@std@@IEAAXAEBV?$shared_ptr@VCsgLeafNode@manifold@@@1@PEAVCsgLeafNode@manifold@@@Z
	??$_Alias_construct_from@VCsgNode@manifold@@@?$_Ptr_base@$$CBVCsgOpNode@manifold@@@std@@IEAAXAEBV?$shared_ptr@VCsgNode@manifold@@@1@PEBVCsgOpNode@manifold@@@Z
	??$_Alias_construct_from@VCsgNode@manifold@@@?$_Ptr_base@VCsgLeafNode@manifold@@@std@@IEAAXAEBV?$shared_ptr@VCsgNode@manifold@@@1@PEAVCsgLeafNode@manifold@@@Z
	??$_Alias_construct_from@VCsgNode@manifold@@@?$_Ptr_base@VCsgOpNode@manifold@@@std@@IEAAXAEBV?$shared_ptr@VCsgNode@manifold@@@1@PEAVCsgOpNode@manifold@@@Z
	??$_Alias_construct_from@VCsgOpNode@manifold@@@?$_Ptr_base@VCsgOpNode@manifold@@@std@@IEAAXAEBV?$shared_ptr@VCsgOpNode@manifold@@@1@PEAVCsgOpNode@manifold@@@Z
	??$_Alias_move_construct_from@$$CBVCsgNode@manifold@@@?$_Ptr_base@$$CBVCsgOpNode@manifold@@@std@@IEAAX$$QEAV?$shared_ptr@$$CBVCsgNode@manifold@@@1@PEBVCsgOpNode@manifold@@@Z
	??$_Alias_move_construct_from@VCsgNode@manifold@@@?$_Ptr_base@VCsgLeafNode@manifold@@@std@@IEAAX$$QEAV?$shared_ptr@VCsgNode@manifold@@@1@PEAVCsgLeafNode@manifold@@@Z
	??$_Alias_move_construct_from@VCsgNode@manifold@@@?$_Ptr_base@VCsgOpNode@manifold@@@std@@IEAAX$$QEAV?$shared_ptr@VCsgNode@manifold@@@1@PEAVCsgOpNode@manifold@@@Z
	??$_Alloc_proxy@V?$allocator@U_Container_proxy@std@@@std@@@_Container_base12@std@@QEAAX$$QEAV?$allocator@U_Container_proxy@std@@@1@@Z
	??$_Allocate@$0BA@U_Default_allocate_traits@std@@$0A@@std@@YAPEAX_K@Z
	??$_Allocate_manually_vector_aligned@U_Default_allocate_traits@std@@@std@@YAPEAX_K@Z
	??$_Assign_range@PEAU?$Point@N@Clipper2Lib@@@?$vector@U?$Point@N@Clipper2Lib@@V?$allocator@U?$Point@N@Clipper2Lib@@@std@@@std@@AEAAXPEAU?$Point@N@Clipper2Lib@@0Uforward_iterator_tag@1@@Z
	??$_Assign_range@PEBI@?$vector@IV?$allocator@I@std@@@std@@AEAAXPEBI0Uforward_iterator_tag@1@@Z
	??$_Assign_range@PEBU?$vec@H$02@linalg@@@?$vector@U?$vec@H$02@linalg@@V?$allocator@U?$vec@H$02@linalg@@@std@@@std@@AEAAXPEBU?$vec@H$02@linalg@@0Uforward_iterator_tag@1@@Z
	??$_Assign_range@PEBU?$vec@N$02@linalg@@@?$vector@U?$vec@N$02@linalg@@V?$allocator@U?$vec@N$02@linalg@@@std@@@std@@AEAAXPEBU?$vec@N$02@linalg@@0Uforward_iterator_tag@1@@Z
	??$_Assign_range@PEBV?$shared_ptr@VCsgNode@manifold@@@std@@@?$vector@V?$shared_ptr@VCsgNode@manifold@@@std@@V?$allocator@V?$shared_ptr@VCsgNode@manifold@@@std@@@2@@std@@AEAAXPEBV?$shared_ptr@VCsgNode@manifold@@@1@0Uforward_iterator_tag@1@@Z
	??$_Assign_range@PEB_K@?$vector@_KV?$allocator@_K@std@@@std@@AEAAXPEB_K0Uforward_iterator_tag@1@@Z
	??$_Atomic_address_as@DU?$_Atomic_padded@E@std@@@std@@YAPECDAEAU?$_Atomic_padded@E@0@@Z
	??$_Atomic_address_as@DU?$_Atomic_padded@W4state@task_group_context@d1@detail@tbb@@@std@@@std@@YAPEDDAEBU?$_Atomic_padded@W4state@task_group_context@d1@detail@tbb@@@0@@Z
	??$_Atomic_address_as@DU?$_Atomic_padded@_N@std@@@std@@YAPECDAEAU?$_Atomic_padded@_N@0@@Z
	??$_Atomic_address_as@DU?$_Atomic_padded@_N@std@@@std@@YAPEDDAEBU?$_Atomic_padded@_N@0@@Z
	??$_Atomic_address_as@HU?$_Atomic_padded@H@std@@@std@@YAPECHAEAU?$_Atomic_padded@H@0@@Z
	??$_Atomic_address_as@HU?$_Atomic_padded@H@std@@@std@@YAPEDHAEBU?$_Atomic_padded@H@0@@Z
	??$_Atomic_address_as@HU?$_Atomic_padded@I@std@@@std@@YAPEDHAEBU?$_Atomic_padded@I@0@@Z
	??$_Atomic_address_as@HU?$_Atomic_padded@Vid@thread@std@@@std@@@std@@YAPEDHAEBU?$_Atomic_padded@Vid@thread@std@@@0@@Z
	??$_Atomic_address_as@JU?$_Atomic_padded@H@std@@@std@@YAPECJAEAU?$_Atomic_padded@H@0@@Z
	??$_Atomic_address_as@JU?$_Atomic_padded@I@std@@@std@@YAPECJAEAU?$_Atomic_padded@I@0@@Z
	??$_Atomic_address_as@JU?$_Atomic_padded@Vid@thread@std@@@std@@@std@@YAPECJAEAU?$_Atomic_padded@Vid@thread@std@@@0@@Z
	??$_Atomic_address_as@_JU?$_Atomic_padded@N@std@@@std@@YAPEC_JAEAU?$_Atomic_padded@N@0@@Z
	??$_Atomic_address_as@_JU?$_Atomic_padded@N@std@@@std@@YAPED_JAEBU?$_Atomic_padded@N@0@@Z
	??$_Atomic_address_as@_JU?$_Atomic_padded@PEAU?$atomic@PEAU?$atomic@PEAV?$list_node@_K@d2@detail@tbb@@@std@@@std@@@std@@@std@@YAPEC_JAEAU?$_Atomic_padded@PEAU?$atomic@PEAU?$atomic@PEAV?$list_node@_K@d2@detail@tbb@@@std@@@std@@@0@@Z
	??$_Atomic_address_as@_JU?$_Atomic_padded@PEAU?$atomic@PEAU?$atomic@PEAV?$list_node@_K@d2@detail@tbb@@@std@@@std@@@std@@@std@@YAPED_JAEBU?$_Atomic_padded@PEAU?$atomic@PEAU?$atomic@PEAV?$list_node@_K@d2@detail@tbb@@@std@@@std@@@0@@Z
	??$_Atomic_address_as@_JU?$_Atomic_padded@PEAU?$atomic@PEAU?$padded@U?$ets_element@U?$Hist@_K$07@details@manifold@@@d1@detail@tbb@@$0IA@@d0@detail@tbb@@@std@@@std@@@std@@YAPEC_JAEAU?$_Atomic_padded@PEAU?$atomic@PEAU?$padded@U?$ets_element@U?$Hist@_K$07@details@manifold@@@d1@detail@tbb@@$0IA@@d0@detail@tbb@@@std@@@0@@Z
	??$_Atomic_address_as@_JU?$_Atomic_padded@PEAU?$atomic@PEAU?$padded@U?$ets_element@U?$Hist@_K$07@details@manifold@@@d1@detail@tbb@@$0IA@@d0@detail@tbb@@@std@@@std@@@std@@YAPED_JAEBU?$_Atomic_padded@PEAU?$atomic@PEAU?$padded@U?$ets_element@U?$Hist@_K$07@details@manifold@@@d1@detail@tbb@@$0IA@@d0@detail@tbb@@@std@@@0@@Z
	??$_Atomic_address_as@_JU?$_Atomic_padded@PEAU?$atomic@PEAU?$padded@U?$ets_element@V?$linear_congruential_engine@I$0LMIP@$0A@$0HPPPPPPP@@std@@@d1@detail@tbb@@$0IA@@d0@detail@tbb@@@std@@@std@@@std@@YAPEC_JAEAU?$_Atomic_padded@PEAU?$atomic@PEAU?$padded@U?$ets_element@V?$linear_congruential_engine@I$0LMIP@$0A@$0HPPPPPPP@@std@@@d1@detail@tbb@@$0IA@@d0@detail@tbb@@@std@@@0@@Z
	??$_Atomic_address_as@_JU?$_Atomic_padded@PEAU?$atomic@PEAU?$padded@U?$ets_element@V?$linear_congruential_engine@I$0LMIP@$0A@$0HPPPPPPP@@std@@@d1@detail@tbb@@$0IA@@d0@detail@tbb@@@std@@@std@@@std@@YAPED_JAEBU?$_Atomic_padded@PEAU?$atomic@PEAU?$padded@U?$ets_element@V?$linear_congruential_engine@I$0LMIP@$0A@$0HPPPPPPP@@std@@@d1@detail@tbb@@$0IA@@d0@detail@tbb@@@std@@@0@@Z
	??$_Atomic_address_as@_JU?$_Atomic_padded@PEAU?$atomic@PEAU?$padded@U?$ets_element@VSparseIndices@manifold@@@d1@detail@tbb@@$0IA@@d0@detail@tbb@@@std@@@std@@@std@@YAPEC_JAEAU?$_Atomic_padded@PEAU?$atomic@PEAU?$padded@U?$ets_element@VSparseIndices@manifold@@@d1@detail@tbb@@$0IA@@d0@detail@tbb@@@std@@@0@@Z
	??$_Atomic_address_as@_JU?$_Atomic_padded@PEAU?$atomic@PEAU?$padded@U?$ets_element@VSparseIndices@manifold@@@d1@detail@tbb@@$0IA@@d0@detail@tbb@@@std@@@std@@@std@@YAPED_JAEBU?$_Atomic_padded@PEAU?$atomic@PEAU?$padded@U?$ets_element@VSparseIndices@manifold@@@d1@detail@tbb@@$0IA@@d0@detail@tbb@@@std@@@0@@Z
	??$_Atomic_address_as@_JU?$_Atomic_padded@PEAU?$atomic@PEAV?$list_node@_K@d2@detail@tbb@@@std@@@std@@@std@@YAPEC_JAEAU?$_Atomic_padded@PEAU?$atomic@PEAV?$list_node@_K@d2@detail@tbb@@@std@@@0@@Z
	??$_Atomic_address_as@_JU?$_Atomic_padded@PEAU?$atomic@PEAV?$list_node@_K@d2@detail@tbb@@@std@@@std@@@std@@YAPED_JAEBU?$_Atomic_padded@PEAU?$atomic@PEAV?$list_node@_K@d2@detail@tbb@@@std@@@0@@Z
	??$_Atomic_address_as@_JU?$_Atomic_padded@PEAU?$final_sum@V?$blocked_range@_K@d1@detail@tbb@@U?$CopyIfScanBody@PEAHPEAHV<lambda_5c12ef6d5b86dd74cff0ad6bf5f99d2e>@@@details@manifold@@@d1@detail@tbb@@@std@@@std@@YAPEC_JAEAU?$_Atomic_padded@PEAU?$final_sum@V?$blocked_range@_K@d1@detail@tbb@@U?$CopyIfScanBody@PEAHPEAHV<lambda_5c12ef6d5b86dd74cff0ad6bf5f99d2e>@@@details@manifold@@@d1@detail@tbb@@@0@@Z
	??$_Atomic_address_as@_JU?$_Atomic_padded@PEAU?$final_sum@V?$blocked_range@_K@d1@detail@tbb@@U?$CopyIfScanBody@PEAHPEAHV<lambda_5c12ef6d5b86dd74cff0ad6bf5f99d2e>@@@details@manifold@@@d1@detail@tbb@@@std@@@std@@YAPED_JAEBU?$_Atomic_padded@PEAU?$final_sum@V?$blocked_range@_K@d1@detail@tbb@@U?$CopyIfScanBody@PEAHPEAHV<lambda_5c12ef6d5b86dd74cff0ad6bf5f99d2e>@@@details@manifold@@@d1@detail@tbb@@@0@@Z
	??$_Atomic_address_as@_JU?$_Atomic_padded@PEAU?$final_sum@V?$blocked_range@_K@d1@detail@tbb@@U?$CopyIfScanBody@PEAUTmpEdge@manifold@@PEAU12@V<lambda_1d1c6bcdb0a6830adb484fa5460103d0>@@@details@manifold@@@d1@detail@tbb@@@std@@@std@@YAPEC_JAEAU?$_Atomic_padded@PEAU?$final_sum@V?$blocked_range@_K@d1@detail@tbb@@U?$CopyIfScanBody@PEAUTmpEdge@manifold@@PEAU12@V<lambda_1d1c6bcdb0a6830adb484fa5460103d0>@@@details@manifold@@@d1@detail@tbb@@@0@@Z
	??$_Atomic_address_as@_JU?$_Atomic_padded@PEAU?$final_sum@V?$blocked_range@_K@d1@detail@tbb@@U?$CopyIfScanBody@PEAUTmpEdge@manifold@@PEAU12@V<lambda_1d1c6bcdb0a6830adb484fa5460103d0>@@@details@manifold@@@d1@detail@tbb@@@std@@@std@@YAPED_JAEBU?$_Atomic_padded@PEAU?$final_sum@V?$blocked_range@_K@d1@detail@tbb@@U?$CopyIfScanBody@PEAUTmpEdge@manifold@@PEAU12@V<lambda_1d1c6bcdb0a6830adb484fa5460103d0>@@@details@manifold@@@d1@detail@tbb@@@0@@Z
	??$_Atomic_address_as@_JU?$_Atomic_padded@PEAU?$final_sum@V?$blocked_range@_K@d1@detail@tbb@@U?$CopyIfScanBody@PEA_JPEA_JV<lambda_09fe494a54b81d6c69236683cf5b4f26>@@@details@manifold@@@d1@detail@tbb@@@std@@@std@@YAPEC_JAEAU?$_Atomic_padded@PEAU?$final_sum@V?$blocked_range@_K@d1@detail@tbb@@U?$CopyIfScanBody@PEA_JPEA_JV<lambda_09fe494a54b81d6c69236683cf5b4f26>@@@details@manifold@@@d1@detail@tbb@@@0@@Z
	??$_Atomic_address_as@_JU?$_Atomic_padded@PEAU?$final_sum@V?$blocked_range@_K@d1@detail@tbb@@U?$CopyIfScanBody@PEA_JPEA_JV<lambda_09fe494a54b81d6c69236683cf5b4f26>@@@details@manifold@@@d1@detail@tbb@@@std@@@std@@YAPED_JAEBU?$_Atomic_padded@PEAU?$final_sum@V?$blocked_range@_K@d1@detail@tbb@@U?$CopyIfScanBody@PEA_JPEA_JV<lambda_09fe494a54b81d6c69236683cf5b4f26>@@@details@manifold@@@d1@detail@tbb@@@0@@Z
	??$_Atomic_address_as@_JU?$_Atomic_padded@PEAU?$final_sum@V?$blocked_range@_K@d1@detail@tbb@@U?$CopyIfScanBody@U?$CountingIterator@_K@manifold@@PEAHV<lambda_15275a5507336b257891fcec3ad173af>@@@details@manifold@@@d1@detail@tbb@@@std@@@std@@YAPEC_JAEAU?$_Atomic_padded@PEAU?$final_sum@V?$blocked_range@_K@d1@detail@tbb@@U?$CopyIfScanBody@U?$CountingIterator@_K@manifold@@PEAHV<lambda_15275a5507336b257891fcec3ad173af>@@@details@manifold@@@d1@detail@tbb@@@0@@Z
	??$_Atomic_address_as@_JU?$_Atomic_padded@PEAU?$final_sum@V?$blocked_range@_K@d1@detail@tbb@@U?$CopyIfScanBody@U?$CountingIterator@_K@manifold@@PEAHV<lambda_15275a5507336b257891fcec3ad173af>@@@details@manifold@@@d1@detail@tbb@@@std@@@std@@YAPED_JAEBU?$_Atomic_padded@PEAU?$final_sum@V?$blocked_range@_K@d1@detail@tbb@@U?$CopyIfScanBody@U?$CountingIterator@_K@manifold@@PEAHV<lambda_15275a5507336b257891fcec3ad173af>@@@details@manifold@@@d1@detail@tbb@@@0@@Z
	??$_Atomic_address_as@_JU?$_Atomic_padded@PEAU?$final_sum@V?$blocked_range@_K@d1@detail@tbb@@U?$CopyIfScanBody@U?$CountingIterator@_K@manifold@@PEAHV<lambda_4107a9b620f6bac47b0532e36b1e37da>@@@details@manifold@@@d1@detail@tbb@@@std@@@std@@YAPEC_JAEAU?$_Atomic_padded@PEAU?$final_sum@V?$blocked_range@_K@d1@detail@tbb@@U?$CopyIfScanBody@U?$CountingIterator@_K@manifold@@PEAHV<lambda_4107a9b620f6bac47b0532e36b1e37da>@@@details@manifold@@@d1@detail@tbb@@@0@@Z
	??$_Atomic_address_as@_JU?$_Atomic_padded@PEAU?$final_sum@V?$blocked_range@_K@d1@detail@tbb@@U?$CopyIfScanBody@U?$CountingIterator@_K@manifold@@PEAHV<lambda_4107a9b620f6bac47b0532e36b1e37da>@@@details@manifold@@@d1@detail@tbb@@@std@@@std@@YAPED_JAEBU?$_Atomic_padded@PEAU?$final_sum@V?$blocked_range@_K@d1@detail@tbb@@U?$CopyIfScanBody@U?$CountingIterator@_K@manifold@@PEAHV<lambda_4107a9b620f6bac47b0532e36b1e37da>@@@details@manifold@@@d1@detail@tbb@@@0@@Z
	??$_Atomic_address_as@_JU?$_Atomic_padded@PEAU?$final_sum@V?$blocked_range@_K@d1@detail@tbb@@U?$CopyIfScanBody@U?$CountingIterator@_K@manifold@@PEAHV<lambda_f7d217123976fdede42126514b35aac9>@@@details@manifold@@@d1@detail@tbb@@@std@@@std@@YAPEC_JAEAU?$_Atomic_padded@PEAU?$final_sum@V?$blocked_range@_K@d1@detail@tbb@@U?$CopyIfScanBody@U?$CountingIterator@_K@manifold@@PEAHV<lambda_f7d217123976fdede42126514b35aac9>@@@details@manifold@@@d1@detail@tbb@@@0@@Z
	??$_Atomic_address_as@_JU?$_Atomic_padded@PEAU?$final_sum@V?$blocked_range@_K@d1@detail@tbb@@U?$CopyIfScanBody@U?$CountingIterator@_K@manifold@@PEAHV<lambda_f7d217123976fdede42126514b35aac9>@@@details@manifold@@@d1@detail@tbb@@@std@@@std@@YAPED_JAEBU?$_Atomic_padded@PEAU?$final_sum@V?$blocked_range@_K@d1@detail@tbb@@U?$CopyIfScanBody@U?$CountingIterator@_K@manifold@@PEAHV<lambda_f7d217123976fdede42126514b35aac9>@@@details@manifold@@@d1@detail@tbb@@@0@@Z
	??$_Atomic_address_as@_JU?$_Atomic_padded@PEAU?$final_sum@V?$blocked_range@_K@d1@detail@tbb@@U?$ScanBody@HPEAHPEAHU?$plus@H@std@@@details@manifold@@@d1@detail@tbb@@@std@@@std@@YAPEC_JAEAU?$_Atomic_padded@PEAU?$final_sum@V?$blocked_range@_K@d1@detail@tbb@@U?$ScanBody@HPEAHPEAHU?$plus@H@std@@@details@manifold@@@d1@detail@tbb@@@0@@Z
	??$_Atomic_address_as@_JU?$_Atomic_padded@PEAU?$final_sum@V?$blocked_range@_K@d1@detail@tbb@@U?$ScanBody@HPEAHPEAHU?$plus@H@std@@@details@manifold@@@d1@detail@tbb@@@std@@@std@@YAPED_JAEBU?$_Atomic_padded@PEAU?$final_sum@V?$blocked_range@_K@d1@detail@tbb@@U?$ScanBody@HPEAHPEAHU?$plus@H@std@@@details@manifold@@@d1@detail@tbb@@@0@@Z
	??$_Atomic_address_as@_JU?$_Atomic_padded@PEAU?$final_sum@V?$blocked_range@_K@d1@detail@tbb@@U?$ScanBody@_KPEA_KPEA_KU?$plus@_K@std@@@details@manifold@@@d1@detail@tbb@@@std@@@std@@YAPEC_JAEAU?$_Atomic_padded@PEAU?$final_sum@V?$blocked_range@_K@d1@detail@tbb@@U?$ScanBody@_KPEA_KPEA_KU?$plus@_K@std@@@details@manifold@@@d1@detail@tbb@@@0@@Z
	??$_Atomic_address_as@_JU?$_Atomic_padded@PEAU?$final_sum@V?$blocked_range@_K@d1@detail@tbb@@U?$ScanBody@_KPEA_KPEA_KU?$plus@_K@std@@@details@manifold@@@d1@detail@tbb@@@std@@@std@@YAPED_JAEBU?$_Atomic_padded@PEAU?$final_sum@V?$blocked_range@_K@d1@detail@tbb@@U?$ScanBody@_KPEA_KPEA_KU?$plus@_K@std@@@details@manifold@@@d1@detail@tbb@@@0@@Z
	??$_Atomic_address_as@_JU?$_Atomic_padded@PEAU?$final_sum@V?$blocked_range@_K@d1@detail@tbb@@V?$lambda_scan_body@V?$blocked_range@_K@d1@detail@tbb@@HV<lambda_fc34ceecbeedaf8547ac86e00c016eac>@@U?$plus@H@std@@@234@@d1@detail@tbb@@@std@@@std@@YAPEC_JAEAU?$_Atomic_padded@PEAU?$final_sum@V?$blocked_range@_K@d1@detail@tbb@@V?$lambda_scan_body@V?$blocked_range@_K@d1@detail@tbb@@HV<lambda_fc34ceecbeedaf8547ac86e00c016eac>@@U?$plus@H@std@@@234@@d1@detail@tbb@@@0@@Z
	??$_Atomic_address_as@_JU?$_Atomic_padded@PEAU?$final_sum@V?$blocked_range@_K@d1@detail@tbb@@V?$lambda_scan_body@V?$blocked_range@_K@d1@detail@tbb@@HV<lambda_fc34ceecbeedaf8547ac86e00c016eac>@@U?$plus@H@std@@@234@@d1@detail@tbb@@@std@@@std@@YAPED_JAEBU?$_Atomic_padded@PEAU?$final_sum@V?$blocked_range@_K@d1@detail@tbb@@V?$lambda_scan_body@V?$blocked_range@_K@d1@detail@tbb@@HV<lambda_fc34ceecbeedaf8547ac86e00c016eac>@@U?$plus@H@std@@@234@@d1@detail@tbb@@@0@@Z
	??$_Atomic_address_as@_JU?$_Atomic_padded@PEAU?$padded@U?$ets_element@U?$Hist@_K$07@details@manifold@@@d1@detail@tbb@@$0IA@@d0@detail@tbb@@@std@@@std@@YAPEC_JAEAU?$_Atomic_padded@PEAU?$padded@U?$ets_element@U?$Hist@_K$07@details@manifold@@@d1@detail@tbb@@$0IA@@d0@detail@tbb@@@0@@Z
	??$_Atomic_address_as@_JU?$_Atomic_padded@PEAU?$padded@U?$ets_element@U?$Hist@_K$07@details@manifold@@@d1@detail@tbb@@$0IA@@d0@detail@tbb@@@std@@@std@@YAPED_JAEBU?$_Atomic_padded@PEAU?$padded@U?$ets_element@U?$Hist@_K$07@details@manifold@@@d1@detail@tbb@@$0IA@@d0@detail@tbb@@@0@@Z
	??$_Atomic_address_as@_JU?$_Atomic_padded@PEAU?$padded@U?$ets_element@V?$linear_congruential_engine@I$0LMIP@$0A@$0HPPPPPPP@@std@@@d1@detail@tbb@@$0IA@@d0@detail@tbb@@@std@@@std@@YAPEC_JAEAU?$_Atomic_padded@PEAU?$padded@U?$ets_element@V?$linear_congruential_engine@I$0LMIP@$0A@$0HPPPPPPP@@std@@@d1@detail@tbb@@$0IA@@d0@detail@tbb@@@0@@Z
	??$_Atomic_address_as@_JU?$_Atomic_padded@PEAU?$padded@U?$ets_element@V?$linear_congruential_engine@I$0LMIP@$0A@$0HPPPPPPP@@std@@@d1@detail@tbb@@$0IA@@d0@detail@tbb@@@std@@@std@@YAPED_JAEBU?$_Atomic_padded@PEAU?$padded@U?$ets_element@V?$linear_congruential_engine@I$0LMIP@$0A@$0HPPPPPPP@@std@@@d1@detail@tbb@@$0IA@@d0@detail@tbb@@@0@@Z
	??$_Atomic_address_as@_JU?$_Atomic_padded@PEAU?$padded@U?$ets_element@VSparseIndices@manifold@@@d1@detail@tbb@@$0IA@@d0@detail@tbb@@@std@@@std@@YAPEC_JAEAU?$_Atomic_padded@PEAU?$padded@U?$ets_element@VSparseIndices@manifold@@@d1@detail@tbb@@$0IA@@d0@detail@tbb@@@0@@Z
	??$_Atomic_address_as@_JU?$_Atomic_padded@PEAU?$padded@U?$ets_element@VSparseIndices@manifold@@@d1@detail@tbb@@$0IA@@d0@detail@tbb@@@std@@@std@@YAPED_JAEBU?$_Atomic_padded@PEAU?$padded@U?$ets_element@VSparseIndices@manifold@@@d1@detail@tbb@@$0IA@@d0@detail@tbb@@@0@@Z
	??$_Atomic_address_as@_JU?$_Atomic_padded@PEAUarray@?$ets_base@$00@d1@detail@tbb@@@std@@@std@@YAPEC_JAEAU?$_Atomic_padded@PEAUarray@?$ets_base@$00@d1@detail@tbb@@@0@@Z
	??$_Atomic_address_as@_JU?$_Atomic_padded@PEAUarray@?$ets_base@$00@d1@detail@tbb@@@std@@@std@@YAPED_JAEBU?$_Atomic_padded@PEAUarray@?$ets_base@$00@d1@detail@tbb@@@0@@Z
	??$_Atomic_address_as@_JU?$_Atomic_padded@PEAV?$list_node@_K@d2@detail@tbb@@@std@@@std@@YAPEC_JAEAU?$_Atomic_padded@PEAV?$list_node@_K@d2@detail@tbb@@@0@@Z
	??$_Atomic_address_as@_JU?$_Atomic_padded@PEAV?$list_node@_K@d2@detail@tbb@@@std@@@std@@YAPED_JAEBU?$_Atomic_padded@PEAV?$list_node@_K@d2@detail@tbb@@@0@@Z
	??$_Atomic_address_as@_JU?$_Atomic_padded@_K@std@@@std@@YAPEC_JAEAU?$_Atomic_padded@_K@0@@Z
	??$_Atomic_address_as@_JU?$_Atomic_padded@_K@std@@@std@@YAPED_JAEBU?$_Atomic_padded@_K@0@@Z
	??$_Atomic_reinterpret_as@DE@std@@YADAEBE@Z
	??$_Atomic_reinterpret_as@D_N@std@@YADAEB_N@Z
	??$_Atomic_reinterpret_as@HH@std@@YAHAEBH@Z
	??$_Atomic_reinterpret_as@JH@std@@YAJAEBH@Z
	??$_Atomic_reinterpret_as@JI@std@@YAJAEBI@Z
	??$_Atomic_reinterpret_as@JVid@thread@std@@@std@@YAJAEBVid@thread@0@@Z
	??$_Atomic_reinterpret_as@_JN@std@@YA_JAEBN@Z
	??$_Atomic_reinterpret_as@_JPEAU?$atomic@PEAU?$atomic@PEAV?$list_node@_K@d2@detail@tbb@@@std@@@std@@@std@@YA_JAEBQEAU?$atomic@PEAU?$atomic@PEAV?$list_node@_K@d2@detail@tbb@@@std@@@0@@Z
	??$_Atomic_reinterpret_as@_JPEAU?$atomic@PEAU?$padded@U?$ets_element@U?$Hist@_K$07@details@manifold@@@d1@detail@tbb@@$0IA@@d0@detail@tbb@@@std@@@std@@YA_JAEBQEAU?$atomic@PEAU?$padded@U?$ets_element@U?$Hist@_K$07@details@manifold@@@d1@detail@tbb@@$0IA@@d0@detail@tbb@@@0@@Z
	??$_Atomic_reinterpret_as@_JPEAU?$atomic@PEAU?$padded@U?$ets_element@V?$linear_congruential_engine@I$0LMIP@$0A@$0HPPPPPPP@@std@@@d1@detail@tbb@@$0IA@@d0@detail@tbb@@@std@@@std@@YA_JAEBQEAU?$atomic@PEAU?$padded@U?$ets_element@V?$linear_congruential_engine@I$0LMIP@$0A@$0HPPPPPPP@@std@@@d1@detail@tbb@@$0IA@@d0@detail@tbb@@@0@@Z
	??$_Atomic_reinterpret_as@_JPEAU?$atomic@PEAU?$padded@U?$ets_element@VSparseIndices@manifold@@@d1@detail@tbb@@$0IA@@d0@detail@tbb@@@std@@@std@@YA_JAEBQEAU?$atomic@PEAU?$padded@U?$ets_element@VSparseIndices@manifold@@@d1@detail@tbb@@$0IA@@d0@detail@tbb@@@0@@Z
	??$_Atomic_reinterpret_as@_JPEAU?$atomic@PEAV?$list_node@_K@d2@detail@tbb@@@std@@@std@@YA_JAEBQEAU?$atomic@PEAV?$list_node@_K@d2@detail@tbb@@@0@@Z
	??$_Atomic_reinterpret_as@_JPEAU?$final_sum@V?$blocked_range@_K@d1@detail@tbb@@U?$CopyIfScanBody@PEAHPEAHV<lambda_5c12ef6d5b86dd74cff0ad6bf5f99d2e>@@@details@manifold@@@d1@detail@tbb@@@std@@YA_JAEBQEAU?$final_sum@V?$blocked_range@_K@d1@detail@tbb@@U?$CopyIfScanBody@PEAHPEAHV<lambda_5c12ef6d5b86dd74cff0ad6bf5f99d2e>@@@details@manifold@@@d1@detail@tbb@@@Z
	??$_Atomic_reinterpret_as@_JPEAU?$final_sum@V?$blocked_range@_K@d1@detail@tbb@@U?$CopyIfScanBody@PEAUTmpEdge@manifold@@PEAU12@V<lambda_1d1c6bcdb0a6830adb484fa5460103d0>@@@details@manifold@@@d1@detail@tbb@@@std@@YA_JAEBQEAU?$final_sum@V?$blocked_range@_K@d1@detail@tbb@@U?$CopyIfScanBody@PEAUTmpEdge@manifold@@PEAU12@V<lambda_1d1c6bcdb0a6830adb484fa5460103d0>@@@details@manifold@@@d1@detail@tbb@@@Z
	??$_Atomic_reinterpret_as@_JPEAU?$final_sum@V?$blocked_range@_K@d1@detail@tbb@@U?$CopyIfScanBody@PEA_JPEA_JV<lambda_09fe494a54b81d6c69236683cf5b4f26>@@@details@manifold@@@d1@detail@tbb@@@std@@YA_JAEBQEAU?$final_sum@V?$blocked_range@_K@d1@detail@tbb@@U?$CopyIfScanBody@PEA_JPEA_JV<lambda_09fe494a54b81d6c69236683cf5b4f26>@@@details@manifold@@@d1@detail@tbb@@@Z
	??$_Atomic_reinterpret_as@_JPEAU?$final_sum@V?$blocked_range@_K@d1@detail@tbb@@U?$CopyIfScanBody@U?$CountingIterator@_K@manifold@@PEAHV<lambda_15275a5507336b257891fcec3ad173af>@@@details@manifold@@@d1@detail@tbb@@@std@@YA_JAEBQEAU?$final_sum@V?$blocked_range@_K@d1@detail@tbb@@U?$CopyIfScanBody@U?$CountingIterator@_K@manifold@@PEAHV<lambda_15275a5507336b257891fcec3ad173af>@@@details@manifold@@@d1@detail@tbb@@@Z
	??$_Atomic_reinterpret_as@_JPEAU?$final_sum@V?$blocked_range@_K@d1@detail@tbb@@U?$CopyIfScanBody@U?$CountingIterator@_K@manifold@@PEAHV<lambda_4107a9b620f6bac47b0532e36b1e37da>@@@details@manifold@@@d1@detail@tbb@@@std@@YA_JAEBQEAU?$final_sum@V?$blocked_range@_K@d1@detail@tbb@@U?$CopyIfScanBody@U?$CountingIterator@_K@manifold@@PEAHV<lambda_4107a9b620f6bac47b0532e36b1e37da>@@@details@manifold@@@d1@detail@tbb@@@Z
	??$_Atomic_reinterpret_as@_JPEAU?$final_sum@V?$blocked_range@_K@d1@detail@tbb@@U?$CopyIfScanBody@U?$CountingIterator@_K@manifold@@PEAHV<lambda_f7d217123976fdede42126514b35aac9>@@@details@manifold@@@d1@detail@tbb@@@std@@YA_JAEBQEAU?$final_sum@V?$blocked_range@_K@d1@detail@tbb@@U?$CopyIfScanBody@U?$CountingIterator@_K@manifold@@PEAHV<lambda_f7d217123976fdede42126514b35aac9>@@@details@manifold@@@d1@detail@tbb@@@Z
	??$_Atomic_reinterpret_as@_JPEAU?$final_sum@V?$blocked_range@_K@d1@detail@tbb@@U?$ScanBody@HPEAHPEAHU?$plus@H@std@@@details@manifold@@@d1@detail@tbb@@@std@@YA_JAEBQEAU?$final_sum@V?$blocked_range@_K@d1@detail@tbb@@U?$ScanBody@HPEAHPEAHU?$plus@H@std@@@details@manifold@@@d1@detail@tbb@@@Z
	??$_Atomic_reinterpret_as@_JPEAU?$final_sum@V?$blocked_range@_K@d1@detail@tbb@@U?$ScanBody@_KPEA_KPEA_KU?$plus@_K@std@@@details@manifold@@@d1@detail@tbb@@@std@@YA_JAEBQEAU?$final_sum@V?$blocked_range@_K@d1@detail@tbb@@U?$ScanBody@_KPEA_KPEA_KU?$plus@_K@std@@@details@manifold@@@d1@detail@tbb@@@Z
	??$_Atomic_reinterpret_as@_JPEAU?$final_sum@V?$blocked_range@_K@d1@detail@tbb@@V?$lambda_scan_body@V?$blocked_range@_K@d1@detail@tbb@@HV<lambda_fc34ceecbeedaf8547ac86e00c016eac>@@U?$plus@H@std@@@234@@d1@detail@tbb@@@std@@YA_JAEBQEAU?$final_sum@V?$blocked_range@_K@d1@detail@tbb@@V?$lambda_scan_body@V?$blocked_range@_K@d1@detail@tbb@@HV<lambda_fc34ceecbeedaf8547ac86e00c016eac>@@U?$plus@H@std@@@234@@d1@detail@tbb@@@Z
	??$_Atomic_reinterpret_as@_JPEAU?$padded@U?$ets_element@U?$Hist@_K$07@details@manifold@@@d1@detail@tbb@@$0IA@@d0@detail@tbb@@@std@@YA_JAEBQEAU?$padded@U?$ets_element@U?$Hist@_K$07@details@manifold@@@d1@detail@tbb@@$0IA@@d0@detail@tbb@@@Z
	??$_Atomic_reinterpret_as@_JPEAU?$padded@U?$ets_element@V?$linear_congruential_engine@I$0LMIP@$0A@$0HPPPPPPP@@std@@@d1@detail@tbb@@$0IA@@d0@detail@tbb@@@std@@YA_JAEBQEAU?$padded@U?$ets_element@V?$linear_congruential_engine@I$0LMIP@$0A@$0HPPPPPPP@@std@@@d1@detail@tbb@@$0IA@@d0@detail@tbb@@@Z
	??$_Atomic_reinterpret_as@_JPEAU?$padded@U?$ets_element@VSparseIndices@manifold@@@d1@detail@tbb@@$0IA@@d0@detail@tbb@@@std@@YA_JAEBQEAU?$padded@U?$ets_element@VSparseIndices@manifold@@@d1@detail@tbb@@$0IA@@d0@detail@tbb@@@Z
	??$_Atomic_reinterpret_as@_JPEAUarray@?$ets_base@$00@d1@detail@tbb@@@std@@YA_JAEBQEAUarray@?$ets_base@$00@d1@detail@tbb@@@Z
	??$_Atomic_reinterpret_as@_JPEAV?$list_node@_K@d2@detail@tbb@@@std@@YA_JAEBQEAV?$list_node@_K@d2@detail@tbb@@@Z
	??$_Atomic_reinterpret_as@_J_K@std@@YA_JAEB_K@Z
	??$_Buffered_inplace_merge_divide_and_conquer2@PEAUHalfedge@manifold@@U?$less@UHalfedge@manifold@@@std@@@std@@YAXPEAUHalfedge@manifold@@00_J1QEAU12@_JU?$less@UHalfedge@manifold@@@0@0011@Z
	??$_Buffered_inplace_merge_divide_and_conquer2@PEA_JU?$less@_J@std@@@std@@YAXPEA_J00_J1QEA_J_JU?$less@_J@0@0011@Z
	??$_Buffered_inplace_merge_divide_and_conquer@PEAUHalfedge@manifold@@U?$less@UHalfedge@manifold@@@std@@@std@@YAXPEAUHalfedge@manifold@@00_J1QEAU12@_JU?$less@UHalfedge@manifold@@@0@@Z
	??$_Buffered_inplace_merge_divide_and_conquer@PEA_JU?$less@_J@std@@@std@@YAXPEA_J00_J1QEA_J_JU?$less@_J@0@@Z
	??$_Buffered_inplace_merge_unchecked@PEAUHalfedge@manifold@@U?$less@UHalfedge@manifold@@@std@@@std@@YAXPEAUHalfedge@manifold@@00_J1QEAU12@_JU?$less@UHalfedge@manifold@@@0@@Z
	??$_Buffered_inplace_merge_unchecked@PEA_JU?$less@_J@std@@@std@@YAXPEA_J00_J1QEA_J_JU?$less@_J@0@@Z
	??$_Buffered_inplace_merge_unchecked_impl@PEAUHalfedge@manifold@@U?$less@UHalfedge@manifold@@@std@@@std@@YAXPEAUHalfedge@manifold@@00_J1QEAU12@_JU?$less@UHalfedge@manifold@@@0@@Z
	??$_Buffered_inplace_merge_unchecked_impl@PEA_JU?$less@_J@std@@@std@@YAXPEA_J00_J1QEA_J_JU?$less@_J@0@@Z
	??$_Buffered_merge_sort_unchecked@PEAUHalfedge@manifold@@U?$less@UHalfedge@manifold@@@std@@@std@@YAXQEAUHalfedge@manifold@@0_J0U?$less@UHalfedge@manifold@@@0@@Z
	??$_Buffered_merge_sort_unchecked@PEA_JU?$less@_J@std@@@std@@YAXQEA_J0_J0U?$less@_J@0@@Z
	??$_Buffered_rotate_unchecked@PEAH@std@@YAPEAHQEAH00_J101@Z
	??$_Buffered_rotate_unchecked@PEAUHalfedge@manifold@@@std@@YAPEAUHalfedge@manifold@@QEAU12@00_J101@Z
	??$_Buffered_rotate_unchecked@PEA_J@std@@YAPEA_JQEA_J00_J101@Z
	??$_Buyheadnode@V?$allocator@U?$_Tree_node@U?$pair@$$CBHH@std@@PEAX@std@@@std@@@?$_Tree_node@U?$pair@$$CBHH@std@@PEAX@std@@SAPEAU01@AEAV?$allocator@U?$_Tree_node@U?$pair@$$CBHH@std@@PEAX@std@@@1@@Z
	??$_Buyheadnode@V?$allocator@U?$_Tree_node@U?$pair@$$CBHU?$pair@USmoothness@manifold@@U12@@std@@@std@@PEAX@std@@@std@@@?$_Tree_node@U?$pair@$$CBHU?$pair@USmoothness@manifold@@U12@@std@@@std@@PEAX@std@@SAPEAU01@AEAV?$allocator@U?$_Tree_node@U?$pair@$$CBHU?$pair@USmoothness@manifold@@U12@@std@@@std@@PEAX@std@@@1@@Z
	??$_Buyheadnode@V?$allocator@U?$_Tree_node@U?$pair@$$CBHURelation@Impl@Manifold@manifold@@@std@@PEAX@std@@@std@@@?$_Tree_node@U?$pair@$$CBHURelation@Impl@Manifold@manifold@@@std@@PEAX@std@@SAPEAU01@AEAV?$allocator@U?$_Tree_node@U?$pair@$$CBHURelation@Impl@Manifold@manifold@@@std@@PEAX@std@@@1@@Z
	??$_Buyheadnode@V?$allocator@U?$_Tree_node@U?$pair@$$CBHV?$vector@U?$pair@USmoothness@manifold@@U12@@std@@V?$allocator@U?$pair@USmoothness@manifold@@U12@@std@@@2@@std@@@std@@PEAX@std@@@std@@@?$_Tree_node@U?$pair@$$CBHV?$vector@U?$pair@USmoothness@manifold@@U12@@std@@V?$allocator@U?$pair@USmoothness@manifold@@U12@@std@@@2@@std@@@std@@PEAX@std@@SAPEAU01@AEAV?$allocator@U?$_Tree_node@U?$pair@$$CBHV?$vector@U?$pair@USmoothness@manifold@@U12@@std@@V?$allocator@U?$pair@USmoothness@manifold@@U12@@std@@@2@@std@@@std@@PEAX@std@@@1@@Z
	??$_Buyheadnode@V?$allocator@U?$_Tree_node@U?$pair@HH@std@@PEAX@std@@@std@@@?$_Tree_node@U?$pair@HH@std@@PEAX@std@@SAPEAU01@AEAV?$allocator@U?$_Tree_node@U?$pair@HH@std@@PEAX@std@@@1@@Z
	??$_Buynode@AEAU?$pair@$$CBHURelation@Impl@Manifold@manifold@@@std@@@?$_Tree@V?$_Tmap_traits@HURelation@Impl@Manifold@manifold@@U?$less@H@std@@V?$allocator@U?$pair@$$CBHURelation@Impl@Manifold@manifold@@@std@@@6@$0A@@std@@@std@@IEAAPEAU?$_Tree_node@U?$pair@$$CBHURelation@Impl@Manifold@manifold@@@std@@PEAX@1@AEAU?$pair@$$CBHURelation@Impl@Manifold@manifold@@@1@@Z
	??$_Buynode@V?$allocator@U?$_Tree_node@U?$pair@$$CBHURelation@Impl@Manifold@manifold@@@std@@PEAX@std@@@std@@AEAU?$pair@$$CBHURelation@Impl@Manifold@manifold@@@2@@?$_Tree_node@U?$pair@$$CBHURelation@Impl@Manifold@manifold@@@std@@PEAX@std@@SAPEAU01@AEAV?$allocator@U?$_Tree_node@U?$pair@$$CBHURelation@Impl@Manifold@manifold@@@std@@PEAX@std@@@1@PEAU01@AEAU?$pair@$$CBHURelation@Impl@Manifold@manifold@@@1@@Z
	??$_Chunked_merge_unchecked@PEAUHalfedge@manifold@@PEAU12@U?$less@UHalfedge@manifold@@@std@@@std@@YAXPEAUHalfedge@manifold@@QEAU12@0_J_JU?$less@UHalfedge@manifold@@@0@@Z
	??$_Chunked_merge_unchecked@PEA_JPEA_JU?$less@_J@std@@@std@@YAXPEA_JQEA_J0_J_JU?$less@_J@0@@Z
	??$_Construct_from_weak@VCsgNode@manifold@@@?$_Ptr_base@$$CBVCsgNode@manifold@@@std@@IEAA_NAEBV?$weak_ptr@VCsgNode@manifold@@@1@@Z
	??$_Construct_from_weak@VCsgNode@manifold@@@?$_Ptr_base@VCsgNode@manifold@@@std@@IEAA_NAEBV?$weak_ptr@VCsgNode@manifold@@@1@@Z
	??$_Construct_in_place@$$CBUImpl@Manifold@manifold@@U123@@std@@YAXAEBUImpl@Manifold@manifold@@$$QEAU123@@Z
	??$_Construct_in_place@$$CBUPathImpl@manifold@@AEBV?$vector@V?$vector@U?$Point@N@Clipper2Lib@@V?$allocator@U?$Point@N@Clipper2Lib@@@std@@@std@@V?$allocator@V?$vector@U?$Point@N@Clipper2Lib@@V?$allocator@U?$Point@N@Clipper2Lib@@@std@@@std@@@2@@std@@@std@@YAXAEBUPathImpl@manifold@@AEBV?$vector@V?$vector@U?$Point@N@Clipper2Lib@@V?$allocator@U?$Point@N@Clipper2Lib@@@std@@@std@@V?$allocator@V?$vector@U?$Point@N@Clipper2Lib@@V?$allocator@U?$Point@N@Clipper2Lib@@@std@@@std@@@2@@0@@Z
	??$_Construct_in_place@$$CBUPathImpl@manifold@@V?$vector@V?$vector@U?$Point@N@Clipper2Lib@@V?$allocator@U?$Point@N@Clipper2Lib@@@std@@@std@@V?$allocator@V?$vector@U?$Point@N@Clipper2Lib@@V?$allocator@U?$Point@N@Clipper2Lib@@@std@@@std@@@2@@std@@@std@@YAXAEBUPathImpl@manifold@@$$QEAV?$vector@V?$vector@U?$Point@N@Clipper2Lib@@V?$allocator@U?$Point@N@Clipper2Lib@@@std@@@std@@V?$allocator@V?$vector@U?$Point@N@Clipper2Lib@@V?$allocator@U?$Point@N@Clipper2Lib@@@std@@@std@@@2@@0@@Z
	??$_Construct_in_place@HH@std@@YAXAEAH$$QEAH@Z
	??$_Construct_in_place@PEADAEBQEAD@std@@YAXAEAPEADAEBQEAD@Z
	??$_Construct_in_place@PEAHAEAPEAH@std@@YAXAEAPEAH0@Z
	??$_Construct_in_place@PEAU?$_List_node@HPEAX@std@@AEAPEAU12@@std@@YAXAEAPEAU?$_List_node@HPEAX@0@0@Z
	??$_Construct_in_place@PEAU?$_List_node@HPEAX@std@@AEBQEAU12@@std@@YAXAEAPEAU?$_List_node@HPEAX@0@AEBQEAU10@@Z
	??$_Construct_in_place@PEAU?$_List_node@U?$pair@$$CBHH@std@@PEAX@std@@AEAPEAU12@@std@@YAXAEAPEAU?$_List_node@U?$pair@$$CBHH@std@@PEAX@0@0@Z
	??$_Construct_in_place@PEAU?$_List_node@U?$pair@$$CBHH@std@@PEAX@std@@AEBQEAU12@@std@@YAXAEAPEAU?$_List_node@U?$pair@$$CBHH@std@@PEAX@0@AEBQEAU10@@Z
	??$_Construct_in_place@PEAU?$_List_node@U?$pair@$$CB_K_K@std@@PEAX@std@@AEAPEAU12@@std@@YAXAEAPEAU?$_List_node@U?$pair@$$CB_K_K@std@@PEAX@0@0@Z
	??$_Construct_in_place@PEAU?$_List_node@U?$pair@$$CB_K_K@std@@PEAX@std@@AEBQEAU12@@std@@YAXAEAPEAU?$_List_node@U?$pair@$$CB_K_K@std@@PEAX@0@AEBQEAU10@@Z
	??$_Construct_in_place@PEAU?$_Tree_node@U?$pair@$$CBHH@std@@PEAX@std@@AEAPEAU12@@std@@YAXAEAPEAU?$_Tree_node@U?$pair@$$CBHH@std@@PEAX@0@0@Z
	??$_Construct_in_place@PEAU?$_Tree_node@U?$pair@$$CBHH@std@@PEAX@std@@AEBQEAU12@@std@@YAXAEAPEAU?$_Tree_node@U?$pair@$$CBHH@std@@PEAX@0@AEBQEAU10@@Z
	??$_Construct_in_place@PEAU?$_Tree_node@U?$pair@$$CBHU?$pair@USmoothness@manifold@@U12@@std@@@std@@PEAX@std@@AEAPEAU12@@std@@YAXAEAPEAU?$_Tree_node@U?$pair@$$CBHU?$pair@USmoothness@manifold@@U12@@std@@@std@@PEAX@0@0@Z
	??$_Construct_in_place@PEAU?$_Tree_node@U?$pair@$$CBHU?$pair@USmoothness@manifold@@U12@@std@@@std@@PEAX@std@@AEBQEAU12@@std@@YAXAEAPEAU?$_Tree_node@U?$pair@$$CBHU?$pair@USmoothness@manifold@@U12@@std@@@std@@PEAX@0@AEBQEAU10@@Z
	??$_Construct_in_place@PEAU?$_Tree_node@U?$pair@$$CBHURelation@Impl@Manifold@manifold@@@std@@PEAX@std@@AEAPEAU12@@std@@YAXAEAPEAU?$_Tree_node@U?$pair@$$CBHURelation@Impl@Manifold@manifold@@@std@@PEAX@0@0@Z
	??$_Construct_in_place@PEAU?$_Tree_node@U?$pair@$$CBHURelation@Impl@Manifold@manifold@@@std@@PEAX@std@@AEBQEAU12@@std@@YAXAEAPEAU?$_Tree_node@U?$pair@$$CBHURelation@Impl@Manifold@manifold@@@std@@PEAX@0@AEBQEAU10@@Z
	??$_Construct_in_place@PEAU?$_Tree_node@U?$pair@$$CBHV?$vector@U?$pair@USmoothness@manifold@@U12@@std@@V?$allocator@U?$pair@USmoothness@manifold@@U12@@std@@@2@@std@@@std@@PEAX@std@@AEAPEAU12@@std@@YAXAEAPEAU?$_Tree_node@U?$pair@$$CBHV?$vector@U?$pair@USmoothness@manifold@@U12@@std@@V?$allocator@U?$pair@USmoothness@manifold@@U12@@std@@@2@@std@@@std@@PEAX@0@0@Z
	??$_Construct_in_place@PEAU?$_Tree_node@U?$pair@$$CBHV?$vector@U?$pair@USmoothness@manifold@@U12@@std@@V?$allocator@U?$pair@USmoothness@manifold@@U12@@std@@@2@@std@@@std@@PEAX@std@@AEBQEAU12@@std@@YAXAEAPEAU?$_Tree_node@U?$pair@$$CBHV?$vector@U?$pair@USmoothness@manifold@@U12@@std@@V?$allocator@U?$pair@USmoothness@manifold@@U12@@std@@@2@@std@@@std@@PEAX@0@AEBQEAU10@@Z
	??$_Construct_in_place@PEAU?$_Tree_node@U?$pair@HH@std@@PEAX@std@@AEAPEAU12@@std@@YAXAEAPEAU?$_Tree_node@U?$pair@HH@std@@PEAX@0@0@Z
	??$_Construct_in_place@PEAU?$_Tree_node@U?$pair@HH@std@@PEAX@std@@AEBQEAU12@@std@@YAXAEAPEAU?$_Tree_node@U?$pair@HH@std@@PEAX@0@AEBQEAU10@@Z
	??$_Construct_in_place@UCsgStackFrame@manifold@@_NAEAW4OpType@2@AEAU?$mat@N$02$03@linalg@@AEAPEAV?$vector@V?$shared_ptr@VCsgLeafNode@manifold@@@std@@V?$allocator@V?$shared_ptr@VCsgLeafNode@manifold@@@std@@@2@@std@@AEAPEAV67@V?$shared_ptr@$$CBVCsgOpNode@manifold@@@7@@std@@YAXAEAUCsgStackFrame@manifold@@$$QEA_NAEAW4OpType@2@AEAU?$mat@N$02$03@linalg@@AEAPEAV?$vector@V?$shared_ptr@VCsgLeafNode@manifold@@@std@@V?$allocator@V?$shared_ptr@VCsgLeafNode@manifold@@@std@@@2@@0@4$$QEAV?$shared_ptr@$$CBVCsgOpNode@manifold@@@0@@Z
	??$_Construct_in_place@UCsgStackFrame@manifold@@_NAEBW4OpType@2@AEBUidentity_t@linalg@@$$T$$TV?$shared_ptr@$$CBVCsgOpNode@manifold@@@std@@@std@@YAXAEAUCsgStackFrame@manifold@@$$QEA_NAEBW4OpType@2@AEBUidentity_t@linalg@@$$QEA$$T4$$QEAV?$shared_ptr@$$CBVCsgOpNode@manifold@@@0@@Z
	??$_Construct_in_place@UHalfedge@manifold@@U12@@std@@YAXAEAUHalfedge@manifold@@$$QEAU12@@Z
	??$_Construct_in_place@UImpl@Manifold@manifold@@$$V@std@@YAXAEAUImpl@Manifold@manifold@@@Z
	??$_Construct_in_place@UImpl@Manifold@manifold@@AEAU123@@std@@YAXAEAUImpl@Manifold@manifold@@0@Z
	??$_Construct_in_place@UImpl@Manifold@manifold@@AEBU123@@std@@YAXAEAUImpl@Manifold@manifold@@AEBU123@@Z
	??$_Construct_in_place@UImpl@Manifold@manifold@@AEBU?$MeshGLP@MI@3@@std@@YAXAEAUImpl@Manifold@manifold@@AEBU?$MeshGLP@MI@3@@Z
	??$_Construct_in_place@UImpl@Manifold@manifold@@AEBU?$MeshGLP@N_K@3@@std@@YAXAEAUImpl@Manifold@manifold@@AEBU?$MeshGLP@N_K@3@@Z
	??$_Construct_in_place@UImpl@Manifold@manifold@@W4Shape@123@@std@@YAXAEAUImpl@Manifold@manifold@@$$QEAW4Shape@123@@Z
	??$_Construct_in_place@UImpl@Manifold@manifold@@W4Shape@123@AEAU?$mat@N$02$03@linalg@@@std@@YAXAEAUImpl@Manifold@manifold@@$$QEAW4Shape@123@AEAU?$mat@N$02$03@linalg@@@Z
	??$_Construct_in_place@U_Container_proxy@std@@PEAU_Container_base12@2@@std@@YAXAEAU_Container_proxy@0@$$QEAPEAU_Container_base12@0@@Z
	??$_Construct_in_place@V?$_List_unchecked_const_iterator@V?$_List_val@U?$_List_simple_types@H@std@@@std@@U_Iterator_base0@2@@std@@AEBV12@@std@@YAXAEAV?$_List_unchecked_const_iterator@V?$_List_val@U?$_List_simple_types@H@std@@@std@@U_Iterator_base0@2@@0@AEBV10@@Z
	??$_Construct_in_place@V?$_List_unchecked_iterator@V?$_List_val@U?$_List_simple_types@U?$pair@$$CBHH@std@@@std@@@std@@@std@@AEBV12@@std@@YAXAEAV?$_List_unchecked_iterator@V?$_List_val@U?$_List_simple_types@U?$pair@$$CBHH@std@@@std@@@std@@@0@AEBV10@@Z
	??$_Construct_in_place@V?$_List_unchecked_iterator@V?$_List_val@U?$_List_simple_types@U?$pair@$$CB_K_K@std@@@std@@@std@@@std@@AEBV12@@std@@YAXAEAV?$_List_unchecked_iterator@V?$_List_val@U?$_List_simple_types@U?$pair@$$CB_K_K@std@@@std@@@std@@@0@AEBV10@@Z
	??$_Construct_in_place@V?$vector@V?$shared_ptr@VCsgNode@manifold@@@std@@V?$allocator@V?$shared_ptr@VCsgNode@manifold@@@std@@@2@@std@@AEAV12@@std@@YAXAEAV?$vector@V?$shared_ptr@VCsgNode@manifold@@@std@@V?$allocator@V?$shared_ptr@VCsgNode@manifold@@@std@@@2@@0@0@Z
	??$_Construct_in_place@VCsgLeafNode@manifold@@$$V@std@@YAXAEAVCsgLeafNode@manifold@@@Z
	??$_Construct_in_place@VCsgLeafNode@manifold@@AEAV?$shared_ptr@$$CBUImpl@Manifold@manifold@@@std@@U?$mat@N$02$03@linalg@@@std@@YAXAEAVCsgLeafNode@manifold@@AEAV?$shared_ptr@$$CBUImpl@Manifold@manifold@@@0@$$QEAU?$mat@N$02$03@linalg@@@Z
	??$_Construct_in_place@VCsgLeafNode@manifold@@AEAV?$shared_ptr@UImpl@Manifold@manifold@@@std@@@std@@YAXAEAVCsgLeafNode@manifold@@AEAV?$shared_ptr@UImpl@Manifold@manifold@@@0@@Z
	??$_Construct_in_place@VCsgLeafNode@manifold@@AEBV12@@std@@YAXAEAVCsgLeafNode@manifold@@AEBV12@@Z
	??$_Construct_in_place@VCsgLeafNode@manifold@@V?$shared_ptr@UImpl@Manifold@manifold@@@std@@@std@@YAXAEAVCsgLeafNode@manifold@@$$QEAV?$shared_ptr@UImpl@Manifold@manifold@@@0@@Z
	??$_Construct_in_place@VCsgLeafNode@manifold@@V?$unique_ptr@UImpl@Manifold@manifold@@U?$default_delete@UImpl@Manifold@manifold@@@std@@@std@@@std@@YAXAEAVCsgLeafNode@manifold@@$$QEAV?$unique_ptr@UImpl@Manifold@manifold@@U?$default_delete@UImpl@Manifold@manifold@@@std@@@0@@Z
	??$_Construct_in_place@VCsgOpNode@manifold@@$$V@std@@YAXAEAVCsgOpNode@manifold@@@Z
	??$_Construct_in_place@VCsgOpNode@manifold@@AEAV?$vector@V?$shared_ptr@VCsgNode@manifold@@@std@@V?$allocator@V?$shared_ptr@VCsgNode@manifold@@@std@@@2@@std@@AEAW4OpType@2@@std@@YAXAEAVCsgOpNode@manifold@@AEAV?$vector@V?$shared_ptr@VCsgNode@manifold@@@std@@V?$allocator@V?$shared_ptr@VCsgNode@manifold@@@std@@@2@@0@AEAW4OpType@2@@Z
	??$_Construct_in_place@Vrecursive_mutex@std@@$$V@std@@YAXAEAVrecursive_mutex@0@@Z
	??$_Construct_in_place@_J_J@std@@YAXAEA_J$$QEA_J@Z
	??$_Construct_n_copies_of_ty@H@?$vector@HV?$allocator@H@std@@@std@@AEAAX_KAEBH@Z
	??$_Construct_n_copies_of_ty@I@?$vector@IV?$allocator@I@std@@@std@@AEAAX_KAEBI@Z
	??$_Construct_n_copies_of_ty@U_Value_init_tag@std@@@?$vector@HV?$allocator@H@std@@@std@@AEAAX_KAEBU_Value_init_tag@1@@Z
	??$_Construct_n_copies_of_ty@U_Value_init_tag@std@@@?$vector@NV?$allocator@N@std@@@std@@AEAAX_KAEBU_Value_init_tag@1@@Z
	??$_Construct_n_copies_of_ty@U_Value_init_tag@std@@@?$vector@U?$Point@N@Clipper2Lib@@V?$allocator@U?$Point@N@Clipper2Lib@@@std@@@std@@AEAAX_KAEBU_Value_init_tag@1@@Z
	??$_Construct_n_copies_of_ty@U_Value_init_tag@std@@@?$vector@U?$vec@N$01@linalg@@V?$allocator@U?$vec@N$01@linalg@@@std@@@std@@AEAAX_KAEBU_Value_init_tag@1@@Z
	??$_Construct_n_copies_of_ty@U_Value_init_tag@std@@@?$vector@V?$vector@U?$Point@N@Clipper2Lib@@V?$allocator@U?$Point@N@Clipper2Lib@@@std@@@std@@V?$allocator@V?$vector@U?$Point@N@Clipper2Lib@@V?$allocator@U?$Point@N@Clipper2Lib@@@std@@@std@@@2@@std@@AEAAX_KAEBU_Value_init_tag@1@@Z
	??$_Construct_n_copies_of_ty@U_Value_init_tag@std@@@?$vector@V?$vector@U?$pair@U?$vec@H$02@linalg@@H@std@@V?$allocator@U?$pair@U?$vec@H$02@linalg@@H@std@@@2@@std@@V?$allocator@V?$vector@U?$pair@U?$vec@H$02@linalg@@H@std@@V?$allocator@U?$pair@U?$vec@H$02@linalg@@H@std@@@2@@std@@@2@@std@@AEAAX_KAEBU_Value_init_tag@1@@Z
	??$_Construct_n_copies_of_ty@U_Value_init_tag@std@@@?$vector@V?$vector@U?$vec@H$01@linalg@@V?$allocator@U?$vec@H$01@linalg@@@std@@@std@@V?$allocator@V?$vector@U?$vec@H$01@linalg@@V?$allocator@U?$vec@H$01@linalg@@@std@@@std@@@2@@std@@AEAAX_KAEBU_Value_init_tag@1@@Z
	??$_Construct_n_copies_of_ty@U_Value_init_tag@std@@@?$vector@VManifold@manifold@@V?$allocator@VManifold@manifold@@@std@@@std@@AEAAX_KAEBU_Value_init_tag@1@@Z
	??$_Convert_size@_K@std@@YA_K_K@Z
	??$_Copy@U_Copy_tag@?$_Tree@V?$_Tmap_traits@HURelation@Impl@Manifold@manifold@@U?$less@H@std@@V?$allocator@U?$pair@$$CBHURelation@Impl@Manifold@manifold@@@std@@@6@$0A@@std@@@std@@@?$_Tree@V?$_Tmap_traits@HURelation@Impl@Manifold@manifold@@U?$less@H@std@@V?$allocator@U?$pair@$$CBHURelation@Impl@Manifold@manifold@@@std@@@6@$0A@@std@@@std@@IEAAXAEBV01@U_Copy_tag@01@@Z
	??$_Copy_backward_memmove@PEAHPEAH@std@@YAPEAHPEAH00@Z
	??$_Copy_backward_memmove@PEAU?$vec@N$01@linalg@@PEAU12@@std@@YAPEAU?$vec@N$01@linalg@@PEAU12@00@Z
	??$_Copy_backward_memmove@PEAUHalfedge@manifold@@PEAU12@@std@@YAPEAUHalfedge@manifold@@PEAU12@00@Z
	??$_Copy_backward_memmove@PEA_JPEA_J@std@@YAPEA_JPEA_J00@Z
	??$_Copy_construct_from@$$CBUImpl@Manifold@manifold@@@?$_Ptr_base@$$CBUImpl@Manifold@manifold@@@std@@IEAAXAEBV?$shared_ptr@$$CBUImpl@Manifold@manifold@@@1@@Z
	??$_Copy_construct_from@$$CBUPathImpl@manifold@@@?$_Ptr_base@$$CBUPathImpl@manifold@@@std@@IEAAXAEBV?$shared_ptr@$$CBUPathImpl@manifold@@@1@@Z
	??$_Copy_construct_from@$$CBVCsgOpNode@manifold@@@?$_Ptr_base@$$CBVCsgOpNode@manifold@@@std@@IEAAXAEBV?$shared_ptr@$$CBVCsgOpNode@manifold@@@1@@Z
	??$_Copy_construct_from@UCsgStackFrame@manifold@@@?$_Ptr_base@UCsgStackFrame@manifold@@@std@@IEAAXAEBV?$shared_ptr@UCsgStackFrame@manifold@@@1@@Z
	??$_Copy_construct_from@UImpl@Manifold@manifold@@@?$_Ptr_base@$$CBUImpl@Manifold@manifold@@@std@@IEAAXAEBV?$shared_ptr@UImpl@Manifold@manifold@@@1@@Z
	??$_Copy_construct_from@UImpl@Manifold@manifold@@@?$_Ptr_base@UImpl@Manifold@manifold@@@std@@IEAAXAEBV?$shared_ptr@UImpl@Manifold@manifold@@@1@@Z
	??$_Copy_construct_from@V?$vector@V?$shared_ptr@VCsgNode@manifold@@@std@@V?$allocator@V?$shared_ptr@VCsgNode@manifold@@@std@@@2@@std@@@?$_Ptr_base@V?$vector@V?$shared_ptr@VCsgNode@manifold@@@std@@V?$allocator@V?$shared_ptr@VCsgNode@manifold@@@std@@@2@@std@@@std@@IEAAXAEBV?$shared_ptr@V?$vector@V?$shared_ptr@VCsgNode@manifold@@@std@@V?$allocator@V?$shared_ptr@VCsgNode@manifold@@@std@@@2@@std@@@1@@Z
	??$_Copy_construct_from@VCsgLeafNode@manifold@@@?$_Ptr_base@VCsgLeafNode@manifold@@@std@@IEAAXAEBV?$shared_ptr@VCsgLeafNode@manifold@@@1@@Z
	??$_Copy_construct_from@VCsgLeafNode@manifold@@@?$_Ptr_base@VCsgNode@manifold@@@std@@IEAAXAEBV?$shared_ptr@VCsgLeafNode@manifold@@@1@@Z
	??$_Copy_construct_from@VCsgNode@manifold@@@?$_Ptr_base@VCsgNode@manifold@@@std@@IEAAXAEBV?$shared_ptr@VCsgNode@manifold@@@1@@Z
	??$_Copy_construct_from@Vrecursive_mutex@std@@@?$_Ptr_base@Vrecursive_mutex@std@@@std@@IEAAXAEBV?$shared_ptr@Vrecursive_mutex@std@@@1@@Z
	??$_Copy_memmove@PEADPEAD@std@@YAPEADPEAD00@Z
	??$_Copy_memmove@PEAEPEAE@std@@YAPEAEPEAE00@Z
	??$_Copy_memmove@PEAHPEAH@std@@YAPEAHPEAH00@Z
	??$_Copy_memmove@PEAIPEAI@std@@YAPEAIPEAI00@Z
	??$_Copy_memmove@PEAMPEAM@std@@YAPEAMPEAM00@Z
	??$_Copy_memmove@PEANPEAN@std@@YAPEANPEAN00@Z
	??$_Copy_memmove@PEAPEAHPEAPEAH@std@@YAPEAPEAHPEAPEAH00@Z
	??$_Copy_memmove@PEAU?$Point@N@Clipper2Lib@@PEAU12@@std@@YAPEAU?$Point@N@Clipper2Lib@@PEAU12@00@Z
	??$_Copy_memmove@PEAU?$vec@H$02@linalg@@PEAU12@@std@@YAPEAU?$vec@H$02@linalg@@PEAU12@00@Z
	??$_Copy_memmove@PEAU?$vec@H$03@linalg@@PEAU12@@std@@YAPEAU?$vec@H$03@linalg@@PEAU12@00@Z
	??$_Copy_memmove@PEAU?$vec@N$02@linalg@@PEAU12@@std@@YAPEAU?$vec@N$02@linalg@@PEAU12@00@Z
	??$_Copy_memmove@PEAU?$vec@N$03@linalg@@PEAU12@@std@@YAPEAU?$vec@N$03@linalg@@PEAU12@00@Z
	??$_Copy_memmove@PEAUBarycentric@manifold@@PEAU12@@std@@YAPEAUBarycentric@manifold@@PEAU12@00@Z
	??$_Copy_memmove@PEAUBox@manifold@@PEAU12@@std@@YAPEAUBox@manifold@@PEAU12@00@Z
	??$_Copy_memmove@PEAUFaceData@QuickHull@manifold@@PEAU123@@std@@YAPEAUFaceData@QuickHull@manifold@@PEAU123@00@Z
	??$_Copy_memmove@PEAUHalfedge@manifold@@PEAU12@@std@@YAPEAUHalfedge@manifold@@PEAU12@00@Z
	??$_Copy_memmove@PEAUSmoothness@manifold@@PEAU12@@std@@YAPEAUSmoothness@manifold@@PEAU12@00@Z
	??$_Copy_memmove@PEAUTmpEdge@manifold@@PEAU12@@std@@YAPEAUTmpEdge@manifold@@PEAU12@00@Z
	??$_Copy_memmove@PEAUTriRef@manifold@@PEAU12@@std@@YAPEAUTriRef@manifold@@PEAU12@00@Z
	??$_Copy_memmove@PEA_JPEA_J@std@@YAPEA_JPEA_J00@Z
	??$_Copy_memmove@PEA_KPEA_K@std@@YAPEA_KPEA_K00@Z
	??$_Copy_memmove@PEA_NPEA_N@std@@YAPEA_NPEA_N00@Z
	??$_Copy_memmove@PEBDPEAD@std@@YAPEADPEBD0PEAD@Z
	??$_Copy_memmove@PEBHPEAH@std@@YAPEAHPEBH0PEAH@Z
	??$_Copy_memmove@PEBIPEAI@std@@YAPEAIPEBI0PEAI@Z
	??$_Copy_memmove@PEBMPEAM@std@@YAPEAMPEBM0PEAM@Z
	??$_Copy_memmove@PEBNPEAN@std@@YAPEANPEBN0PEAN@Z
	??$_Copy_memmove@PEBU?$vec@H$02@linalg@@PEAU12@@std@@YAPEAU?$vec@H$02@linalg@@PEBU12@0PEAU12@@Z
	??$_Copy_memmove@PEBU?$vec@N$02@linalg@@PEAU12@@std@@YAPEAU?$vec@N$02@linalg@@PEBU12@0PEAU12@@Z
	??$_Copy_memmove@PEBU?$vec@N$03@linalg@@PEAU12@@std@@YAPEAU?$vec@N$03@linalg@@PEBU12@0PEAU12@@Z
	??$_Copy_memmove@PEBUBox@manifold@@PEAU12@@std@@YAPEAUBox@manifold@@PEBU12@0PEAU12@@Z
	??$_Copy_memmove@PEBUHalfedge@manifold@@PEAU12@@std@@YAPEAUHalfedge@manifold@@PEBU12@0PEAU12@@Z
	??$_Copy_memmove@PEBUTriRef@manifold@@PEAU12@@std@@YAPEAUTriRef@manifold@@PEBU12@0PEAU12@@Z
	??$_Copy_memmove@PEB_KPEA_K@std@@YAPEA_KPEB_K0PEA_K@Z
	??$_Copy_nodes@U_Copy_tag@?$_Tree@V?$_Tmap_traits@HURelation@Impl@Manifold@manifold@@U?$less@H@std@@V?$allocator@U?$pair@$$CBHURelation@Impl@Manifold@manifold@@@std@@@6@$0A@@std@@@std@@@?$_Tree@V?$_Tmap_traits@HURelation@Impl@Manifold@manifold@@U?$less@H@std@@V?$allocator@U?$pair@$$CBHURelation@Impl@Manifold@manifold@@@std@@@6@$0A@@std@@@std@@IEAAPEAU?$_Tree_node@U?$pair@$$CBHURelation@Impl@Manifold@manifold@@@std@@PEAX@1@PEAU21@0U_Copy_tag@01@@Z
	??$_Copy_or_move@U?$pair@$$CBHURelation@Impl@Manifold@manifold@@@std@@U?$integral_constant@_N$0A@@2@@?$_Tree@V?$_Tmap_traits@HURelation@Impl@Manifold@manifold@@U?$less@H@std@@V?$allocator@U?$pair@$$CBHURelation@Impl@Manifold@manifold@@@std@@@6@$0A@@std@@@std@@IEAAPEAU?$_Tree_node@U?$pair@$$CBHURelation@Impl@Manifold@manifold@@@std@@PEAX@1@AEAU?$pair@$$CBHURelation@Impl@Manifold@manifold@@@1@U_Copy_tag@01@U?$integral_constant@_N$0A@@1@@Z
	??$_Copy_unchecked@PEADPEAD@std@@YAPEADPEAD00@Z
	??$_Copy_unchecked@PEAEPEAE@std@@YAPEAEPEAE00@Z
	??$_Copy_unchecked@PEAHPEAH@std@@YAPEAHPEAH00@Z
	??$_Copy_unchecked@PEAIPEAI@std@@YAPEAIPEAI00@Z
	??$_Copy_unchecked@PEANPEAN@std@@YAPEANPEAN00@Z
	??$_Copy_unchecked@PEAU?$Point@N@Clipper2Lib@@PEAU12@@std@@YAPEAU?$Point@N@Clipper2Lib@@PEAU12@00@Z
	??$_Copy_unchecked@PEAU?$pair@HH@std@@PEAU12@@std@@YAPEAU?$pair@HH@0@PEAU10@00@Z
	??$_Copy_unchecked@PEAU?$vec@H$02@linalg@@PEAU12@@std@@YAPEAU?$vec@H$02@linalg@@PEAU12@00@Z
	??$_Copy_unchecked@PEAU?$vec@H$03@linalg@@PEAU12@@std@@YAPEAU?$vec@H$03@linalg@@PEAU12@00@Z
	??$_Copy_unchecked@PEAU?$vec@N$02@linalg@@PEAU12@@std@@YAPEAU?$vec@N$02@linalg@@PEAU12@00@Z
	??$_Copy_unchecked@PEAU?$vec@N$03@linalg@@PEAU12@@std@@YAPEAU?$vec@N$03@linalg@@PEAU12@00@Z
	??$_Copy_unchecked@PEAUBarycentric@manifold@@PEAU12@@std@@YAPEAUBarycentric@manifold@@PEAU12@00@Z
	??$_Copy_unchecked@PEAUBox@manifold@@PEAU12@@std@@YAPEAUBox@manifold@@PEAU12@00@Z
	??$_Copy_unchecked@PEAUFaceData@QuickHull@manifold@@PEAU123@@std@@YAPEAUFaceData@QuickHull@manifold@@PEAU123@00@Z
	??$_Copy_unchecked@PEAUHalfedge@manifold@@PEAU12@@std@@YAPEAUHalfedge@manifold@@PEAU12@00@Z
	??$_Copy_unchecked@PEAUTmpEdge@manifold@@PEAU12@@std@@YAPEAUTmpEdge@manifold@@PEAU12@00@Z
	??$_Copy_unchecked@PEAUTriRef@manifold@@PEAU12@@std@@YAPEAUTriRef@manifold@@PEAU12@00@Z
	??$_Copy_unchecked@PEA_JPEA_J@std@@YAPEA_JPEA_J00@Z
	??$_Copy_unchecked@PEA_KPEA_K@std@@YAPEA_KPEA_K00@Z
	??$_Copy_unchecked@PEA_NPEA_N@std@@YAPEA_NPEA_N00@Z
	??$_Copy_unchecked@PEBDPEAD@std@@YAPEADPEBD0PEAD@Z
	??$_Copy_unchecked@PEBHPEAH@std@@YAPEAHPEBH0PEAH@Z
	??$_Copy_unchecked@PEBIPEAI@std@@YAPEAIPEBI0PEAI@Z
	??$_Copy_unchecked@PEBMPEAM@std@@YAPEAMPEBM0PEAM@Z
	??$_Copy_unchecked@PEBNPEAN@std@@YAPEANPEBN0PEAN@Z
	??$_Copy_unchecked@PEBU?$pair@HH@std@@PEAU12@@std@@YAPEAU?$pair@HH@0@PEBU10@0PEAU10@@Z
	??$_Copy_unchecked@PEBU?$vec@H$02@linalg@@PEAU12@@std@@YAPEAU?$vec@H$02@linalg@@PEBU12@0PEAU12@@Z
	??$_Copy_unchecked@PEBU?$vec@N$02@linalg@@PEAU12@@std@@YAPEAU?$vec@N$02@linalg@@PEBU12@0PEAU12@@Z
	??$_Copy_unchecked@PEBU?$vec@N$03@linalg@@PEAU12@@std@@YAPEAU?$vec@N$03@linalg@@PEBU12@0PEAU12@@Z
	??$_Copy_unchecked@PEBUBox@manifold@@PEAU12@@std@@YAPEAUBox@manifold@@PEBU12@0PEAU12@@Z
	??$_Copy_unchecked@PEBUBox@manifold@@UStridedRangeIter@?$StridedRange@PEAUBox@manifold@@@2@@std@@YA?AUStridedRangeIter@?$StridedRange@PEAUBox@manifold@@@manifold@@PEBUBox@3@0U123@@Z
	??$_Copy_unchecked@PEBUHalfedge@manifold@@PEAU12@@std@@YAPEAUHalfedge@manifold@@PEBU12@0PEAU12@@Z
	??$_Copy_unchecked@PEBUTriRef@manifold@@PEAU12@@std@@YAPEAUTriRef@manifold@@PEBU12@0PEAU12@@Z
	??$_Copy_unchecked@PEBV?$shared_ptr@VCsgNode@manifold@@@std@@PEAV12@@std@@YAPEAV?$shared_ptr@VCsgNode@manifold@@@0@PEBV10@0PEAV10@@Z
	??$_Copy_unchecked@PEB_KPEA_K@std@@YAPEA_KPEB_K0PEA_K@Z
	??$_Copy_unchecked@UStridedRangeIter@?$StridedRange@PEBN@manifold@@U1?$StridedRange@PEAN@3@@std@@YA?AUStridedRangeIter@?$StridedRange@PEAN@manifold@@U1?$StridedRange@PEBN@3@0U123@@Z
	??$_Deallocate@$07$0A@@std@@YAXPEAX_K@Z
	??$_Deallocate@$0BA@$0A@@std@@YAXPEAX_K@Z
	??$_Deallocate_plain@V?$allocator@U_Container_proxy@std@@@std@@@std@@YAXAEAV?$allocator@U_Container_proxy@std@@@0@QEAU_Container_proxy@0@@Z
	??$_Delete_plain_internal@V?$allocator@U_Container_proxy@std@@@std@@@std@@YAXAEAV?$allocator@U_Container_proxy@std@@@0@QEAU_Container_proxy@0@@Z
	??$_Destroy_in_place@$$CBUImpl@Manifold@manifold@@@std@@YAXAEBUImpl@Manifold@manifold@@@Z
	??$_Destroy_in_place@$$CBUPathImpl@manifold@@@std@@YAXAEBUPathImpl@manifold@@@Z
	??$_Destroy_in_place@PEAD@std@@YAXAEAPEAD@Z
	??$_Destroy_in_place@PEAH@std@@YAXAEAPEAH@Z
	??$_Destroy_in_place@PEAU?$_List_node@HPEAX@std@@@std@@YAXAEAPEAU?$_List_node@HPEAX@0@@Z
	??$_Destroy_in_place@PEAU?$_List_node@U?$pair@$$CBHH@std@@PEAX@std@@@std@@YAXAEAPEAU?$_List_node@U?$pair@$$CBHH@std@@PEAX@0@@Z
	??$_Destroy_in_place@PEAU?$_List_node@U?$pair@$$CB_K_K@std@@PEAX@std@@@std@@YAXAEAPEAU?$_List_node@U?$pair@$$CB_K_K@std@@PEAX@0@@Z
	??$_Destroy_in_place@PEAU?$_Tree_node@U?$pair@$$CBHH@std@@PEAX@std@@@std@@YAXAEAPEAU?$_Tree_node@U?$pair@$$CBHH@std@@PEAX@0@@Z
	??$_Destroy_in_place@PEAU?$_Tree_node@U?$pair@$$CBHU?$pair@USmoothness@manifold@@U12@@std@@@std@@PEAX@std@@@std@@YAXAEAPEAU?$_Tree_node@U?$pair@$$CBHU?$pair@USmoothness@manifold@@U12@@std@@@std@@PEAX@0@@Z
	??$_Destroy_in_place@PEAU?$_Tree_node@U?$pair@$$CBHURelation@Impl@Manifold@manifold@@@std@@PEAX@std@@@std@@YAXAEAPEAU?$_Tree_node@U?$pair@$$CBHURelation@Impl@Manifold@manifold@@@std@@PEAX@0@@Z
	??$_Destroy_in_place@PEAU?$_Tree_node@U?$pair@$$CBHV?$vector@U?$pair@USmoothness@manifold@@U12@@std@@V?$allocator@U?$pair@USmoothness@manifold@@U12@@std@@@2@@std@@@std@@PEAX@std@@@std@@YAXAEAPEAU?$_Tree_node@U?$pair@$$CBHV?$vector@U?$pair@USmoothness@manifold@@U12@@std@@V?$allocator@U?$pair@USmoothness@manifold@@U12@@std@@@2@@std@@@std@@PEAX@0@@Z
	??$_Destroy_in_place@PEAU?$_Tree_node@U?$pair@HH@std@@PEAX@std@@@std@@YAXAEAPEAU?$_Tree_node@U?$pair@HH@std@@PEAX@0@@Z
	??$_Destroy_in_place@UCsgStackFrame@manifold@@@std@@YAXAEAUCsgStackFrame@manifold@@@Z
	??$_Destroy_in_place@UImpl@Manifold@manifold@@@std@@YAXAEAUImpl@Manifold@manifold@@@Z
	??$_Destroy_in_place@V?$vector@V?$shared_ptr@VCsgNode@manifold@@@std@@V?$allocator@V?$shared_ptr@VCsgNode@manifold@@@std@@@2@@std@@@std@@YAXAEAV?$vector@V?$shared_ptr@VCsgNode@manifold@@@std@@V?$allocator@V?$shared_ptr@VCsgNode@manifold@@@std@@@2@@0@@Z
	??$_Destroy_in_place@VCsgLeafNode@manifold@@@std@@YAXAEAVCsgLeafNode@manifold@@@Z
	??$_Destroy_in_place@VCsgOpNode@manifold@@@std@@YAXAEAVCsgOpNode@manifold@@@Z
	??$_Destroy_in_place@Vrecursive_mutex@std@@@std@@YAXAEAVrecursive_mutex@0@@Z
	??$_Destroy_range@PEAHPEAH@std@@YAXPEAHQEAH@Z
	??$_Destroy_range@PEAPEAHPEAPEAH@std@@YAXPEAPEAHQEAPEAH@Z
	??$_Destroy_range@PEAUHalfedge@manifold@@PEAU12@@std@@YAXPEAUHalfedge@manifold@@QEAU12@@Z
	??$_Destroy_range@PEAV?$_List_unchecked_const_iterator@V?$_List_val@U?$_List_simple_types@H@std@@@std@@U_Iterator_base0@2@@std@@PEAV12@@std@@YAXPEAV?$_List_unchecked_const_iterator@V?$_List_val@U?$_List_simple_types@H@std@@@std@@U_Iterator_base0@2@@0@QEAV10@@Z
	??$_Destroy_range@PEAV?$_List_unchecked_iterator@V?$_List_val@U?$_List_simple_types@U?$pair@$$CBHH@std@@@std@@@std@@@std@@PEAV12@@std@@YAXPEAV?$_List_unchecked_iterator@V?$_List_val@U?$_List_simple_types@U?$pair@$$CBHH@std@@@std@@@std@@@0@QEAV10@@Z
	??$_Destroy_range@PEAV?$_List_unchecked_iterator@V?$_List_val@U?$_List_simple_types@U?$pair@$$CB_K_K@std@@@std@@@std@@@std@@PEAV12@@std@@YAXPEAV?$_List_unchecked_iterator@V?$_List_val@U?$_List_simple_types@U?$pair@$$CB_K_K@std@@@std@@@std@@@0@QEAV10@@Z
	??$_Destroy_range@PEA_JPEA_J@std@@YAXPEA_JQEA_J@Z
	??$_Destroy_range@V?$allocator@H@std@@@std@@YAXPEAHQEAHAEAV?$allocator@H@0@@Z
	??$_Destroy_range@V?$allocator@I@std@@@std@@YAXPEAIQEAIAEAV?$allocator@I@0@@Z
	??$_Destroy_range@V?$allocator@M@std@@@std@@YAXPEAMQEAMAEAV?$allocator@M@0@@Z
	??$_Destroy_range@V?$allocator@N@std@@@std@@YAXPEANQEANAEAV?$allocator@N@0@@Z
	??$_Destroy_range@V?$allocator@PEAUOutRec@Clipper2Lib@@@std@@@std@@YAXPEAPEAUOutRec@Clipper2Lib@@QEAPEAU12@AEAV?$allocator@PEAUOutRec@Clipper2Lib@@@0@@Z
	??$_Destroy_range@V?$allocator@PEAUVertex@Clipper2Lib@@@std@@@std@@YAXPEAPEAUVertex@Clipper2Lib@@QEAPEAU12@AEAV?$allocator@PEAUVertex@Clipper2Lib@@@0@@Z
	??$_Destroy_range@V?$allocator@U?$Point@N@Clipper2Lib@@@std@@@std@@YAXPEAU?$Point@N@Clipper2Lib@@QEAU12@AEAV?$allocator@U?$Point@N@Clipper2Lib@@@0@@Z
	??$_Destroy_range@V?$allocator@U?$Point@_J@Clipper2Lib@@@std@@@std@@YAXPEAU?$Point@_J@Clipper2Lib@@QEAU12@AEAV?$allocator@U?$Point@_J@Clipper2Lib@@@0@@Z
	??$_Destroy_range@V?$allocator@U?$mat@N$02$02@linalg@@@std@@@std@@YAXPEAU?$mat@N$02$02@linalg@@QEAU12@AEAV?$allocator@U?$mat@N$02$02@linalg@@@0@@Z
	??$_Destroy_range@V?$allocator@U?$pair@U?$vec@H$02@linalg@@H@std@@@std@@@std@@YAXPEAU?$pair@U?$vec@H$02@linalg@@H@0@QEAU10@AEAV?$allocator@U?$pair@U?$vec@H$02@linalg@@H@std@@@0@@Z
	??$_Destroy_range@V?$allocator@U?$pair@USmoothness@manifold@@U12@@std@@@std@@@std@@YAXPEAU?$pair@USmoothness@manifold@@U12@@0@QEAU10@AEAV?$allocator@U?$pair@USmoothness@manifold@@U12@@std@@@0@@Z
	??$_Destroy_range@V?$allocator@U?$vec@H$01@linalg@@@std@@@std@@YAXPEAU?$vec@H$01@linalg@@QEAU12@AEAV?$allocator@U?$vec@H$01@linalg@@@0@@Z
	??$_Destroy_range@V?$allocator@U?$vec@H$02@linalg@@@std@@@std@@YAXPEAU?$vec@H$02@linalg@@QEAU12@AEAV?$allocator@U?$vec@H$02@linalg@@@0@@Z
	??$_Destroy_range@V?$allocator@U?$vec@N$01@linalg@@@std@@@std@@YAXPEAU?$vec@N$01@linalg@@QEAU12@AEAV?$allocator@U?$vec@N$01@linalg@@@0@@Z
	??$_Destroy_range@V?$allocator@U?$vec@N$02@linalg@@@std@@@std@@YAXPEAU?$vec@N$02@linalg@@QEAU12@AEAV?$allocator@U?$vec@N$02@linalg@@@0@@Z
	??$_Destroy_range@V?$allocator@UFace@MeshBuilder@manifold@@@std@@@std@@YAXPEAUFace@MeshBuilder@manifold@@QEAU123@AEAV?$allocator@UFace@MeshBuilder@manifold@@@0@@Z
	??$_Destroy_range@V?$allocator@UHalfedge@manifold@@@std@@@std@@YAXPEAUHalfedge@manifold@@QEAU12@AEAV?$allocator@UHalfedge@manifold@@@0@@Z
	??$_Destroy_range@V?$allocator@UHorzJoin@Clipper2Lib@@@std@@@std@@YAXPEAUHorzJoin@Clipper2Lib@@QEAU12@AEAV?$allocator@UHorzJoin@Clipper2Lib@@@0@@Z
	??$_Destroy_range@V?$allocator@UHorzSegment@Clipper2Lib@@@std@@@std@@YAXPEAUHorzSegment@Clipper2Lib@@QEAU12@AEAV?$allocator@UHorzSegment@Clipper2Lib@@@0@@Z
	??$_Destroy_range@V?$allocator@UIntersectNode@Clipper2Lib@@@std@@@std@@YAXPEAUIntersectNode@Clipper2Lib@@QEAU12@AEAV?$allocator@UIntersectNode@Clipper2Lib@@@0@@Z
	??$_Destroy_range@V?$allocator@UPolyVert@manifold@@@std@@@std@@YAXPEAUPolyVert@manifold@@QEAU12@AEAV?$allocator@UPolyVert@manifold@@@0@@Z
	??$_Destroy_range@V?$allocator@USmoothness@manifold@@@std@@@std@@YAXPEAUSmoothness@manifold@@QEAU12@AEAV?$allocator@USmoothness@manifold@@@0@@Z
	??$_Destroy_range@V?$allocator@V?$Vec@_K@manifold@@@std@@@std@@YAXPEAV?$Vec@_K@manifold@@QEAV12@AEAV?$allocator@V?$Vec@_K@manifold@@@0@@Z
	??$_Destroy_range@V?$allocator@V?$shared_ptr@UCsgStackFrame@manifold@@@std@@@std@@@std@@YAXPEAV?$shared_ptr@UCsgStackFrame@manifold@@@0@QEAV10@AEAV?$allocator@V?$shared_ptr@UCsgStackFrame@manifold@@@std@@@0@@Z
	??$_Destroy_range@V?$allocator@V?$shared_ptr@VCsgLeafNode@manifold@@@std@@@std@@@std@@YAXPEAV?$shared_ptr@VCsgLeafNode@manifold@@@0@QEAV10@AEAV?$allocator@V?$shared_ptr@VCsgLeafNode@manifold@@@std@@@0@@Z
	??$_Destroy_range@V?$allocator@V?$shared_ptr@VCsgNode@manifold@@@std@@@std@@@std@@YAXPEAV?$shared_ptr@VCsgNode@manifold@@@0@QEAV10@AEAV?$allocator@V?$shared_ptr@VCsgNode@manifold@@@std@@@0@@Z
	??$_Destroy_range@V?$allocator@V?$shared_ptr@VCsgOpNode@manifold@@@std@@@std@@@std@@YAXPEAV?$shared_ptr@VCsgOpNode@manifold@@@0@QEAV10@AEAV?$allocator@V?$shared_ptr@VCsgOpNode@manifold@@@std@@@0@@Z
	??$_Destroy_range@V?$allocator@V?$unique_ptr@ULocalMinima@Clipper2Lib@@U?$default_delete@ULocalMinima@Clipper2Lib@@@std@@@std@@@std@@@std@@YAXPEAV?$unique_ptr@ULocalMinima@Clipper2Lib@@U?$default_delete@ULocalMinima@Clipper2Lib@@@std@@@0@QEAV10@AEAV?$allocator@V?$unique_ptr@ULocalMinima@Clipper2Lib@@U?$default_delete@ULocalMinima@Clipper2Lib@@@std@@@std@@@0@@Z
	??$_Destroy_range@V?$allocator@V?$unique_ptr@V?$Vec@_K@manifold@@U?$default_delete@V?$Vec@_K@manifold@@@std@@@std@@@std@@@std@@YAXPEAV?$unique_ptr@V?$Vec@_K@manifold@@U?$default_delete@V?$Vec@_K@manifold@@@std@@@0@QEAV10@AEAV?$allocator@V?$unique_ptr@V?$Vec@_K@manifold@@U?$default_delete@V?$Vec@_K@manifold@@@std@@@std@@@0@@Z
	??$_Destroy_range@V?$allocator@V?$unique_ptr@VPolyPathD@Clipper2Lib@@U?$default_delete@VPolyPathD@Clipper2Lib@@@std@@@std@@@std@@@std@@YAXPEAV?$unique_ptr@VPolyPathD@Clipper2Lib@@U?$default_delete@VPolyPathD@Clipper2Lib@@@std@@@0@QEAV10@AEAV?$allocator@V?$unique_ptr@VPolyPathD@Clipper2Lib@@U?$default_delete@VPolyPathD@Clipper2Lib@@@std@@@std@@@0@@Z
	??$_Destroy_range@V?$allocator@V?$vector@U?$Point@N@Clipper2Lib@@V?$allocator@U?$Point@N@Clipper2Lib@@@std@@@std@@@std@@@std@@YAXPEAV?$vector@U?$Point@N@Clipper2Lib@@V?$allocator@U?$Point@N@Clipper2Lib@@@std@@@0@QEAV10@AEAV?$allocator@V?$vector@U?$Point@N@Clipper2Lib@@V?$allocator@U?$Point@N@Clipper2Lib@@@std@@@std@@@0@@Z
	??$_Destroy_range@V?$allocator@V?$vector@U?$Point@_J@Clipper2Lib@@V?$allocator@U?$Point@_J@Clipper2Lib@@@std@@@std@@@std@@@std@@YAXPEAV?$vector@U?$Point@_J@Clipper2Lib@@V?$allocator@U?$Point@_J@Clipper2Lib@@@std@@@0@QEAV10@AEAV?$allocator@V?$vector@U?$Point@_J@Clipper2Lib@@V?$allocator@U?$Point@_J@Clipper2Lib@@@std@@@std@@@0@@Z
	??$_Destroy_range@V?$allocator@V?$vector@U?$pair@U?$vec@H$02@linalg@@H@std@@V?$allocator@U?$pair@U?$vec@H$02@linalg@@H@std@@@2@@std@@@std@@@std@@YAXPEAV?$vector@U?$pair@U?$vec@H$02@linalg@@H@std@@V?$allocator@U?$pair@U?$vec@H$02@linalg@@H@std@@@2@@0@QEAV10@AEAV?$allocator@V?$vector@U?$pair@U?$vec@H$02@linalg@@H@std@@V?$allocator@U?$pair@U?$vec@H$02@linalg@@H@std@@@2@@std@@@0@@Z
	??$_Destroy_range@V?$allocator@V?$vector@U?$vec@H$01@linalg@@V?$allocator@U?$vec@H$01@linalg@@@std@@@std@@@std@@@std@@YAXPEAV?$vector@U?$vec@H$01@linalg@@V?$allocator@U?$vec@H$01@linalg@@@std@@@0@QEAV10@AEAV?$allocator@V?$vector@U?$vec@H$01@linalg@@V?$allocator@U?$vec@H$01@linalg@@@std@@@std@@@0@@Z
	??$_Destroy_range@V?$allocator@V?$vector@U?$vec@N$01@linalg@@V?$allocator@U?$vec@N$01@linalg@@@std@@@std@@@std@@@std@@YAXPEAV?$vector@U?$vec@N$01@linalg@@V?$allocator@U?$vec@N$01@linalg@@@std@@@0@QEAV10@AEAV?$allocator@V?$vector@U?$vec@N$01@linalg@@V?$allocator@U?$vec@N$01@linalg@@@std@@@std@@@0@@Z
	??$_Destroy_range@V?$allocator@V?$vector@UPolyVert@manifold@@V?$allocator@UPolyVert@manifold@@@std@@@std@@@std@@@std@@YAXPEAV?$vector@UPolyVert@manifold@@V?$allocator@UPolyVert@manifold@@@std@@@0@QEAV10@AEAV?$allocator@V?$vector@UPolyVert@manifold@@V?$allocator@UPolyVert@manifold@@@std@@@std@@@0@@Z
	??$_Destroy_range@V?$allocator@V?$vector@V?$vector@U?$Point@N@Clipper2Lib@@V?$allocator@U?$Point@N@Clipper2Lib@@@std@@@std@@V?$allocator@V?$vector@U?$Point@N@Clipper2Lib@@V?$allocator@U?$Point@N@Clipper2Lib@@@std@@@std@@@2@@std@@@std@@@std@@YAXPEAV?$vector@V?$vector@U?$Point@N@Clipper2Lib@@V?$allocator@U?$Point@N@Clipper2Lib@@@std@@@std@@V?$allocator@V?$vector@U?$Point@N@Clipper2Lib@@V?$allocator@U?$Point@N@Clipper2Lib@@@std@@@std@@@2@@0@QEAV10@AEAV?$allocator@V?$vector@V?$vector@U?$Point@N@Clipper2Lib@@V?$allocator@U?$Point@N@Clipper2Lib@@@std@@@std@@V?$allocator@V?$vector@U?$Point@N@Clipper2Lib@@V?$allocator@U?$Point@N@Clipper2Lib@@@std@@@std@@@2@@std@@@0@@Z
	??$_Destroy_range@V?$allocator@VCrossSection@manifold@@@std@@@std@@YAXPEAVCrossSection@manifold@@QEAV12@AEAV?$allocator@VCrossSection@manifold@@@0@@Z
	??$_Destroy_range@V?$allocator@VGroup@ClipperOffset@Clipper2Lib@@@std@@@std@@YAXPEAVGroup@ClipperOffset@Clipper2Lib@@QEAV123@AEAV?$allocator@VGroup@ClipperOffset@Clipper2Lib@@@0@@Z
	??$_Destroy_range@V?$allocator@VManifold@manifold@@@std@@@std@@YAXPEAVManifold@manifold@@QEAV12@AEAV?$allocator@VManifold@manifold@@@0@@Z
	??$_Destroy_range@V?$allocator@VSparseIndices@manifold@@@std@@@std@@YAXPEAVSparseIndices@manifold@@QEAV12@AEAV?$allocator@VSparseIndices@manifold@@@0@@Z
	??$_Destroy_range@V?$allocator@_J@std@@@std@@YAXPEA_JQEA_JAEAV?$allocator@_J@0@@Z
	??$_Destroy_range@V?$allocator@_K@std@@@std@@YAXPEA_KQEA_KAEAV?$allocator@_K@0@@Z
	??$_Destroy_range@V?$cache_aligned_allocator@V?$shared_ptr@VCsgLeafNode@manifold@@@std@@@d1@detail@tbb@@@std@@YAXPEAV?$shared_ptr@VCsgLeafNode@manifold@@@0@QEAV10@AEAV?$cache_aligned_allocator@V?$shared_ptr@VCsgLeafNode@manifold@@@std@@@d1@detail@tbb@@@Z
	??$_Emplace@AEBU?$pair@HH@std@@@?$_Tree@V?$_Tset_traits@U?$pair@HH@std@@U?$less@U?$pair@HH@std@@@2@V?$allocator@U?$pair@HH@std@@@2@$00@std@@@std@@IEAA?AU?$pair@PEAU?$_Tree_node@U?$pair@HH@std@@PEAX@std@@_N@1@AEBU?$pair@HH@1@@Z
	??$_Emplace@U?$pair@HH@std@@@?$_Tree@V?$_Tmap_traits@HHU?$less@H@std@@V?$allocator@U?$pair@$$CBHH@std@@@2@$00@std@@@std@@IEAA?AU?$pair@PEAU?$_Tree_node@U?$pair@$$CBHH@std@@PEAX@std@@_N@1@$$QEAU?$pair@HH@1@@Z
	??$_Emplace_back@$$V@?$_Uninitialized_backout_al@V?$allocator@H@std@@@std@@QEAAXXZ
	??$_Emplace_back@$$V@?$_Uninitialized_backout_al@V?$allocator@I@std@@@std@@QEAAXXZ
	??$_Emplace_back@$$V@?$_Uninitialized_backout_al@V?$allocator@M@std@@@std@@QEAAXXZ
	??$_Emplace_back@$$V@?$_Uninitialized_backout_al@V?$allocator@N@std@@@std@@QEAAXXZ
	??$_Emplace_back@$$V@?$_Uninitialized_backout_al@V?$allocator@U?$Point@N@Clipper2Lib@@@std@@@std@@QEAAXXZ
	??$_Emplace_back@$$V@?$_Uninitialized_backout_al@V?$allocator@U?$vec@N$01@linalg@@@std@@@std@@QEAAXXZ
	??$_Emplace_back@$$V@?$_Uninitialized_backout_al@V?$allocator@V?$unique_ptr@VPolyPathD@Clipper2Lib@@U?$default_delete@VPolyPathD@Clipper2Lib@@@std@@@std@@@std@@@std@@QEAAXXZ
	??$_Emplace_back@$$V@?$_Uninitialized_backout_al@V?$allocator@V?$vector@U?$Point@N@Clipper2Lib@@V?$allocator@U?$Point@N@Clipper2Lib@@@std@@@std@@@std@@@std@@QEAAXXZ
	??$_Emplace_back@$$V@?$_Uninitialized_backout_al@V?$allocator@V?$vector@U?$pair@U?$vec@H$02@linalg@@H@std@@V?$allocator@U?$pair@U?$vec@H$02@linalg@@H@std@@@2@@std@@@std@@@std@@QEAAXXZ
	??$_Emplace_back@$$V@?$_Uninitialized_backout_al@V?$allocator@V?$vector@U?$vec@H$01@linalg@@V?$allocator@U?$vec@H$01@linalg@@@std@@@std@@@std@@@std@@QEAAXXZ
	??$_Emplace_back@$$V@?$_Uninitialized_backout_al@V?$allocator@VManifold@manifold@@@std@@@std@@QEAAXXZ
	??$_Emplace_back@$$V@?$_Uninitialized_backout_al@V?$allocator@_K@std@@@std@@QEAAXXZ
	??$_Emplace_back@AEAI@?$_Uninitialized_backout_al@V?$allocator@I@std@@@std@@QEAAXAEAI@Z
	??$_Emplace_back@AEAPEAH@?$_Uninitialized_backout@PEAPEAH@std@@QEAAXAEAPEAH@Z
	??$_Emplace_back@AEAU?$Point@N@Clipper2Lib@@@?$_Uninitialized_backout_al@V?$allocator@U?$Point@N@Clipper2Lib@@@std@@@std@@QEAAXAEAU?$Point@N@Clipper2Lib@@@Z
	??$_Emplace_back@AEAU?$vec@H$02@linalg@@@?$_Uninitialized_backout_al@V?$allocator@U?$vec@H$02@linalg@@@std@@@std@@QEAAXAEAU?$vec@H$02@linalg@@@Z
	??$_Emplace_back@AEAU?$vec@N$01@linalg@@@?$_Uninitialized_backout_al@V?$allocator@U?$vec@N$01@linalg@@@std@@@std@@QEAAXAEAU?$vec@N$01@linalg@@@Z
	??$_Emplace_back@AEAUPolyVert@manifold@@@?$_Uninitialized_backout_al@V?$allocator@UPolyVert@manifold@@@std@@@std@@QEAAXAEAUPolyVert@manifold@@@Z
	??$_Emplace_back@AEAUSmoothness@manifold@@@?$_Uninitialized_backout_al@V?$allocator@USmoothness@manifold@@@std@@@std@@QEAAXAEAUSmoothness@manifold@@@Z
	??$_Emplace_back@AEAV?$Vec@_K@manifold@@@?$_Uninitialized_backout_al@V?$allocator@V?$Vec@_K@manifold@@@std@@@std@@QEAAXAEAV?$Vec@_K@manifold@@@Z
	??$_Emplace_back@AEAV?$shared_ptr@VCsgNode@manifold@@@std@@@?$_Uninitialized_backout_al@V?$allocator@V?$shared_ptr@VCsgNode@manifold@@@std@@@std@@@std@@QEAAXAEAV?$shared_ptr@VCsgNode@manifold@@@1@@Z
	??$_Emplace_back@AEAV?$vector@U?$Point@N@Clipper2Lib@@V?$allocator@U?$Point@N@Clipper2Lib@@@std@@@std@@@?$_Uninitialized_backout_al@V?$allocator@V?$vector@U?$Point@N@Clipper2Lib@@V?$allocator@U?$Point@N@Clipper2Lib@@@std@@@std@@@std@@@std@@QEAAXAEAV?$vector@U?$Point@N@Clipper2Lib@@V?$allocator@U?$Point@N@Clipper2Lib@@@std@@@1@@Z
	??$_Emplace_back@AEAVSparseIndices@manifold@@@?$_Uninitialized_backout_al@V?$allocator@VSparseIndices@manifold@@@std@@@std@@QEAAXAEAVSparseIndices@manifold@@@Z
	??$_Emplace_back@AEA_K@?$_Uninitialized_backout_al@V?$allocator@_K@std@@@std@@QEAAXAEA_K@Z
	??$_Emplace_back@AEBH@?$_Uninitialized_backout_al@V?$allocator@H@std@@@std@@QEAAXAEBH@Z
	??$_Emplace_back@AEBI@?$_Uninitialized_backout_al@V?$allocator@I@std@@@std@@QEAAXAEBI@Z
	??$_Emplace_back@AEBU?$vec@H$02@linalg@@@?$_Uninitialized_backout_al@V?$allocator@U?$vec@H$02@linalg@@@std@@@std@@QEAAXAEBU?$vec@H$02@linalg@@@Z
	??$_Emplace_back@AEBU?$vec@N$02@linalg@@@?$_Uninitialized_backout_al@V?$allocator@U?$vec@N$02@linalg@@@std@@@std@@QEAAXAEBU?$vec@N$02@linalg@@@Z
	??$_Emplace_back@AEBV?$_List_unchecked_const_iterator@V?$_List_val@U?$_List_simple_types@H@std@@@std@@U_Iterator_base0@2@@std@@@?$_Uninitialized_backout@PEAV?$_List_unchecked_const_iterator@V?$_List_val@U?$_List_simple_types@H@std@@@std@@U_Iterator_base0@2@@std@@@std@@QEAAXAEBV?$_List_unchecked_const_iterator@V?$_List_val@U?$_List_simple_types@H@std@@@std@@U_Iterator_base0@2@@1@@Z
	??$_Emplace_back@AEBV?$_List_unchecked_iterator@V?$_List_val@U?$_List_simple_types@U?$pair@$$CBHH@std@@@std@@@std@@@std@@@?$_Uninitialized_backout@PEAV?$_List_unchecked_iterator@V?$_List_val@U?$_List_simple_types@U?$pair@$$CBHH@std@@@std@@@std@@@std@@@std@@QEAAXAEBV?$_List_unchecked_iterator@V?$_List_val@U?$_List_simple_types@U?$pair@$$CBHH@std@@@std@@@std@@@1@@Z
	??$_Emplace_back@AEBV?$_List_unchecked_iterator@V?$_List_val@U?$_List_simple_types@U?$pair@$$CB_K_K@std@@@std@@@std@@@std@@@?$_Uninitialized_backout@PEAV?$_List_unchecked_iterator@V?$_List_val@U?$_List_simple_types@U?$pair@$$CB_K_K@std@@@std@@@std@@@std@@@std@@QEAAXAEBV?$_List_unchecked_iterator@V?$_List_val@U?$_List_simple_types@U?$pair@$$CB_K_K@std@@@std@@@std@@@1@@Z
	??$_Emplace_back@AEBV?$shared_ptr@VCsgNode@manifold@@@std@@@?$_Uninitialized_backout_al@V?$allocator@V?$shared_ptr@VCsgNode@manifold@@@std@@@std@@@std@@QEAAXAEBV?$shared_ptr@VCsgNode@manifold@@@1@@Z
	??$_Emplace_back@AEBV?$vector@U?$Point@N@Clipper2Lib@@V?$allocator@U?$Point@N@Clipper2Lib@@@std@@@std@@@?$_Uninitialized_backout_al@V?$allocator@V?$vector@U?$Point@N@Clipper2Lib@@V?$allocator@U?$Point@N@Clipper2Lib@@@std@@@std@@@std@@@std@@QEAAXAEBV?$vector@U?$Point@N@Clipper2Lib@@V?$allocator@U?$Point@N@Clipper2Lib@@@std@@@1@@Z
	??$_Emplace_back@AEBV?$vector@U?$vec@N$01@linalg@@V?$allocator@U?$vec@N$01@linalg@@@std@@@std@@@?$_Uninitialized_backout_al@V?$allocator@V?$vector@U?$vec@N$01@linalg@@V?$allocator@U?$vec@N$01@linalg@@@std@@@std@@@std@@@std@@QEAAXAEBV?$vector@U?$vec@N$01@linalg@@V?$allocator@U?$vec@N$01@linalg@@@std@@@1@@Z
	??$_Emplace_back@AEBVCrossSection@manifold@@@?$_Uninitialized_backout_al@V?$allocator@VCrossSection@manifold@@@std@@@std@@QEAAXAEBVCrossSection@manifold@@@Z
	??$_Emplace_back@AEB_K@?$_Uninitialized_backout_al@V?$allocator@_K@std@@@std@@QEAAXAEB_K@Z
	??$_Emplace_back@H@?$_Uninitialized_backout@PEAH@std@@QEAAX$$QEAH@Z
	??$_Emplace_back@H@?$_Uninitialized_backout_al@V?$allocator@H@std@@@std@@QEAAX$$QEAH@Z
	??$_Emplace_back@I@?$_Uninitialized_backout_al@V?$allocator@I@std@@@std@@QEAAX$$QEAI@Z
	??$_Emplace_back@M@?$_Uninitialized_backout_al@V?$allocator@M@std@@@std@@QEAAX$$QEAM@Z
	??$_Emplace_back@N@?$_Uninitialized_backout_al@V?$allocator@N@std@@@std@@QEAAX$$QEAN@Z
	??$_Emplace_back@U?$Point@N@Clipper2Lib@@@?$_Uninitialized_backout_al@V?$allocator@U?$Point@N@Clipper2Lib@@@std@@@std@@QEAAX$$QEAU?$Point@N@Clipper2Lib@@@Z
	??$_Emplace_back@U?$Point@_J@Clipper2Lib@@@?$_Uninitialized_backout_al@V?$allocator@U?$Point@_J@Clipper2Lib@@@std@@@std@@QEAAX$$QEAU?$Point@_J@Clipper2Lib@@@Z
	??$_Emplace_back@U?$mat@N$02$02@linalg@@@?$_Uninitialized_backout_al@V?$allocator@U?$mat@N$02$02@linalg@@@std@@@std@@QEAAX$$QEAU?$mat@N$02$02@linalg@@@Z
	??$_Emplace_back@U?$pair@U?$vec@H$02@linalg@@H@std@@@?$_Uninitialized_backout_al@V?$allocator@U?$pair@U?$vec@H$02@linalg@@H@std@@@std@@@std@@QEAAX$$QEAU?$pair@U?$vec@H$02@linalg@@H@1@@Z
	??$_Emplace_back@U?$pair@USmoothness@manifold@@U12@@std@@@?$_Uninitialized_backout_al@V?$allocator@U?$pair@USmoothness@manifold@@U12@@std@@@std@@@std@@QEAAX$$QEAU?$pair@USmoothness@manifold@@U12@@1@@Z
	??$_Emplace_back@U?$vec@H$01@linalg@@@?$_Uninitialized_backout_al@V?$allocator@U?$vec@H$01@linalg@@@std@@@std@@QEAAX$$QEAU?$vec@H$01@linalg@@@Z
	??$_Emplace_back@U?$vec@H$02@linalg@@@?$_Uninitialized_backout_al@V?$allocator@U?$vec@H$02@linalg@@@std@@@std@@QEAAX$$QEAU?$vec@H$02@linalg@@@Z
	??$_Emplace_back@U?$vec@N$01@linalg@@@?$_Uninitialized_backout_al@V?$allocator@U?$vec@N$01@linalg@@@std@@@std@@QEAAX$$QEAU?$vec@N$01@linalg@@@Z
	??$_Emplace_back@U?$vec@N$02@linalg@@@?$_Uninitialized_backout_al@V?$allocator@U?$vec@N$02@linalg@@@std@@@std@@QEAAX$$QEAU?$vec@N$02@linalg@@@Z
	??$_Emplace_back@UFace@MeshBuilder@manifold@@@?$_Uninitialized_backout_al@V?$allocator@UFace@MeshBuilder@manifold@@@std@@@std@@QEAAX$$QEAUFace@MeshBuilder@manifold@@@Z
	??$_Emplace_back@UHalfedge@manifold@@@?$_Uninitialized_backout@PEAUHalfedge@manifold@@@std@@QEAAX$$QEAUHalfedge@manifold@@@Z
	??$_Emplace_back@UHalfedge@manifold@@@?$_Uninitialized_backout_al@V?$allocator@UHalfedge@manifold@@@std@@@std@@QEAAX$$QEAUHalfedge@manifold@@@Z
	??$_Emplace_back@UPolyVert@manifold@@@?$_Uninitialized_backout_al@V?$allocator@UPolyVert@manifold@@@std@@@std@@QEAAX$$QEAUPolyVert@manifold@@@Z
	??$_Emplace_back@USmoothness@manifold@@@?$_Uninitialized_backout_al@V?$allocator@USmoothness@manifold@@@std@@@std@@QEAAX$$QEAUSmoothness@manifold@@@Z
	??$_Emplace_back@V?$Vec@_K@manifold@@@?$_Uninitialized_backout_al@V?$allocator@V?$Vec@_K@manifold@@@std@@@std@@QEAAX$$QEAV?$Vec@_K@manifold@@@Z
	??$_Emplace_back@V?$shared_ptr@UCsgStackFrame@manifold@@@std@@@?$_Uninitialized_backout_al@V?$allocator@V?$shared_ptr@UCsgStackFrame@manifold@@@std@@@std@@@std@@QEAAX$$QEAV?$shared_ptr@UCsgStackFrame@manifold@@@1@@Z
	??$_Emplace_back@V?$shared_ptr@VCsgLeafNode@manifold@@@std@@@?$_Uninitialized_backout_al@V?$allocator@V?$shared_ptr@VCsgLeafNode@manifold@@@std@@@std@@@std@@QEAAX$$QEAV?$shared_ptr@VCsgLeafNode@manifold@@@1@@Z
	??$_Emplace_back@V?$shared_ptr@VCsgLeafNode@manifold@@@std@@@?$_Uninitialized_backout_al@V?$cache_aligned_allocator@V?$shared_ptr@VCsgLeafNode@manifold@@@std@@@d1@detail@tbb@@@std@@QEAAX$$QEAV?$shared_ptr@VCsgLeafNode@manifold@@@1@@Z
	??$_Emplace_back@V?$shared_ptr@VCsgNode@manifold@@@std@@@?$_Uninitialized_backout_al@V?$allocator@V?$shared_ptr@VCsgNode@manifold@@@std@@@std@@@std@@QEAAX$$QEAV?$shared_ptr@VCsgNode@manifold@@@1@@Z
	??$_Emplace_back@V?$shared_ptr@VCsgOpNode@manifold@@@std@@@?$_Uninitialized_backout_al@V?$allocator@V?$shared_ptr@VCsgOpNode@manifold@@@std@@@std@@@std@@QEAAX$$QEAV?$shared_ptr@VCsgOpNode@manifold@@@1@@Z
	??$_Emplace_back@V?$unique_ptr@V?$Vec@_K@manifold@@U?$default_delete@V?$Vec@_K@manifold@@@std@@@std@@@?$_Uninitialized_backout_al@V?$allocator@V?$unique_ptr@V?$Vec@_K@manifold@@U?$default_delete@V?$Vec@_K@manifold@@@std@@@std@@@std@@@std@@QEAAX$$QEAV?$unique_ptr@V?$Vec@_K@manifold@@U?$default_delete@V?$Vec@_K@manifold@@@std@@@1@@Z
	??$_Emplace_back@V?$unique_ptr@VPolyPathD@Clipper2Lib@@U?$default_delete@VPolyPathD@Clipper2Lib@@@std@@@std@@@?$_Uninitialized_backout_al@V?$allocator@V?$unique_ptr@VPolyPathD@Clipper2Lib@@U?$default_delete@VPolyPathD@Clipper2Lib@@@std@@@std@@@std@@@std@@QEAAX$$QEAV?$unique_ptr@VPolyPathD@Clipper2Lib@@U?$default_delete@VPolyPathD@Clipper2Lib@@@std@@@1@@Z
	??$_Emplace_back@V?$vector@U?$Point@N@Clipper2Lib@@V?$allocator@U?$Point@N@Clipper2Lib@@@std@@@std@@@?$_Uninitialized_backout_al@V?$allocator@V?$vector@U?$Point@N@Clipper2Lib@@V?$allocator@U?$Point@N@Clipper2Lib@@@std@@@std@@@std@@@std@@QEAAX$$QEAV?$vector@U?$Point@N@Clipper2Lib@@V?$allocator@U?$Point@N@Clipper2Lib@@@std@@@1@@Z
	??$_Emplace_back@V?$vector@U?$Point@_J@Clipper2Lib@@V?$allocator@U?$Point@_J@Clipper2Lib@@@std@@@std@@@?$_Uninitialized_backout_al@V?$allocator@V?$vector@U?$Point@_J@Clipper2Lib@@V?$allocator@U?$Point@_J@Clipper2Lib@@@std@@@std@@@std@@@std@@QEAAX$$QEAV?$vector@U?$Point@_J@Clipper2Lib@@V?$allocator@U?$Point@_J@Clipper2Lib@@@std@@@1@@Z
	??$_Emplace_back@V?$vector@U?$vec@N$01@linalg@@V?$allocator@U?$vec@N$01@linalg@@@std@@@std@@@?$_Uninitialized_backout_al@V?$allocator@V?$vector@U?$vec@N$01@linalg@@V?$allocator@U?$vec@N$01@linalg@@@std@@@std@@@std@@@std@@QEAAX$$QEAV?$vector@U?$vec@N$01@linalg@@V?$allocator@U?$vec@N$01@linalg@@@std@@@1@@Z
	??$_Emplace_back@V?$vector@UPolyVert@manifold@@V?$allocator@UPolyVert@manifold@@@std@@@std@@@?$_Uninitialized_backout_al@V?$allocator@V?$vector@UPolyVert@manifold@@V?$allocator@UPolyVert@manifold@@@std@@@std@@@std@@@std@@QEAAX$$QEAV?$vector@UPolyVert@manifold@@V?$allocator@UPolyVert@manifold@@@std@@@1@@Z
	??$_Emplace_back@V?$vector@V?$vector@U?$Point@N@Clipper2Lib@@V?$allocator@U?$Point@N@Clipper2Lib@@@std@@@std@@V?$allocator@V?$vector@U?$Point@N@Clipper2Lib@@V?$allocator@U?$Point@N@Clipper2Lib@@@std@@@std@@@2@@std@@@?$_Uninitialized_backout_al@V?$allocator@V?$vector@V?$vector@U?$Point@N@Clipper2Lib@@V?$allocator@U?$Point@N@Clipper2Lib@@@std@@@std@@V?$allocator@V?$vector@U?$Point@N@Clipper2Lib@@V?$allocator@U?$Point@N@Clipper2Lib@@@std@@@std@@@2@@std@@@std@@@std@@QEAAX$$QEAV?$vector@V?$vector@U?$Point@N@Clipper2Lib@@V?$allocator@U?$Point@N@Clipper2Lib@@@std@@@std@@V?$allocator@V?$vector@U?$Point@N@Clipper2Lib@@V?$allocator@U?$Point@N@Clipper2Lib@@@std@@@std@@@2@@1@@Z
	??$_Emplace_back@VCrossSection@manifold@@@?$_Uninitialized_backout_al@V?$allocator@VCrossSection@manifold@@@std@@@std@@QEAAX$$QEAVCrossSection@manifold@@@Z
	??$_Emplace_back@VManifold@manifold@@@?$_Uninitialized_backout_al@V?$allocator@VManifold@manifold@@@std@@@std@@QEAAX$$QEAVManifold@manifold@@@Z
	??$_Emplace_back@VSparseIndices@manifold@@@?$_Uninitialized_backout_al@V?$allocator@VSparseIndices@manifold@@@std@@@std@@QEAAX$$QEAVSparseIndices@manifold@@@Z
	??$_Emplace_back@_J@?$_Uninitialized_backout@PEA_J@std@@QEAAX$$QEA_J@Z
	??$_Emplace_back@_K@?$_Uninitialized_backout_al@V?$allocator@_K@std@@@std@@QEAAX$$QEA_K@Z
	??$_Emplace_back_internal@H@?$deque@HV?$allocator@H@std@@@std@@AEAAX$$QEAH@Z
	??$_Emplace_back_with_unused_capacity@$$V@?$vector@UFace@MeshBuilder@manifold@@V?$allocator@UFace@MeshBuilder@manifold@@@std@@@std@@AEAA?A_TXZ
	??$_Emplace_back_with_unused_capacity@AEBH@?$vector@HV?$allocator@H@std@@@std@@AEAA?A_TAEBH@Z
	??$_Emplace_back_with_unused_capacity@AEBN@?$vector@NV?$allocator@N@std@@@std@@AEAA?A_TAEBN@Z
	??$_Emplace_back_with_unused_capacity@AEBU?$Point@N@Clipper2Lib@@@?$vector@U?$Point@N@Clipper2Lib@@V?$allocator@U?$Point@N@Clipper2Lib@@@std@@@std@@AEAA?A_TAEBU?$Point@N@Clipper2Lib@@@Z
	??$_Emplace_back_with_unused_capacity@AEBU?$pair@USmoothness@manifold@@U12@@std@@@?$vector@U?$pair@USmoothness@manifold@@U12@@std@@V?$allocator@U?$pair@USmoothness@manifold@@U12@@std@@@2@@std@@AEAA?A_TAEBU?$pair@USmoothness@manifold@@U12@@1@@Z
	??$_Emplace_back_with_unused_capacity@AEBU?$vec@N$01@linalg@@@?$vector@U?$vec@N$01@linalg@@V?$allocator@U?$vec@N$01@linalg@@@std@@@std@@AEAA?A_TAEBU?$vec@N$01@linalg@@@Z
	??$_Emplace_back_with_unused_capacity@AEBV?$shared_ptr@VCsgLeafNode@manifold@@@std@@@?$vector@V?$shared_ptr@VCsgLeafNode@manifold@@@std@@V?$allocator@V?$shared_ptr@VCsgLeafNode@manifold@@@std@@@2@@std@@AEAA?A_TAEBV?$shared_ptr@VCsgLeafNode@manifold@@@1@@Z
	??$_Emplace_back_with_unused_capacity@AEBV?$shared_ptr@VCsgLeafNode@manifold@@@std@@@?$vector@V?$shared_ptr@VCsgLeafNode@manifold@@@std@@V?$cache_aligned_allocator@V?$shared_ptr@VCsgLeafNode@manifold@@@std@@@d1@detail@tbb@@@std@@AEAA?A_TAEBV?$shared_ptr@VCsgLeafNode@manifold@@@1@@Z
	??$_Emplace_back_with_unused_capacity@AEBV?$shared_ptr@VCsgNode@manifold@@@std@@@?$vector@V?$shared_ptr@VCsgNode@manifold@@@std@@V?$allocator@V?$shared_ptr@VCsgNode@manifold@@@std@@@2@@std@@AEAA?A_TAEBV?$shared_ptr@VCsgNode@manifold@@@1@@Z
	??$_Emplace_back_with_unused_capacity@AEBV?$vector@U?$Point@N@Clipper2Lib@@V?$allocator@U?$Point@N@Clipper2Lib@@@std@@@std@@@?$vector@V?$vector@U?$Point@N@Clipper2Lib@@V?$allocator@U?$Point@N@Clipper2Lib@@@std@@@std@@V?$allocator@V?$vector@U?$Point@N@Clipper2Lib@@V?$allocator@U?$Point@N@Clipper2Lib@@@std@@@std@@@2@@std@@AEAA?A_TAEBV?$vector@U?$Point@N@Clipper2Lib@@V?$allocator@U?$Point@N@Clipper2Lib@@@std@@@1@@Z
	??$_Emplace_back_with_unused_capacity@AEBV?$vector@U?$vec@N$01@linalg@@V?$allocator@U?$vec@N$01@linalg@@@std@@@std@@@?$vector@V?$vector@U?$vec@N$01@linalg@@V?$allocator@U?$vec@N$01@linalg@@@std@@@std@@V?$allocator@V?$vector@U?$vec@N$01@linalg@@V?$allocator@U?$vec@N$01@linalg@@@std@@@std@@@2@@std@@AEAA?A_TAEBV?$vector@U?$vec@N$01@linalg@@V?$allocator@U?$vec@N$01@linalg@@@std@@@1@@Z
	??$_Emplace_back_with_unused_capacity@AEBV?$vector@UPolyVert@manifold@@V?$allocator@UPolyVert@manifold@@@std@@@std@@@?$vector@V?$vector@UPolyVert@manifold@@V?$allocator@UPolyVert@manifold@@@std@@@std@@V?$allocator@V?$vector@UPolyVert@manifold@@V?$allocator@UPolyVert@manifold@@@std@@@std@@@2@@std@@AEAA?A_TAEBV?$vector@UPolyVert@manifold@@V?$allocator@UPolyVert@manifold@@@std@@@1@@Z
	??$_Emplace_back_with_unused_capacity@AEBV?$vector@V?$vector@U?$Point@N@Clipper2Lib@@V?$allocator@U?$Point@N@Clipper2Lib@@@std@@@std@@V?$allocator@V?$vector@U?$Point@N@Clipper2Lib@@V?$allocator@U?$Point@N@Clipper2Lib@@@std@@@std@@@2@@std@@@?$vector@V?$vector@V?$vector@U?$Point@N@Clipper2Lib@@V?$allocator@U?$Point@N@Clipper2Lib@@@std@@@std@@V?$allocator@V?$vector@U?$Point@N@Clipper2Lib@@V?$allocator@U?$Point@N@Clipper2Lib@@@std@@@std@@@2@@std@@V?$allocator@V?$vector@V?$vector@U?$Point@N@Clipper2Lib@@V?$allocator@U?$Point@N@Clipper2Lib@@@std@@@std@@V?$allocator@V?$vector@U?$Point@N@Clipper2Lib@@V?$allocator@U?$Point@N@Clipper2Lib@@@std@@@std@@@2@@std@@@2@@std@@AEAA?A_TAEBV?$vector@V?$vector@U?$Point@N@Clipper2Lib@@V?$allocator@U?$Point@N@Clipper2Lib@@@std@@@std@@V?$allocator@V?$vector@U?$Point@N@Clipper2Lib@@V?$allocator@U?$Point@N@Clipper2Lib@@@std@@@std@@@2@@1@@Z
	??$_Emplace_back_with_unused_capacity@AEB_K@?$vector@_KV?$allocator@_K@std@@@std@@AEAA?A_TAEB_K@Z
	??$_Emplace_back_with_unused_capacity@H@?$vector@HV?$allocator@H@std@@@std@@AEAA?A_T$$QEAH@Z
	??$_Emplace_back_with_unused_capacity@H@?$vector@UFace@MeshBuilder@manifold@@V?$allocator@UFace@MeshBuilder@manifold@@@std@@@std@@AEAA?A_T$$QEAH@Z
	??$_Emplace_back_with_unused_capacity@I@?$vector@IV?$allocator@I@std@@@std@@AEAA?A_T$$QEAI@Z
	??$_Emplace_back_with_unused_capacity@M@?$vector@MV?$allocator@M@std@@@std@@AEAA?A_T$$QEAM@Z
	??$_Emplace_back_with_unused_capacity@U?$Point@N@Clipper2Lib@@@?$vector@U?$Point@N@Clipper2Lib@@V?$allocator@U?$Point@N@Clipper2Lib@@@std@@@std@@AEAA?A_T$$QEAU?$Point@N@Clipper2Lib@@@Z
	??$_Emplace_back_with_unused_capacity@U?$Point@_J@Clipper2Lib@@@?$vector@U?$Point@_J@Clipper2Lib@@V?$allocator@U?$Point@_J@Clipper2Lib@@@std@@@std@@AEAA?A_T$$QEAU?$Point@_J@Clipper2Lib@@@Z
	??$_Emplace_back_with_unused_capacity@U?$mat@N$02$02@linalg@@@?$vector@U?$mat@N$02$02@linalg@@V?$allocator@U?$mat@N$02$02@linalg@@@std@@@std@@AEAA?A_T$$QEAU?$mat@N$02$02@linalg@@@Z
	??$_Emplace_back_with_unused_capacity@U?$pair@U?$vec@H$02@linalg@@H@std@@@?$vector@U?$pair@U?$vec@H$02@linalg@@H@std@@V?$allocator@U?$pair@U?$vec@H$02@linalg@@H@std@@@2@@std@@AEAA?A_T$$QEAU?$pair@U?$vec@H$02@linalg@@H@1@@Z
	??$_Emplace_back_with_unused_capacity@U?$pair@USmoothness@manifold@@U12@@std@@@?$vector@U?$pair@USmoothness@manifold@@U12@@std@@V?$allocator@U?$pair@USmoothness@manifold@@U12@@std@@@2@@std@@AEAA?A_T$$QEAU?$pair@USmoothness@manifold@@U12@@1@@Z
	??$_Emplace_back_with_unused_capacity@U?$vec@H$01@linalg@@@?$vector@U?$vec@H$01@linalg@@V?$allocator@U?$vec@H$01@linalg@@@std@@@std@@AEAA?A_T$$QEAU?$vec@H$01@linalg@@@Z
	??$_Emplace_back_with_unused_capacity@U?$vec@H$02@linalg@@@?$vector@U?$vec@H$02@linalg@@V?$allocator@U?$vec@H$02@linalg@@@std@@@std@@AEAA?A_T$$QEAU?$vec@H$02@linalg@@@Z
	??$_Emplace_back_with_unused_capacity@U?$vec@N$01@linalg@@@?$vector@U?$vec@N$01@linalg@@V?$allocator@U?$vec@N$01@linalg@@@std@@@std@@AEAA?A_T$$QEAU?$vec@N$01@linalg@@@Z
	??$_Emplace_back_with_unused_capacity@U?$vec@N$02@linalg@@@?$vector@U?$vec@N$02@linalg@@V?$allocator@U?$vec@N$02@linalg@@@std@@@std@@AEAA?A_T$$QEAU?$vec@N$02@linalg@@@Z
	??$_Emplace_back_with_unused_capacity@UHalfedge@manifold@@@?$vector@UHalfedge@manifold@@V?$allocator@UHalfedge@manifold@@@std@@@std@@AEAA?A_T$$QEAUHalfedge@manifold@@@Z
	??$_Emplace_back_with_unused_capacity@UPolyVert@manifold@@@?$vector@UPolyVert@manifold@@V?$allocator@UPolyVert@manifold@@@std@@@std@@AEAA?A_T$$QEAUPolyVert@manifold@@@Z
	??$_Emplace_back_with_unused_capacity@USmoothness@manifold@@@?$vector@USmoothness@manifold@@V?$allocator@USmoothness@manifold@@@std@@@std@@AEAA?A_T$$QEAUSmoothness@manifold@@@Z
	??$_Emplace_back_with_unused_capacity@V?$Vec@_K@manifold@@@?$vector@V?$Vec@_K@manifold@@V?$allocator@V?$Vec@_K@manifold@@@std@@@std@@AEAA?A_T$$QEAV?$Vec@_K@manifold@@@Z
	??$_Emplace_back_with_unused_capacity@V?$shared_ptr@UCsgStackFrame@manifold@@@std@@@?$vector@V?$shared_ptr@UCsgStackFrame@manifold@@@std@@V?$allocator@V?$shared_ptr@UCsgStackFrame@manifold@@@std@@@2@@std@@AEAA?A_T$$QEAV?$shared_ptr@UCsgStackFrame@manifold@@@1@@Z
	??$_Emplace_back_with_unused_capacity@V?$shared_ptr@VCsgLeafNode@manifold@@@std@@@?$vector@V?$shared_ptr@VCsgLeafNode@manifold@@@std@@V?$allocator@V?$shared_ptr@VCsgLeafNode@manifold@@@std@@@2@@std@@AEAA?A_T$$QEAV?$shared_ptr@VCsgLeafNode@manifold@@@1@@Z
	??$_Emplace_back_with_unused_capacity@V?$shared_ptr@VCsgLeafNode@manifold@@@std@@@?$vector@V?$shared_ptr@VCsgLeafNode@manifold@@@std@@V?$cache_aligned_allocator@V?$shared_ptr@VCsgLeafNode@manifold@@@std@@@d1@detail@tbb@@@std@@AEAA?A_T$$QEAV?$shared_ptr@VCsgLeafNode@manifold@@@1@@Z
	??$_Emplace_back_with_unused_capacity@V?$shared_ptr@VCsgNode@manifold@@@std@@@?$vector@V?$shared_ptr@VCsgNode@manifold@@@std@@V?$allocator@V?$shared_ptr@VCsgNode@manifold@@@std@@@2@@std@@AEAA?A_T$$QEAV?$shared_ptr@VCsgNode@manifold@@@1@@Z
	??$_Emplace_back_with_unused_capacity@V?$shared_ptr@VCsgOpNode@manifold@@@std@@@?$vector@V?$shared_ptr@VCsgOpNode@manifold@@@std@@V?$allocator@V?$shared_ptr@VCsgOpNode@manifold@@@std@@@2@@std@@AEAA?A_T$$QEAV?$shared_ptr@VCsgOpNode@manifold@@@1@@Z
	??$_Emplace_back_with_unused_capacity@V?$unique_ptr@V?$Vec@_K@manifold@@U?$default_delete@V?$Vec@_K@manifold@@@std@@@std@@@?$vector@V?$unique_ptr@V?$Vec@_K@manifold@@U?$default_delete@V?$Vec@_K@manifold@@@std@@@std@@V?$allocator@V?$unique_ptr@V?$Vec@_K@manifold@@U?$default_delete@V?$Vec@_K@manifold@@@std@@@std@@@2@@std@@AEAA?A_T$$QEAV?$unique_ptr@V?$Vec@_K@manifold@@U?$default_delete@V?$Vec@_K@manifold@@@std@@@1@@Z
	??$_Emplace_back_with_unused_capacity@V?$unique_ptr@VPolyPathD@Clipper2Lib@@U?$default_delete@VPolyPathD@Clipper2Lib@@@std@@@std@@@?$vector@V?$unique_ptr@VPolyPathD@Clipper2Lib@@U?$default_delete@VPolyPathD@Clipper2Lib@@@std@@@std@@V?$allocator@V?$unique_ptr@VPolyPathD@Clipper2Lib@@U?$default_delete@VPolyPathD@Clipper2Lib@@@std@@@std@@@2@@std@@AEAA?A_T$$QEAV?$unique_ptr@VPolyPathD@Clipper2Lib@@U?$default_delete@VPolyPathD@Clipper2Lib@@@std@@@1@@Z
	??$_Emplace_back_with_unused_capacity@V?$vector@U?$Point@N@Clipper2Lib@@V?$allocator@U?$Point@N@Clipper2Lib@@@std@@@std@@@?$vector@V?$vector@U?$Point@N@Clipper2Lib@@V?$allocator@U?$Point@N@Clipper2Lib@@@std@@@std@@V?$allocator@V?$vector@U?$Point@N@Clipper2Lib@@V?$allocator@U?$Point@N@Clipper2Lib@@@std@@@std@@@2@@std@@AEAA?A_T$$QEAV?$vector@U?$Point@N@Clipper2Lib@@V?$allocator@U?$Point@N@Clipper2Lib@@@std@@@1@@Z
	??$_Emplace_back_with_unused_capacity@V?$vector@U?$Point@_J@Clipper2Lib@@V?$allocator@U?$Point@_J@Clipper2Lib@@@std@@@std@@@?$vector@V?$vector@U?$Point@_J@Clipper2Lib@@V?$allocator@U?$Point@_J@Clipper2Lib@@@std@@@std@@V?$allocator@V?$vector@U?$Point@_J@Clipper2Lib@@V?$allocator@U?$Point@_J@Clipper2Lib@@@std@@@std@@@2@@std@@AEAA?A_T$$QEAV?$vector@U?$Point@_J@Clipper2Lib@@V?$allocator@U?$Point@_J@Clipper2Lib@@@std@@@1@@Z
	??$_Emplace_back_with_unused_capacity@V?$vector@U?$vec@N$01@linalg@@V?$allocator@U?$vec@N$01@linalg@@@std@@@std@@@?$vector@V?$vector@U?$vec@N$01@linalg@@V?$allocator@U?$vec@N$01@linalg@@@std@@@std@@V?$allocator@V?$vector@U?$vec@N$01@linalg@@V?$allocator@U?$vec@N$01@linalg@@@std@@@std@@@2@@std@@AEAA?A_T$$QEAV?$vector@U?$vec@N$01@linalg@@V?$allocator@U?$vec@N$01@linalg@@@std@@@1@@Z
	??$_Emplace_back_with_unused_capacity@V?$vector@UPolyVert@manifold@@V?$allocator@UPolyVert@manifold@@@std@@@std@@@?$vector@V?$vector@UPolyVert@manifold@@V?$allocator@UPolyVert@manifold@@@std@@@std@@V?$allocator@V?$vector@UPolyVert@manifold@@V?$allocator@UPolyVert@manifold@@@std@@@std@@@2@@std@@AEAA?A_T$$QEAV?$vector@UPolyVert@manifold@@V?$allocator@UPolyVert@manifold@@@std@@@1@@Z
	??$_Emplace_back_with_unused_capacity@VCrossSection@manifold@@@?$vector@VCrossSection@manifold@@V?$allocator@VCrossSection@manifold@@@std@@@std@@AEAA?A_T$$QEAVCrossSection@manifold@@@Z
	??$_Emplace_back_with_unused_capacity@VManifold@manifold@@@?$vector@VManifold@manifold@@V?$allocator@VManifold@manifold@@@std@@@std@@AEAA?A_T$$QEAVManifold@manifold@@@Z
	??$_Emplace_back_with_unused_capacity@VSparseIndices@manifold@@@?$vector@VSparseIndices@manifold@@V?$allocator@VSparseIndices@manifold@@@std@@@std@@AEAA?A_T$$QEAVSparseIndices@manifold@@@Z
	??$_Emplace_back_with_unused_capacity@_K@?$vector@_KV?$allocator@_K@std@@@std@@AEAA?A_T$$QEA_K@Z
	??$_Emplace_reallocate@$$V@?$vector@UFace@MeshBuilder@manifold@@V?$allocator@UFace@MeshBuilder@manifold@@@std@@@std@@QEAAPEAUFace@MeshBuilder@manifold@@QEAU234@@Z
	??$_Emplace_reallocate@AEBH@?$vector@HV?$allocator@H@std@@@std@@QEAAPEAHQEAHAEBH@Z
	??$_Emplace_reallocate@AEBN@?$vector@NV?$allocator@N@std@@@std@@QEAAPEANQEANAEBN@Z
	??$_Emplace_reallocate@AEBU?$Point@N@Clipper2Lib@@@?$vector@U?$Point@N@Clipper2Lib@@V?$allocator@U?$Point@N@Clipper2Lib@@@std@@@std@@QEAAPEAU?$Point@N@Clipper2Lib@@QEAU23@AEBU23@@Z
	??$_Emplace_reallocate@AEBU?$pair@USmoothness@manifold@@U12@@std@@@?$vector@U?$pair@USmoothness@manifold@@U12@@std@@V?$allocator@U?$pair@USmoothness@manifold@@U12@@std@@@2@@std@@QEAAPEAU?$pair@USmoothness@manifold@@U12@@1@QEAU21@AEBU21@@Z
	??$_Emplace_reallocate@AEBU?$vec@N$01@linalg@@@?$vector@U?$vec@N$01@linalg@@V?$allocator@U?$vec@N$01@linalg@@@std@@@std@@QEAAPEAU?$vec@N$01@linalg@@QEAU23@AEBU23@@Z
	??$_Emplace_reallocate@AEBV?$shared_ptr@VCsgLeafNode@manifold@@@std@@@?$vector@V?$shared_ptr@VCsgLeafNode@manifold@@@std@@V?$allocator@V?$shared_ptr@VCsgLeafNode@manifold@@@std@@@2@@std@@QEAAPEAV?$shared_ptr@VCsgLeafNode@manifold@@@1@QEAV21@AEBV21@@Z
	??$_Emplace_reallocate@AEBV?$shared_ptr@VCsgLeafNode@manifold@@@std@@@?$vector@V?$shared_ptr@VCsgLeafNode@manifold@@@std@@V?$cache_aligned_allocator@V?$shared_ptr@VCsgLeafNode@manifold@@@std@@@d1@detail@tbb@@@std@@QEAAPEAV?$shared_ptr@VCsgLeafNode@manifold@@@1@QEAV21@AEBV21@@Z
	??$_Emplace_reallocate@AEBV?$shared_ptr@VCsgNode@manifold@@@std@@@?$vector@V?$shared_ptr@VCsgNode@manifold@@@std@@V?$allocator@V?$shared_ptr@VCsgNode@manifold@@@std@@@2@@std@@QEAAPEAV?$shared_ptr@VCsgNode@manifold@@@1@QEAV21@AEBV21@@Z
	??$_Emplace_reallocate@AEBV?$vector@U?$Point@N@Clipper2Lib@@V?$allocator@U?$Point@N@Clipper2Lib@@@std@@@std@@@?$vector@V?$vector@U?$Point@N@Clipper2Lib@@V?$allocator@U?$Point@N@Clipper2Lib@@@std@@@std@@V?$allocator@V?$vector@U?$Point@N@Clipper2Lib@@V?$allocator@U?$Point@N@Clipper2Lib@@@std@@@std@@@2@@std@@QEAAPEAV?$vector@U?$Point@N@Clipper2Lib@@V?$allocator@U?$Point@N@Clipper2Lib@@@std@@@1@QEAV21@AEBV21@@Z
	??$_Emplace_reallocate@AEBV?$vector@U?$vec@N$01@linalg@@V?$allocator@U?$vec@N$01@linalg@@@std@@@std@@@?$vector@V?$vector@U?$vec@N$01@linalg@@V?$allocator@U?$vec@N$01@linalg@@@std@@@std@@V?$allocator@V?$vector@U?$vec@N$01@linalg@@V?$allocator@U?$vec@N$01@linalg@@@std@@@std@@@2@@std@@QEAAPEAV?$vector@U?$vec@N$01@linalg@@V?$allocator@U?$vec@N$01@linalg@@@std@@@1@QEAV21@AEBV21@@Z
	??$_Emplace_reallocate@AEBV?$vector@UPolyVert@manifold@@V?$allocator@UPolyVert@manifold@@@std@@@std@@@?$vector@V?$vector@UPolyVert@manifold@@V?$allocator@UPolyVert@manifold@@@std@@@std@@V?$allocator@V?$vector@UPolyVert@manifold@@V?$allocator@UPolyVert@manifold@@@std@@@std@@@2@@std@@QEAAPEAV?$vector@UPolyVert@manifold@@V?$allocator@UPolyVert@manifold@@@std@@@1@QEAV21@AEBV21@@Z
	??$_Emplace_reallocate@AEBV?$vector@V?$vector@U?$Point@N@Clipper2Lib@@V?$allocator@U?$Point@N@Clipper2Lib@@@std@@@std@@V?$allocator@V?$vector@U?$Point@N@Clipper2Lib@@V?$allocator@U?$Point@N@Clipper2Lib@@@std@@@std@@@2@@std@@@?$vector@V?$vector@V?$vector@U?$Point@N@Clipper2Lib@@V?$allocator@U?$Point@N@Clipper2Lib@@@std@@@std@@V?$allocator@V?$vector@U?$Point@N@Clipper2Lib@@V?$allocator@U?$Point@N@Clipper2Lib@@@std@@@std@@@2@@std@@V?$allocator@V?$vector@V?$vector@U?$Point@N@Clipper2Lib@@V?$allocator@U?$Point@N@Clipper2Lib@@@std@@@std@@V?$allocator@V?$vector@U?$Point@N@Clipper2Lib@@V?$allocator@U?$Point@N@Clipper2Lib@@@std@@@std@@@2@@std@@@2@@std@@QEAAPEAV?$vector@V?$vector@U?$Point@N@Clipper2Lib@@V?$allocator@U?$Point@N@Clipper2Lib@@@std@@@std@@V?$allocator@V?$vector@U?$Point@N@Clipper2Lib@@V?$allocator@U?$Point@N@Clipper2Lib@@@std@@@std@@@2@@1@QEAV21@AEBV21@@Z
	??$_Emplace_reallocate@AEB_K@?$vector@_KV?$allocator@_K@std@@@std@@QEAAPEA_KQEA_KAEB_K@Z
	??$_Emplace_reallocate@H@?$vector@HV?$allocator@H@std@@@std@@QEAAPEAHQEAH$$QEAH@Z
	??$_Emplace_reallocate@H@?$vector@UFace@MeshBuilder@manifold@@V?$allocator@UFace@MeshBuilder@manifold@@@std@@@std@@QEAAPEAUFace@MeshBuilder@manifold@@QEAU234@$$QEAH@Z
	??$_Emplace_reallocate@I@?$vector@IV?$allocator@I@std@@@std@@QEAAPEAIQEAI$$QEAI@Z
	??$_Emplace_reallocate@M@?$vector@MV?$allocator@M@std@@@std@@QEAAPEAMQEAM$$QEAM@Z
	??$_Emplace_reallocate@U?$Point@N@Clipper2Lib@@@?$vector@U?$Point@N@Clipper2Lib@@V?$allocator@U?$Point@N@Clipper2Lib@@@std@@@std@@QEAAPEAU?$Point@N@Clipper2Lib@@QEAU23@$$QEAU23@@Z
	??$_Emplace_reallocate@U?$Point@_J@Clipper2Lib@@@?$vector@U?$Point@_J@Clipper2Lib@@V?$allocator@U?$Point@_J@Clipper2Lib@@@std@@@std@@QEAAPEAU?$Point@_J@Clipper2Lib@@QEAU23@$$QEAU23@@Z
	??$_Emplace_reallocate@U?$mat@N$02$02@linalg@@@?$vector@U?$mat@N$02$02@linalg@@V?$allocator@U?$mat@N$02$02@linalg@@@std@@@std@@QEAAPEAU?$mat@N$02$02@linalg@@QEAU23@$$QEAU23@@Z
	??$_Emplace_reallocate@U?$pair@U?$vec@H$02@linalg@@H@std@@@?$vector@U?$pair@U?$vec@H$02@linalg@@H@std@@V?$allocator@U?$pair@U?$vec@H$02@linalg@@H@std@@@2@@std@@QEAAPEAU?$pair@U?$vec@H$02@linalg@@H@1@QEAU21@$$QEAU21@@Z
	??$_Emplace_reallocate@U?$pair@USmoothness@manifold@@U12@@std@@@?$vector@U?$pair@USmoothness@manifold@@U12@@std@@V?$allocator@U?$pair@USmoothness@manifold@@U12@@std@@@2@@std@@QEAAPEAU?$pair@USmoothness@manifold@@U12@@1@QEAU21@$$QEAU21@@Z
	??$_Emplace_reallocate@U?$vec@H$01@linalg@@@?$vector@U?$vec@H$01@linalg@@V?$allocator@U?$vec@H$01@linalg@@@std@@@std@@QEAAPEAU?$vec@H$01@linalg@@QEAU23@$$QEAU23@@Z
	??$_Emplace_reallocate@U?$vec@H$02@linalg@@@?$vector@U?$vec@H$02@linalg@@V?$allocator@U?$vec@H$02@linalg@@@std@@@std@@QEAAPEAU?$vec@H$02@linalg@@QEAU23@$$QEAU23@@Z
	??$_Emplace_reallocate@U?$vec@N$01@linalg@@@?$vector@U?$vec@N$01@linalg@@V?$allocator@U?$vec@N$01@linalg@@@std@@@std@@QEAAPEAU?$vec@N$01@linalg@@QEAU23@$$QEAU23@@Z
	??$_Emplace_reallocate@U?$vec@N$02@linalg@@@?$vector@U?$vec@N$02@linalg@@V?$allocator@U?$vec@N$02@linalg@@@std@@@std@@QEAAPEAU?$vec@N$02@linalg@@QEAU23@$$QEAU23@@Z
	??$_Emplace_reallocate@UHalfedge@manifold@@@?$vector@UHalfedge@manifold@@V?$allocator@UHalfedge@manifold@@@std@@@std@@QEAAPEAUHalfedge@manifold@@QEAU23@$$QEAU23@@Z
	??$_Emplace_reallocate@UPolyVert@manifold@@@?$vector@UPolyVert@manifold@@V?$allocator@UPolyVert@manifold@@@std@@@std@@QEAAPEAUPolyVert@manifold@@QEAU23@$$QEAU23@@Z
	??$_Emplace_reallocate@USmoothness@manifold@@@?$vector@USmoothness@manifold@@V?$allocator@USmoothness@manifold@@@std@@@std@@QEAAPEAUSmoothness@manifold@@QEAU23@$$QEAU23@@Z
	??$_Emplace_reallocate@V?$Vec@_K@manifold@@@?$vector@V?$Vec@_K@manifold@@V?$allocator@V?$Vec@_K@manifold@@@std@@@std@@QEAAPEAV?$Vec@_K@manifold@@QEAV23@$$QEAV23@@Z
	??$_Emplace_reallocate@V?$shared_ptr@UCsgStackFrame@manifold@@@std@@@?$vector@V?$shared_ptr@UCsgStackFrame@manifold@@@std@@V?$allocator@V?$shared_ptr@UCsgStackFrame@manifold@@@std@@@2@@std@@QEAAPEAV?$shared_ptr@UCsgStackFrame@manifold@@@1@QEAV21@$$QEAV21@@Z
	??$_Emplace_reallocate@V?$shared_ptr@VCsgLeafNode@manifold@@@std@@@?$vector@V?$shared_ptr@VCsgLeafNode@manifold@@@std@@V?$allocator@V?$shared_ptr@VCsgLeafNode@manifold@@@std@@@2@@std@@QEAAPEAV?$shared_ptr@VCsgLeafNode@manifold@@@1@QEAV21@$$QEAV21@@Z
	??$_Emplace_reallocate@V?$shared_ptr@VCsgLeafNode@manifold@@@std@@@?$vector@V?$shared_ptr@VCsgLeafNode@manifold@@@std@@V?$cache_aligned_allocator@V?$shared_ptr@VCsgLeafNode@manifold@@@std@@@d1@detail@tbb@@@std@@QEAAPEAV?$shared_ptr@VCsgLeafNode@manifold@@@1@QEAV21@$$QEAV21@@Z
	??$_Emplace_reallocate@V?$shared_ptr@VCsgNode@manifold@@@std@@@?$vector@V?$shared_ptr@VCsgNode@manifold@@@std@@V?$allocator@V?$shared_ptr@VCsgNode@manifold@@@std@@@2@@std@@QEAAPEAV?$shared_ptr@VCsgNode@manifold@@@1@QEAV21@$$QEAV21@@Z
	??$_Emplace_reallocate@V?$shared_ptr@VCsgOpNode@manifold@@@std@@@?$vector@V?$shared_ptr@VCsgOpNode@manifold@@@std@@V?$allocator@V?$shared_ptr@VCsgOpNode@manifold@@@std@@@2@@std@@QEAAPEAV?$shared_ptr@VCsgOpNode@manifold@@@1@QEAV21@$$QEAV21@@Z
	??$_Emplace_reallocate@V?$unique_ptr@V?$Vec@_K@manifold@@U?$default_delete@V?$Vec@_K@manifold@@@std@@@std@@@?$vector@V?$unique_ptr@V?$Vec@_K@manifold@@U?$default_delete@V?$Vec@_K@manifold@@@std@@@std@@V?$allocator@V?$unique_ptr@V?$Vec@_K@manifold@@U?$default_delete@V?$Vec@_K@manifold@@@std@@@std@@@2@@std@@QEAAPEAV?$unique_ptr@V?$Vec@_K@manifold@@U?$default_delete@V?$Vec@_K@manifold@@@std@@@1@QEAV21@$$QEAV21@@Z
	??$_Emplace_reallocate@V?$unique_ptr@VPolyPathD@Clipper2Lib@@U?$default_delete@VPolyPathD@Clipper2Lib@@@std@@@std@@@?$vector@V?$unique_ptr@VPolyPathD@Clipper2Lib@@U?$default_delete@VPolyPathD@Clipper2Lib@@@std@@@std@@V?$allocator@V?$unique_ptr@VPolyPathD@Clipper2Lib@@U?$default_delete@VPolyPathD@Clipper2Lib@@@std@@@std@@@2@@std@@QEAAPEAV?$unique_ptr@VPolyPathD@Clipper2Lib@@U?$default_delete@VPolyPathD@Clipper2Lib@@@std@@@1@QEAV21@$$QEAV21@@Z
	??$_Emplace_reallocate@V?$vector@U?$Point@N@Clipper2Lib@@V?$allocator@U?$Point@N@Clipper2Lib@@@std@@@std@@@?$vector@V?$vector@U?$Point@N@Clipper2Lib@@V?$allocator@U?$Point@N@Clipper2Lib@@@std@@@std@@V?$allocator@V?$vector@U?$Point@N@Clipper2Lib@@V?$allocator@U?$Point@N@Clipper2Lib@@@std@@@std@@@2@@std@@QEAAPEAV?$vector@U?$Point@N@Clipper2Lib@@V?$allocator@U?$Point@N@Clipper2Lib@@@std@@@1@QEAV21@$$QEAV21@@Z
	??$_Emplace_reallocate@V?$vector@U?$Point@_J@Clipper2Lib@@V?$allocator@U?$Point@_J@Clipper2Lib@@@std@@@std@@@?$vector@V?$vector@U?$Point@_J@Clipper2Lib@@V?$allocator@U?$Point@_J@Clipper2Lib@@@std@@@std@@V?$allocator@V?$vector@U?$Point@_J@Clipper2Lib@@V?$allocator@U?$Point@_J@Clipper2Lib@@@std@@@std@@@2@@std@@QEAAPEAV?$vector@U?$Point@_J@Clipper2Lib@@V?$allocator@U?$Point@_J@Clipper2Lib@@@std@@@1@QEAV21@$$QEAV21@@Z
	??$_Emplace_reallocate@V?$vector@U?$vec@N$01@linalg@@V?$allocator@U?$vec@N$01@linalg@@@std@@@std@@@?$vector@V?$vector@U?$vec@N$01@linalg@@V?$allocator@U?$vec@N$01@linalg@@@std@@@std@@V?$allocator@V?$vector@U?$vec@N$01@linalg@@V?$allocator@U?$vec@N$01@linalg@@@std@@@std@@@2@@std@@QEAAPEAV?$vector@U?$vec@N$01@linalg@@V?$allocator@U?$vec@N$01@linalg@@@std@@@1@QEAV21@$$QEAV21@@Z
	??$_Emplace_reallocate@V?$vector@UPolyVert@manifold@@V?$allocator@UPolyVert@manifold@@@std@@@std@@@?$vector@V?$vector@UPolyVert@manifold@@V?$allocator@UPolyVert@manifold@@@std@@@std@@V?$allocator@V?$vector@UPolyVert@manifold@@V?$allocator@UPolyVert@manifold@@@std@@@std@@@2@@std@@QEAAPEAV?$vector@UPolyVert@manifold@@V?$allocator@UPolyVert@manifold@@@std@@@1@QEAV21@$$QEAV21@@Z
	??$_Emplace_reallocate@VCrossSection@manifold@@@?$vector@VCrossSection@manifold@@V?$allocator@VCrossSection@manifold@@@std@@@std@@QEAAPEAVCrossSection@manifold@@QEAV23@$$QEAV23@@Z
	??$_Emplace_reallocate@VManifold@manifold@@@?$vector@VManifold@manifold@@V?$allocator@VManifold@manifold@@@std@@@std@@QEAAPEAVManifold@manifold@@QEAV23@$$QEAV23@@Z
	??$_Emplace_reallocate@VSparseIndices@manifold@@@?$vector@VSparseIndices@manifold@@V?$allocator@VSparseIndices@manifold@@@std@@@std@@QEAAPEAVSparseIndices@manifold@@QEAV23@$$QEAV23@@Z
	??$_Emplace_reallocate@_K@?$vector@_KV?$allocator@_K@std@@@std@@QEAAPEA_KQEA_K$$QEA_K@Z
	??$_Eqrange@H@?$_Tree@V?$_Tmap_traits@HURelation@Impl@Manifold@manifold@@U?$less@H@std@@V?$allocator@U?$pair@$$CBHURelation@Impl@Manifold@manifold@@@std@@@6@$0A@@std@@@std@@IEBA?AU?$pair@PEAU?$_Tree_node@U?$pair@$$CBHURelation@Impl@Manifold@manifold@@@std@@PEAX@std@@PEAU12@@1@AEBH@Z
	??$_Erase_head@V?$allocator@U?$_Tree_node@U?$pair@$$CBHH@std@@PEAX@std@@@std@@@?$_Tree_val@U?$_Tree_simple_types@U?$pair@$$CBHH@std@@@std@@@std@@QEAAXAEAV?$allocator@U?$_Tree_node@U?$pair@$$CBHH@std@@PEAX@std@@@1@@Z
	??$_Erase_head@V?$allocator@U?$_Tree_node@U?$pair@$$CBHU?$pair@USmoothness@manifold@@U12@@std@@@std@@PEAX@std@@@std@@@?$_Tree_val@U?$_Tree_simple_types@U?$pair@$$CBHU?$pair@USmoothness@manifold@@U12@@std@@@std@@@std@@@std@@QEAAXAEAV?$allocator@U?$_Tree_node@U?$pair@$$CBHU?$pair@USmoothness@manifold@@U12@@std@@@std@@PEAX@std@@@1@@Z
	??$_Erase_head@V?$allocator@U?$_Tree_node@U?$pair@$$CBHURelation@Impl@Manifold@manifold@@@std@@PEAX@std@@@std@@@?$_Tree_val@U?$_Tree_simple_types@U?$pair@$$CBHURelation@Impl@Manifold@manifold@@@std@@@std@@@std@@QEAAXAEAV?$allocator@U?$_Tree_node@U?$pair@$$CBHURelation@Impl@Manifold@manifold@@@std@@PEAX@std@@@1@@Z
	??$_Erase_head@V?$allocator@U?$_Tree_node@U?$pair@$$CBHV?$vector@U?$pair@USmoothness@manifold@@U12@@std@@V?$allocator@U?$pair@USmoothness@manifold@@U12@@std@@@2@@std@@@std@@PEAX@std@@@std@@@?$_Tree_val@U?$_Tree_simple_types@U?$pair@$$CBHV?$vector@U?$pair@USmoothness@manifold@@U12@@std@@V?$allocator@U?$pair@USmoothness@manifold@@U12@@std@@@2@@std@@@std@@@std@@@std@@QEAAXAEAV?$allocator@U?$_Tree_node@U?$pair@$$CBHV?$vector@U?$pair@USmoothness@manifold@@U12@@std@@V?$allocator@U?$pair@USmoothness@manifold@@U12@@std@@@2@@std@@@std@@PEAX@std@@@1@@Z
	??$_Erase_head@V?$allocator@U?$_Tree_node@U?$pair@HH@std@@PEAX@std@@@std@@@?$_Tree_val@U?$_Tree_simple_types@U?$pair@HH@std@@@std@@@std@@QEAAXAEAV?$allocator@U?$_Tree_node@U?$pair@HH@std@@PEAX@std@@@1@@Z
	??$_Erase_tree@V?$allocator@U?$_Tree_node@U?$pair@$$CBHH@std@@PEAX@std@@@std@@@?$_Tree_val@U?$_Tree_simple_types@U?$pair@$$CBHH@std@@@std@@@std@@QEAAXAEAV?$allocator@U?$_Tree_node@U?$pair@$$CBHH@std@@PEAX@std@@@1@PEAU?$_Tree_node@U?$pair@$$CBHH@std@@PEAX@1@@Z
	??$_Erase_tree@V?$allocator@U?$_Tree_node@U?$pair@$$CBHU?$pair@USmoothness@manifold@@U12@@std@@@std@@PEAX@std@@@std@@@?$_Tree_val@U?$_Tree_simple_types@U?$pair@$$CBHU?$pair@USmoothness@manifold@@U12@@std@@@std@@@std@@@std@@QEAAXAEAV?$allocator@U?$_Tree_node@U?$pair@$$CBHU?$pair@USmoothness@manifold@@U12@@std@@@std@@PEAX@std@@@1@PEAU?$_Tree_node@U?$pair@$$CBHU?$pair@USmoothness@manifold@@U12@@std@@@std@@PEAX@1@@Z
	??$_Erase_tree@V?$allocator@U?$_Tree_node@U?$pair@$$CBHURelation@Impl@Manifold@manifold@@@std@@PEAX@std@@@std@@@?$_Tree_val@U?$_Tree_simple_types@U?$pair@$$CBHURelation@Impl@Manifold@manifold@@@std@@@std@@@std@@QEAAXAEAV?$allocator@U?$_Tree_node@U?$pair@$$CBHURelation@Impl@Manifold@manifold@@@std@@PEAX@std@@@1@PEAU?$_Tree_node@U?$pair@$$CBHURelation@Impl@Manifold@manifold@@@std@@PEAX@1@@Z
	??$_Erase_tree@V?$allocator@U?$_Tree_node@U?$pair@$$CBHV?$vector@U?$pair@USmoothness@manifold@@U12@@std@@V?$allocator@U?$pair@USmoothness@manifold@@U12@@std@@@2@@std@@@std@@PEAX@std@@@std@@@?$_Tree_val@U?$_Tree_simple_types@U?$pair@$$CBHV?$vector@U?$pair@USmoothness@manifold@@U12@@std@@V?$allocator@U?$pair@USmoothness@manifold@@U12@@std@@@2@@std@@@std@@@std@@@std@@QEAAXAEAV?$allocator@U?$_Tree_node@U?$pair@$$CBHV?$vector@U?$pair@USmoothness@manifold@@U12@@std@@V?$allocator@U?$pair@USmoothness@manifold@@U12@@std@@@2@@std@@@std@@PEAX@std@@@1@PEAU?$_Tree_node@U?$pair@$$CBHV?$vector@U?$pair@USmoothness@manifold@@U12@@std@@V?$allocator@U?$pair@USmoothness@manifold@@U12@@std@@@2@@std@@@std@@PEAX@1@@Z
	??$_Erase_tree@V?$allocator@U?$_Tree_node@U?$pair@HH@std@@PEAX@std@@@std@@@?$_Tree_val@U?$_Tree_simple_types@U?$pair@HH@std@@@std@@@std@@QEAAXAEAV?$allocator@U?$_Tree_node@U?$pair@HH@std@@PEAX@std@@@1@PEAU?$_Tree_node@U?$pair@HH@std@@PEAX@1@@Z
	??$_Erase_tree_and_orphan@V?$allocator@U?$_Tree_node@U?$pair@$$CBHURelation@Impl@Manifold@manifold@@@std@@PEAX@std@@@std@@@?$_Tree_val@U?$_Tree_simple_types@U?$pair@$$CBHURelation@Impl@Manifold@manifold@@@std@@@std@@@std@@QEAAXAEAV?$allocator@U?$_Tree_node@U?$pair@$$CBHURelation@Impl@Manifold@manifold@@@std@@PEAX@std@@@1@PEAU?$_Tree_node@U?$pair@$$CBHURelation@Impl@Manifold@manifold@@@std@@PEAX@1@@Z
	??$_Fill_memset@PEADD@std@@YAXPEADD_K@Z
	??$_Fill_memset@PEAEE@std@@YAXPEAEE_K@Z
	??$_Fill_memset@PEA_N_N@std@@YAXPEA_N_N_K@Z
	??$_Fill_zero_memset@PEAG@std@@YAXPEAG_K@Z
	??$_Fill_zero_memset@PEAH@std@@YAXPEAH_K@Z
	??$_Fill_zero_memset@PEAI@std@@YAXPEAI_K@Z
	??$_Fill_zero_memset@PEAN@std@@YAXPEAN_K@Z
	??$_Fill_zero_memset@PEA_K@std@@YAXPEA_K_K@Z
	??$_Find@H@?$_Hash@V?$_Umap_traits@HHV?$_Uhash_compare@HU?$hash@H@std@@U?$equal_to@H@2@@std@@V?$allocator@U?$pair@$$CBHH@std@@@2@$0A@@std@@@std@@AEBAPEAU?$_List_node@U?$pair@$$CBHH@std@@PEAX@1@AEBH_K@Z
	??$_Find@H@?$_Hash@V?$_Uset_traits@HV?$_Uhash_compare@HU?$hash@H@std@@U?$equal_to@H@2@@std@@V?$allocator@H@2@$0A@@std@@@std@@AEBAPEAU?$_List_node@HPEAX@1@AEBH_K@Z
	??$_Find@H@?$_Tree@V?$_Tmap_traits@HHU?$less@H@std@@V?$allocator@U?$pair@$$CBHH@std@@@2@$00@std@@@std@@AEBAPEAU?$_Tree_node@U?$pair@$$CBHH@std@@PEAX@1@AEBH@Z
	??$_Find@H@?$_Tree@V?$_Tmap_traits@HU?$pair@USmoothness@manifold@@U12@@std@@U?$less@H@2@V?$allocator@U?$pair@$$CBHU?$pair@USmoothness@manifold@@U12@@std@@@std@@@2@$0A@@std@@@std@@AEBAPEAU?$_Tree_node@U?$pair@$$CBHU?$pair@USmoothness@manifold@@U12@@std@@@std@@PEAX@1@AEBH@Z
	??$_Find@H@?$_Tree@V?$_Tmap_traits@HURelation@Impl@Manifold@manifold@@U?$less@H@std@@V?$allocator@U?$pair@$$CBHURelation@Impl@Manifold@manifold@@@std@@@6@$0A@@std@@@std@@AEBAPEAU?$_Tree_node@U?$pair@$$CBHURelation@Impl@Manifold@manifold@@@std@@PEAX@1@AEBH@Z
	??$_Find@H@?$_Tree@V?$_Tmap_traits@HV?$vector@U?$pair@USmoothness@manifold@@U12@@std@@V?$allocator@U?$pair@USmoothness@manifold@@U12@@std@@@2@@std@@U?$less@H@2@V?$allocator@U?$pair@$$CBHV?$vector@U?$pair@USmoothness@manifold@@U12@@std@@V?$allocator@U?$pair@USmoothness@manifold@@U12@@std@@@2@@std@@@std@@@2@$0A@@std@@@std@@AEBAPEAU?$_Tree_node@U?$pair@$$CBHV?$vector@U?$pair@USmoothness@manifold@@U12@@std@@V?$allocator@U?$pair@USmoothness@manifold@@U12@@std@@@2@@std@@@std@@PEAX@1@AEBH@Z
	??$_Find@U?$pair@HH@std@@@?$_Tree@V?$_Tset_traits@U?$pair@HH@std@@U?$less@U?$pair@HH@std@@@2@V?$allocator@U?$pair@HH@std@@@2@$00@std@@@std@@AEBAPEAU?$_Tree_node@U?$pair@HH@std@@PEAX@1@AEBU?$pair@HH@1@@Z
	??$_Find_last@H@?$_Hash@V?$_Umap_traits@HHV?$_Uhash_compare@HU?$hash@H@std@@U?$equal_to@H@2@@std@@V?$allocator@U?$pair@$$CBHH@std@@@2@$0A@@std@@@std@@IEBA?AU?$_Hash_find_last_result@PEAU?$_List_node@U?$pair@$$CBHH@std@@PEAX@std@@@1@AEBH_K@Z
	??$_Find_last@H@?$_Hash@V?$_Uset_traits@HV?$_Uhash_compare@HU?$hash@H@std@@U?$equal_to@H@2@@std@@V?$allocator@H@2@$0A@@std@@@std@@IEBA?AU?$_Hash_find_last_result@PEAU?$_List_node@HPEAX@std@@@1@AEBH_K@Z
	??$_Find_last@_K@?$_Hash@V?$_Umap_traits@_K_KV?$_Uhash_compare@_KU?$hash@_K@std@@U?$equal_to@_K@2@@std@@V?$allocator@U?$pair@$$CB_K_K@std@@@2@$0A@@std@@@std@@IEBA?AU?$_Hash_find_last_result@PEAU?$_List_node@U?$pair@$$CB_K_K@std@@PEAX@std@@@1@AEB_K_K@Z
	??$_Find_lower_bound@H@?$_Tree@V?$_Tmap_traits@HHU?$less@H@std@@V?$allocator@U?$pair@$$CBHH@std@@@2@$00@std@@@std@@IEBA?AU?$_Tree_find_result@PEAU?$_Tree_node@U?$pair@$$CBHH@std@@PEAX@std@@@1@AEBH@Z
	??$_Find_lower_bound@H@?$_Tree@V?$_Tmap_traits@HU?$pair@USmoothness@manifold@@U12@@std@@U?$less@H@2@V?$allocator@U?$pair@$$CBHU?$pair@USmoothness@manifold@@U12@@std@@@std@@@2@$0A@@std@@@std@@IEBA?AU?$_Tree_find_result@PEAU?$_Tree_node@U?$pair@$$CBHU?$pair@USmoothness@manifold@@U12@@std@@@std@@PEAX@std@@@1@AEBH@Z
	??$_Find_lower_bound@H@?$_Tree@V?$_Tmap_traits@HURelation@Impl@Manifold@manifold@@U?$less@H@std@@V?$allocator@U?$pair@$$CBHURelation@Impl@Manifold@manifold@@@std@@@6@$0A@@std@@@std@@IEBA?AU?$_Tree_find_result@PEAU?$_Tree_node@U?$pair@$$CBHURelation@Impl@Manifold@manifold@@@std@@PEAX@std@@@1@AEBH@Z
	??$_Find_lower_bound@H@?$_Tree@V?$_Tmap_traits@HV?$vector@U?$pair@USmoothness@manifold@@U12@@std@@V?$allocator@U?$pair@USmoothness@manifold@@U12@@std@@@2@@std@@U?$less@H@2@V?$allocator@U?$pair@$$CBHV?$vector@U?$pair@USmoothness@manifold@@U12@@std@@V?$allocator@U?$pair@USmoothness@manifold@@U12@@std@@@2@@std@@@std@@@2@$0A@@std@@@std@@IEBA?AU?$_Tree_find_result@PEAU?$_Tree_node@U?$pair@$$CBHV?$vector@U?$pair@USmoothness@manifold@@U12@@std@@V?$allocator@U?$pair@USmoothness@manifold@@U12@@std@@@2@@std@@@std@@PEAX@std@@@1@AEBH@Z
	??$_Find_lower_bound@U?$pair@HH@std@@@?$_Tree@V?$_Tset_traits@U?$pair@HH@std@@U?$less@U?$pair@HH@std@@@2@V?$allocator@U?$pair@HH@std@@@2@$00@std@@@std@@IEBA?AU?$_Tree_find_result@PEAU?$_Tree_node@U?$pair@HH@std@@PEAX@std@@@1@AEBU?$pair@HH@1@@Z
	??$_Find_unchecked1@PEAHH@std@@YAPEAHPEAHQEAHAEBHU?$integral_constant@_N$0A@@0@@Z
	??$_Find_unchecked@PEAHH@std@@YAPEAHQEAH0AEBH@Z
	??$_Find_upper_bound@H@?$_Tree@V?$_Tmap_traits@HHU?$less@H@std@@V?$allocator@U?$pair@$$CBHH@std@@@2@$00@std@@@std@@IEBA?AU?$_Tree_find_result@PEAU?$_Tree_node@U?$pair@$$CBHH@std@@PEAX@std@@@1@AEBH@Z
	??$_Find_upper_bound@U?$pair@HH@std@@@?$_Tree@V?$_Tset_traits@U?$pair@HH@std@@U?$less@U?$pair@HH@std@@@2@V?$allocator@U?$pair@HH@std@@@2@$00@std@@@std@@IEBA?AU?$_Tree_find_result@PEAU?$_Tree_node@U?$pair@HH@std@@PEAX@std@@@1@AEBU?$pair@HH@1@@Z
	??$_Fix@V?$tuple@$$QEA_K@std@@@?$_Select_fixer@U?$_Ph@$00@std@@$0A@$0A@$00@std@@SA$$QEA_KAEAU?$_Ph@$00@1@$$QEAV?$tuple@$$QEA_K@1@@Z
	??$_Fix@V?$tuple@AEA_K@std@@@?$_Select_fixer@U?$_Ph@$00@std@@$0A@$0A@$00@std@@SAAEA_KAEAU?$_Ph@$00@1@$$QEAV?$tuple@AEA_K@1@@Z
	??$_Fix_arg@U?$_Ph@$00@std@@V?$tuple@$$QEA_K@2@@std@@YA$$QEA_KAEAU?$_Ph@$00@0@$$QEAV?$tuple@$$QEA_K@0@@Z
	??$_Fix_arg@U?$_Ph@$00@std@@V?$tuple@AEA_K@2@@std@@YAAEA_KAEAU?$_Ph@$00@0@$$QEAV?$tuple@AEA_K@0@@Z
	??$_Fnv1a_append_value@H@std@@YA_K_KAEBH@Z
	??$_Fnv1a_append_value@I@std@@YA_K_KAEBI@Z
	??$_Fnv1a_append_value@_K@std@@YA_K_KAEB_K@Z
	??$_Free_non_head@V?$allocator@U?$_List_node@HPEAX@std@@@std@@@?$_List_node@HPEAX@std@@SAXAEAV?$allocator@U?$_List_node@HPEAX@std@@@1@PEAU01@@Z
	??$_Free_non_head@V?$allocator@U?$_List_node@U?$pair@$$CBHH@std@@PEAX@std@@@std@@@?$_List_node@U?$pair@$$CBHH@std@@PEAX@std@@SAXAEAV?$allocator@U?$_List_node@U?$pair@$$CBHH@std@@PEAX@std@@@1@PEAU01@@Z
	??$_Free_non_head@V?$allocator@U?$_List_node@U?$pair@$$CB_K_K@std@@PEAX@std@@@std@@@?$_List_node@U?$pair@$$CB_K_K@std@@PEAX@std@@SAXAEAV?$allocator@U?$_List_node@U?$pair@$$CB_K_K@std@@PEAX@std@@@1@PEAU01@@Z
	??$_Freenode0@V?$allocator@U?$_List_node@HPEAX@std@@@std@@@?$_List_node@HPEAX@std@@SAXAEAV?$allocator@U?$_List_node@HPEAX@std@@@1@PEAU01@@Z
	??$_Freenode0@V?$allocator@U?$_List_node@U?$pair@$$CBHH@std@@PEAX@std@@@std@@@?$_List_node@U?$pair@$$CBHH@std@@PEAX@std@@SAXAEAV?$allocator@U?$_List_node@U?$pair@$$CBHH@std@@PEAX@std@@@1@PEAU01@@Z
	??$_Freenode0@V?$allocator@U?$_List_node@U?$pair@$$CB_K_K@std@@PEAX@std@@@std@@@?$_List_node@U?$pair@$$CB_K_K@std@@PEAX@std@@SAXAEAV?$allocator@U?$_List_node@U?$pair@$$CB_K_K@std@@PEAX@std@@@1@PEAU01@@Z
	??$_Freenode0@V?$allocator@U?$_Tree_node@U?$pair@$$CBHH@std@@PEAX@std@@@std@@@?$_Tree_node@U?$pair@$$CBHH@std@@PEAX@std@@SAXAEAV?$allocator@U?$_Tree_node@U?$pair@$$CBHH@std@@PEAX@std@@@1@PEAU01@@Z
	??$_Freenode0@V?$allocator@U?$_Tree_node@U?$pair@$$CBHU?$pair@USmoothness@manifold@@U12@@std@@@std@@PEAX@std@@@std@@@?$_Tree_node@U?$pair@$$CBHU?$pair@USmoothness@manifold@@U12@@std@@@std@@PEAX@std@@SAXAEAV?$allocator@U?$_Tree_node@U?$pair@$$CBHU?$pair@USmoothness@manifold@@U12@@std@@@std@@PEAX@std@@@1@PEAU01@@Z
	??$_Freenode0@V?$allocator@U?$_Tree_node@U?$pair@$$CBHURelation@Impl@Manifold@manifold@@@std@@PEAX@std@@@std@@@?$_Tree_node@U?$pair@$$CBHURelation@Impl@Manifold@manifold@@@std@@PEAX@std@@SAXAEAV?$allocator@U?$_Tree_node@U?$pair@$$CBHURelation@Impl@Manifold@manifold@@@std@@PEAX@std@@@1@PEAU01@@Z
	??$_Freenode0@V?$allocator@U?$_Tree_node@U?$pair@$$CBHV?$vector@U?$pair@USmoothness@manifold@@U12@@std@@V?$allocator@U?$pair@USmoothness@manifold@@U12@@std@@@2@@std@@@std@@PEAX@std@@@std@@@?$_Tree_node@U?$pair@$$CBHV?$vector@U?$pair@USmoothness@manifold@@U12@@std@@V?$allocator@U?$pair@USmoothness@manifold@@U12@@std@@@2@@std@@@std@@PEAX@std@@SAXAEAV?$allocator@U?$_Tree_node@U?$pair@$$CBHV?$vector@U?$pair@USmoothness@manifold@@U12@@std@@V?$allocator@U?$pair@USmoothness@manifold@@U12@@std@@@2@@std@@@std@@PEAX@std@@@1@PEAU01@@Z
	??$_Freenode0@V?$allocator@U?$_Tree_node@U?$pair@HH@std@@PEAX@std@@@std@@@?$_Tree_node@U?$pair@HH@std@@PEAX@std@@SAXAEAV?$allocator@U?$_Tree_node@U?$pair@HH@std@@PEAX@std@@@1@PEAU01@@Z
	??$_Freenode@V?$allocator@U?$_List_node@HPEAX@std@@@std@@@?$_List_node@HPEAX@std@@SAXAEAV?$allocator@U?$_List_node@HPEAX@std@@@1@PEAU01@@Z
	??$_Freenode@V?$allocator@U?$_List_node@U?$pair@$$CBHH@std@@PEAX@std@@@std@@@?$_List_node@U?$pair@$$CBHH@std@@PEAX@std@@SAXAEAV?$allocator@U?$_List_node@U?$pair@$$CBHH@std@@PEAX@std@@@1@PEAU01@@Z
	??$_Freenode@V?$allocator@U?$_List_node@U?$pair@$$CB_K_K@std@@PEAX@std@@@std@@@?$_List_node@U?$pair@$$CB_K_K@std@@PEAX@std@@SAXAEAV?$allocator@U?$_List_node@U?$pair@$$CB_K_K@std@@PEAX@std@@@1@PEAU01@@Z
	??$_Freenode@V?$allocator@U?$_Tree_node@U?$pair@$$CBHH@std@@PEAX@std@@@std@@@?$_Tree_node@U?$pair@$$CBHH@std@@PEAX@std@@SAXAEAV?$allocator@U?$_Tree_node@U?$pair@$$CBHH@std@@PEAX@std@@@1@PEAU01@@Z
	??$_Freenode@V?$allocator@U?$_Tree_node@U?$pair@$$CBHU?$pair@USmoothness@manifold@@U12@@std@@@std@@PEAX@std@@@std@@@?$_Tree_node@U?$pair@$$CBHU?$pair@USmoothness@manifold@@U12@@std@@@std@@PEAX@std@@SAXAEAV?$allocator@U?$_Tree_node@U?$pair@$$CBHU?$pair@USmoothness@manifold@@U12@@std@@@std@@PEAX@std@@@1@PEAU01@@Z
	??$_Freenode@V?$allocator@U?$_Tree_node@U?$pair@$$CBHURelation@Impl@Manifold@manifold@@@std@@PEAX@std@@@std@@@?$_Tree_node@U?$pair@$$CBHURelation@Impl@Manifold@manifold@@@std@@PEAX@std@@SAXAEAV?$allocator@U?$_Tree_node@U?$pair@$$CBHURelation@Impl@Manifold@manifold@@@std@@PEAX@std@@@1@PEAU01@@Z
	??$_Freenode@V?$allocator@U?$_Tree_node@U?$pair@$$CBHV?$vector@U?$pair@USmoothness@manifold@@U12@@std@@V?$allocator@U?$pair@USmoothness@manifold@@U12@@std@@@2@@std@@@std@@PEAX@std@@@std@@@?$_Tree_node@U?$pair@$$CBHV?$vector@U?$pair@USmoothness@manifold@@U12@@std@@V?$allocator@U?$pair@USmoothness@manifold@@U12@@std@@@2@@std@@@std@@PEAX@std@@SAXAEAV?$allocator@U?$_Tree_node@U?$pair@$$CBHV?$vector@U?$pair@USmoothness@manifold@@U12@@std@@V?$allocator@U?$pair@USmoothness@manifold@@U12@@std@@@2@@std@@@std@@PEAX@std@@@1@PEAU01@@Z
	??$_Freenode@V?$allocator@U?$_Tree_node@U?$pair@HH@std@@PEAX@std@@@std@@@?$_Tree_node@U?$pair@HH@std@@PEAX@std@@SAXAEAV?$allocator@U?$_Tree_node@U?$pair@HH@std@@PEAX@std@@@1@PEAU01@@Z
	??$_Get_linear_congruential_seed@I$0A@$0HPPPPPPP@@std@@YAII@Z
	??$_Get_size_of_n@$00@std@@YA_K_K@Z
	??$_Get_size_of_n@$03@std@@YA_K_K@Z
	??$_Get_size_of_n@$07@std@@YA_K_K@Z
	??$_Get_size_of_n@$0BA@@std@@YA_K_K@Z
	??$_Get_size_of_n@$0BI@@std@@YA_K_K@Z
	??$_Get_size_of_n@$0CA@@std@@YA_K_K@Z
	??$_Get_size_of_n@$0CI@@std@@YA_K_K@Z
	??$_Get_size_of_n@$0EA@@std@@YA_K_K@Z
	??$_Get_size_of_n@$0EI@@std@@YA_K_K@Z
	??$_Get_size_of_n@$0FA@@std@@YA_K_K@Z
	??$_Get_size_of_n@$0FI@@std@@YA_K_K@Z
	??$_Get_size_of_n@$0JI@@std@@YA_K_K@Z
	??$_Get_size_of_n@$0M@@std@@YA_K_K@Z
	??$_Get_temporary_buffer@H@std@@YA?AU?$pair@PEAH_J@0@_J@Z
	??$_Get_temporary_buffer@UHalfedge@manifold@@@std@@YA?AU?$pair@PEAUHalfedge@manifold@@_J@0@_J@Z
	??$_Get_temporary_buffer@_J@std@@YA?AU?$pair@PEA_J_J@0@_J@Z
	??$_Get_unwrapped@AEAPEAD@std@@YA?A_TAEAPEAD@Z
	??$_Get_unwrapped@AEAPEAE@std@@YA?A_TAEAPEAE@Z
	??$_Get_unwrapped@AEAPEAH@std@@YA?A_TAEAPEAH@Z
	??$_Get_unwrapped@AEAPEAI@std@@YA?A_TAEAPEAI@Z
	??$_Get_unwrapped@AEAPEAN@std@@YA?A_TAEAPEAN@Z
	??$_Get_unwrapped@AEAPEAU?$Point@N@Clipper2Lib@@@std@@YA?A_TAEAPEAU?$Point@N@Clipper2Lib@@@Z
	??$_Get_unwrapped@AEAPEAU?$pair@HH@std@@@std@@YA?A_TAEAPEAU?$pair@HH@0@@Z
	??$_Get_unwrapped@AEAPEAU?$vec@H$02@linalg@@@std@@YA?A_TAEAPEAU?$vec@H$02@linalg@@@Z
	??$_Get_unwrapped@AEAPEAU?$vec@H$03@linalg@@@std@@YA?A_TAEAPEAU?$vec@H$03@linalg@@@Z
	??$_Get_unwrapped@AEAPEAU?$vec@N$02@linalg@@@std@@YA?A_TAEAPEAU?$vec@N$02@linalg@@@Z
	??$_Get_unwrapped@AEAPEAU?$vec@N$03@linalg@@@std@@YA?A_TAEAPEAU?$vec@N$03@linalg@@@Z
	??$_Get_unwrapped@AEAPEAUBarycentric@manifold@@@std@@YA?A_TAEAPEAUBarycentric@manifold@@@Z
	??$_Get_unwrapped@AEAPEAUBox@manifold@@@std@@YA?A_TAEAPEAUBox@manifold@@@Z
	??$_Get_unwrapped@AEAPEAUFaceData@QuickHull@manifold@@@std@@YA?A_TAEAPEAUFaceData@QuickHull@manifold@@@Z
	??$_Get_unwrapped@AEAPEAUHalfedge@manifold@@@std@@YA?A_TAEAPEAUHalfedge@manifold@@@Z
	??$_Get_unwrapped@AEAPEAUTmpEdge@manifold@@@std@@YA?A_TAEAPEAUTmpEdge@manifold@@@Z
	??$_Get_unwrapped@AEAPEAUTriRef@manifold@@@std@@YA?A_TAEAPEAUTriRef@manifold@@@Z
	??$_Get_unwrapped@AEAPEA_J@std@@YA?A_TAEAPEA_J@Z
	??$_Get_unwrapped@AEAPEA_K@std@@YA?A_TAEAPEA_K@Z
	??$_Get_unwrapped@AEAPEA_N@std@@YA?A_TAEAPEA_N@Z
	??$_Get_unwrapped@AEAPEBD@std@@YA?A_TAEAPEBD@Z
	??$_Get_unwrapped@AEAPEBH@std@@YA?A_TAEAPEBH@Z
	??$_Get_unwrapped@AEAPEBN@std@@YA?A_TAEAPEBN@Z
	??$_Get_unwrapped@AEAPEBU?$pair@HH@std@@@std@@YA?A_TAEAPEBU?$pair@HH@0@@Z
	??$_Get_unwrapped@AEAPEBU?$vec@H$02@linalg@@@std@@YA?A_TAEAPEBU?$vec@H$02@linalg@@@Z
	??$_Get_unwrapped@AEAPEBU?$vec@N$02@linalg@@@std@@YA?A_TAEAPEBU?$vec@N$02@linalg@@@Z
	??$_Get_unwrapped@AEAPEBU?$vec@N$03@linalg@@@std@@YA?A_TAEAPEBU?$vec@N$03@linalg@@@Z
	??$_Get_unwrapped@AEAPEBUBox@manifold@@@std@@YA?A_TAEAPEBUBox@manifold@@@Z
	??$_Get_unwrapped@AEAPEBUHalfedge@manifold@@@std@@YA?A_TAEAPEBUHalfedge@manifold@@@Z
	??$_Get_unwrapped@AEAPEBUTriRef@manifold@@@std@@YA?A_TAEAPEBUTriRef@manifold@@@Z
	??$_Get_unwrapped@AEAPEB_K@std@@YA?A_TAEAPEB_K@Z
	??$_Get_unwrapped@AEAU?$CountingIterator@_K@manifold@@@std@@YA?A_TAEAU?$CountingIterator@_K@manifold@@@Z
	??$_Get_unwrapped@AEAUStridedRangeIter@?$StridedRange@PEBN@manifold@@@std@@YA?A_TAEAUStridedRangeIter@?$StridedRange@PEBN@manifold@@@Z
	??$_Get_unwrapped@AEAV?$_Tree_unchecked_const_iterator@V?$_Tree_val@U?$_Tree_simple_types@U?$pair@$$CBHURelation@Impl@Manifold@manifold@@@std@@@std@@@std@@U_Iterator_base0@2@@std@@@std@@YA?A_TAEAV?$_Tree_unchecked_const_iterator@V?$_Tree_val@U?$_Tree_simple_types@U?$pair@$$CBHURelation@Impl@Manifold@manifold@@@std@@@std@@@std@@U_Iterator_base0@2@@0@@Z
	??$_Get_unwrapped@AEAV?$_Vector_const_iterator@V?$_Vector_val@U?$_Simple_types@H@std@@@std@@@std@@@std@@YA?A_TAEAV?$_Vector_const_iterator@V?$_Vector_val@U?$_Simple_types@H@std@@@std@@@0@@Z
	??$_Get_unwrapped@AEAV?$_Vector_const_iterator@V?$_Vector_val@U?$_Simple_types@M@std@@@std@@@std@@@std@@YA?A_TAEAV?$_Vector_const_iterator@V?$_Vector_val@U?$_Simple_types@M@std@@@std@@@0@@Z
	??$_Get_unwrapped@AEAV?$_Vector_const_iterator@V?$_Vector_val@U?$_Simple_types@N@std@@@std@@@std@@@std@@YA?A_TAEAV?$_Vector_const_iterator@V?$_Vector_val@U?$_Simple_types@N@std@@@std@@@0@@Z
	??$_Get_unwrapped@AEAV?$_Vector_const_iterator@V?$_Vector_val@U?$_Simple_types@U?$vec@H$02@linalg@@@std@@@std@@@std@@@std@@YA?A_TAEAV?$_Vector_const_iterator@V?$_Vector_val@U?$_Simple_types@U?$vec@H$02@linalg@@@std@@@std@@@0@@Z
	??$_Get_unwrapped@AEAV?$_Vector_const_iterator@V?$_Vector_val@U?$_Simple_types@U?$vec@N$02@linalg@@@std@@@std@@@std@@@std@@YA?A_TAEAV?$_Vector_const_iterator@V?$_Vector_val@U?$_Simple_types@U?$vec@N$02@linalg@@@std@@@std@@@0@@Z
	??$_Get_unwrapped@AEAV?$_Vector_const_iterator@V?$_Vector_val@U?$_Simple_types@V?$vector@U?$Point@N@Clipper2Lib@@V?$allocator@U?$Point@N@Clipper2Lib@@@std@@@std@@@std@@@std@@@std@@@std@@YA?A_TAEAV?$_Vector_const_iterator@V?$_Vector_val@U?$_Simple_types@V?$vector@U?$Point@N@Clipper2Lib@@V?$allocator@U?$Point@N@Clipper2Lib@@@std@@@std@@@std@@@std@@@0@@Z
	??$_Get_unwrapped@AEAV?$_Vector_const_iterator@V?$_Vector_val@U?$_Simple_types@_K@std@@@std@@@std@@@std@@YA?A_TAEAV?$_Vector_const_iterator@V?$_Vector_val@U?$_Simple_types@_K@std@@@std@@@0@@Z
	??$_Get_unwrapped@AEAV?$_Vector_iterator@V?$_Vector_val@U?$_Simple_types@H@std@@@std@@@std@@@std@@YA?A_TAEAV?$_Vector_iterator@V?$_Vector_val@U?$_Simple_types@H@std@@@std@@@0@@Z
	??$_Get_unwrapped@AEAV?$_Vector_iterator@V?$_Vector_val@U?$_Simple_types@V?$Vec@_K@manifold@@@std@@@std@@@std@@@std@@YA?A_TAEAV?$_Vector_iterator@V?$_Vector_val@U?$_Simple_types@V?$Vec@_K@manifold@@@std@@@std@@@0@@Z
	??$_Get_unwrapped@AEAV?$_Vector_iterator@V?$_Vector_val@U?$_Simple_types@V?$shared_ptr@VCsgLeafNode@manifold@@@std@@@std@@@std@@@std@@@std@@YA?A_TAEAV?$_Vector_iterator@V?$_Vector_val@U?$_Simple_types@V?$shared_ptr@VCsgLeafNode@manifold@@@std@@@std@@@std@@@0@@Z
	??$_Get_unwrapped@AEBQEAD@std@@YA?A_TAEBQEAD@Z
	??$_Get_unwrapped@AEBQEAE@std@@YA?A_TAEBQEAE@Z
	??$_Get_unwrapped@AEBQEAH@std@@YA?A_TAEBQEAH@Z
	??$_Get_unwrapped@AEBQEAI@std@@YA?A_TAEBQEAI@Z
	??$_Get_unwrapped@AEBQEAM@std@@YA?A_TAEBQEAM@Z
	??$_Get_unwrapped@AEBQEAN@std@@YA?A_TAEBQEAN@Z
	??$_Get_unwrapped@AEBQEAPEAH@std@@YA?A_TAEBQEAPEAH@Z
	??$_Get_unwrapped@AEBQEAU?$Point@N@Clipper2Lib@@@std@@YA?A_TAEBQEAU?$Point@N@Clipper2Lib@@@Z
	??$_Get_unwrapped@AEBQEAU?$Point@_J@Clipper2Lib@@@std@@YA?A_TAEBQEAU?$Point@_J@Clipper2Lib@@@Z
	??$_Get_unwrapped@AEBQEAU?$mat@N$02$02@linalg@@@std@@YA?A_TAEBQEAU?$mat@N$02$02@linalg@@@Z
	??$_Get_unwrapped@AEBQEAU?$pair@HH@std@@@std@@YA?A_TAEBQEAU?$pair@HH@0@@Z
	??$_Get_unwrapped@AEBQEAU?$pair@U?$vec@H$02@linalg@@H@std@@@std@@YA?A_TAEBQEAU?$pair@U?$vec@H$02@linalg@@H@0@@Z
	??$_Get_unwrapped@AEBQEAU?$pair@USmoothness@manifold@@U12@@std@@@std@@YA?A_TAEBQEAU?$pair@USmoothness@manifold@@U12@@0@@Z
	??$_Get_unwrapped@AEBQEAU?$vec@H$01@linalg@@@std@@YA?A_TAEBQEAU?$vec@H$01@linalg@@@Z
	??$_Get_unwrapped@AEBQEAU?$vec@H$02@linalg@@@std@@YA?A_TAEBQEAU?$vec@H$02@linalg@@@Z
	??$_Get_unwrapped@AEBQEAU?$vec@N$01@linalg@@@std@@YA?A_TAEBQEAU?$vec@N$01@linalg@@@Z
	??$_Get_unwrapped@AEBQEAU?$vec@N$02@linalg@@@std@@YA?A_TAEBQEAU?$vec@N$02@linalg@@@Z
	??$_Get_unwrapped@AEBQEAU?$vec@N$03@linalg@@@std@@YA?A_TAEBQEAU?$vec@N$03@linalg@@@Z
	??$_Get_unwrapped@AEBQEAUBarycentric@manifold@@@std@@YA?A_TAEBQEAUBarycentric@manifold@@@Z
	??$_Get_unwrapped@AEBQEAUBox@manifold@@@std@@YA?A_TAEBQEAUBox@manifold@@@Z
	??$_Get_unwrapped@AEBQEAUFace@MeshBuilder@manifold@@@std@@YA?A_TAEBQEAUFace@MeshBuilder@manifold@@@Z
	??$_Get_unwrapped@AEBQEAUFaceData@QuickHull@manifold@@@std@@YA?A_TAEBQEAUFaceData@QuickHull@manifold@@@Z
	??$_Get_unwrapped@AEBQEAUHalfedge@manifold@@@std@@YA?A_TAEBQEAUHalfedge@manifold@@@Z
	??$_Get_unwrapped@AEBQEAUPolyVert@manifold@@@std@@YA?A_TAEBQEAUPolyVert@manifold@@@Z
	??$_Get_unwrapped@AEBQEAUSmoothness@manifold@@@std@@YA?A_TAEBQEAUSmoothness@manifold@@@Z
	??$_Get_unwrapped@AEBQEAUTmpEdge@manifold@@@std@@YA?A_TAEBQEAUTmpEdge@manifold@@@Z
	??$_Get_unwrapped@AEBQEAUTriRef@manifold@@@std@@YA?A_TAEBQEAUTriRef@manifold@@@Z
	??$_Get_unwrapped@AEBQEAV?$Vec@_K@manifold@@@std@@YA?A_TAEBQEAV?$Vec@_K@manifold@@@Z
	??$_Get_unwrapped@AEBQEAV?$_List_unchecked_const_iterator@V?$_List_val@U?$_List_simple_types@H@std@@@std@@U_Iterator_base0@2@@std@@@std@@YA?A_TAEBQEAV?$_List_unchecked_const_iterator@V?$_List_val@U?$_List_simple_types@H@std@@@std@@U_Iterator_base0@2@@0@@Z
	??$_Get_unwrapped@AEBQEAV?$_List_unchecked_iterator@V?$_List_val@U?$_List_simple_types@U?$pair@$$CBHH@std@@@std@@@std@@@std@@@std@@YA?A_TAEBQEAV?$_List_unchecked_iterator@V?$_List_val@U?$_List_simple_types@U?$pair@$$CBHH@std@@@std@@@std@@@0@@Z
	??$_Get_unwrapped@AEBQEAV?$_List_unchecked_iterator@V?$_List_val@U?$_List_simple_types@U?$pair@$$CB_K_K@std@@@std@@@std@@@std@@@std@@YA?A_TAEBQEAV?$_List_unchecked_iterator@V?$_List_val@U?$_List_simple_types@U?$pair@$$CB_K_K@std@@@std@@@std@@@0@@Z
	??$_Get_unwrapped@AEBQEAV?$shared_ptr@UCsgStackFrame@manifold@@@std@@@std@@YA?A_TAEBQEAV?$shared_ptr@UCsgStackFrame@manifold@@@0@@Z
	??$_Get_unwrapped@AEBQEAV?$shared_ptr@VCsgLeafNode@manifold@@@std@@@std@@YA?A_TAEBQEAV?$shared_ptr@VCsgLeafNode@manifold@@@0@@Z
	??$_Get_unwrapped@AEBQEAV?$shared_ptr@VCsgNode@manifold@@@std@@@std@@YA?A_TAEBQEAV?$shared_ptr@VCsgNode@manifold@@@0@@Z
	??$_Get_unwrapped@AEBQEAV?$shared_ptr@VCsgOpNode@manifold@@@std@@@std@@YA?A_TAEBQEAV?$shared_ptr@VCsgOpNode@manifold@@@0@@Z
	??$_Get_unwrapped@AEBQEAV?$unique_ptr@V?$Vec@_K@manifold@@U?$default_delete@V?$Vec@_K@manifold@@@std@@@std@@@std@@YA?A_TAEBQEAV?$unique_ptr@V?$Vec@_K@manifold@@U?$default_delete@V?$Vec@_K@manifold@@@std@@@0@@Z
	??$_Get_unwrapped@AEBQEAV?$unique_ptr@VPolyPathD@Clipper2Lib@@U?$default_delete@VPolyPathD@Clipper2Lib@@@std@@@std@@@std@@YA?A_TAEBQEAV?$unique_ptr@VPolyPathD@Clipper2Lib@@U?$default_delete@VPolyPathD@Clipper2Lib@@@std@@@0@@Z
	??$_Get_unwrapped@AEBQEAV?$vector@U?$Point@N@Clipper2Lib@@V?$allocator@U?$Point@N@Clipper2Lib@@@std@@@std@@@std@@YA?A_TAEBQEAV?$vector@U?$Point@N@Clipper2Lib@@V?$allocator@U?$Point@N@Clipper2Lib@@@std@@@0@@Z
	??$_Get_unwrapped@AEBQEAV?$vector@U?$Point@_J@Clipper2Lib@@V?$allocator@U?$Point@_J@Clipper2Lib@@@std@@@std@@@std@@YA?A_TAEBQEAV?$vector@U?$Point@_J@Clipper2Lib@@V?$allocator@U?$Point@_J@Clipper2Lib@@@std@@@0@@Z
	??$_Get_unwrapped@AEBQEAV?$vector@U?$vec@N$01@linalg@@V?$allocator@U?$vec@N$01@linalg@@@std@@@std@@@std@@YA?A_TAEBQEAV?$vector@U?$vec@N$01@linalg@@V?$allocator@U?$vec@N$01@linalg@@@std@@@0@@Z
	??$_Get_unwrapped@AEBQEAV?$vector@UPolyVert@manifold@@V?$allocator@UPolyVert@manifold@@@std@@@std@@@std@@YA?A_TAEBQEAV?$vector@UPolyVert@manifold@@V?$allocator@UPolyVert@manifold@@@std@@@0@@Z
	??$_Get_unwrapped@AEBQEAV?$vector@V?$vector@U?$Point@N@Clipper2Lib@@V?$allocator@U?$Point@N@Clipper2Lib@@@std@@@std@@V?$allocator@V?$vector@U?$Point@N@Clipper2Lib@@V?$allocator@U?$Point@N@Clipper2Lib@@@std@@@std@@@2@@std@@@std@@YA?A_TAEBQEAV?$vector@V?$vector@U?$Point@N@Clipper2Lib@@V?$allocator@U?$Point@N@Clipper2Lib@@@std@@@std@@V?$allocator@V?$vector@U?$Point@N@Clipper2Lib@@V?$allocator@U?$Point@N@Clipper2Lib@@@std@@@std@@@2@@0@@Z
	??$_Get_unwrapped@AEBQEAVCrossSection@manifold@@@std@@YA?A_TAEBQEAVCrossSection@manifold@@@Z
	??$_Get_unwrapped@AEBQEAVManifold@manifold@@@std@@YA?A_TAEBQEAVManifold@manifold@@@Z
	??$_Get_unwrapped@AEBQEAVSparseIndices@manifold@@@std@@YA?A_TAEBQEAVSparseIndices@manifold@@@Z
	??$_Get_unwrapped@AEBQEA_J@std@@YA?A_TAEBQEA_J@Z
	??$_Get_unwrapped@AEBQEA_K@std@@YA?A_TAEBQEA_K@Z
	??$_Get_unwrapped@AEBQEA_N@std@@YA?A_TAEBQEA_N@Z
	??$_Get_unwrapped@AEBQEBH@std@@YA?A_TAEBQEBH@Z
	??$_Get_unwrapped@AEBQEBI@std@@YA?A_TAEBQEBI@Z
	??$_Get_unwrapped@AEBQEBU?$vec@H$02@linalg@@@std@@YA?A_TAEBQEBU?$vec@H$02@linalg@@@Z
	??$_Get_unwrapped@AEBQEBU?$vec@N$02@linalg@@@std@@YA?A_TAEBQEBU?$vec@N$02@linalg@@@Z
	??$_Get_unwrapped@AEBQEBU?$vec@N$03@linalg@@@std@@YA?A_TAEBQEBU?$vec@N$03@linalg@@@Z
	??$_Get_unwrapped@AEBQEBUHalfedge@manifold@@@std@@YA?A_TAEBQEBUHalfedge@manifold@@@Z
	??$_Get_unwrapped@AEBQEBUTriRef@manifold@@@std@@YA?A_TAEBQEBUTriRef@manifold@@@Z
	??$_Get_unwrapped@AEBQEBV?$shared_ptr@VCsgNode@manifold@@@std@@@std@@YA?A_TAEBQEBV?$shared_ptr@VCsgNode@manifold@@@0@@Z
	??$_Get_unwrapped@AEBQEBV?$vector@U?$Point@N@Clipper2Lib@@V?$allocator@U?$Point@N@Clipper2Lib@@@std@@@std@@@std@@YA?A_TAEBQEBV?$vector@U?$Point@N@Clipper2Lib@@V?$allocator@U?$Point@N@Clipper2Lib@@@std@@@0@@Z
	??$_Get_unwrapped@AEBQEBV?$vector@U?$vec@N$01@linalg@@V?$allocator@U?$vec@N$01@linalg@@@std@@@std@@@std@@YA?A_TAEBQEBV?$vector@U?$vec@N$01@linalg@@V?$allocator@U?$vec@N$01@linalg@@@std@@@0@@Z
	??$_Get_unwrapped@AEBQEBVCrossSection@manifold@@@std@@YA?A_TAEBQEBVCrossSection@manifold@@@Z
	??$_Get_unwrapped@AEBQEB_K@std@@YA?A_TAEBQEB_K@Z
	??$_Get_unwrapped@AEBV?$_Vector_const_iterator@V?$_Vector_val@U?$_Simple_types@U?$Point@N@Clipper2Lib@@@std@@@std@@@std@@@std@@YA?A_TAEBV?$_Vector_const_iterator@V?$_Vector_val@U?$_Simple_types@U?$Point@N@Clipper2Lib@@@std@@@std@@@0@@Z
	??$_Get_unwrapped@AEBV?$_Vector_const_iterator@V?$_Vector_val@U?$_Simple_types@U?$Point@_J@Clipper2Lib@@@std@@@std@@@std@@@std@@YA?A_TAEBV?$_Vector_const_iterator@V?$_Vector_val@U?$_Simple_types@U?$Point@_J@Clipper2Lib@@@std@@@std@@@0@@Z
	??$_Get_unwrapped@AEBV?$_Vector_const_iterator@V?$_Vector_val@U?$_Simple_types@V?$vector@U?$Point@N@Clipper2Lib@@V?$allocator@U?$Point@N@Clipper2Lib@@@std@@@std@@@std@@@std@@@std@@@std@@YA?A_TAEBV?$_Vector_const_iterator@V?$_Vector_val@U?$_Simple_types@V?$vector@U?$Point@N@Clipper2Lib@@V?$allocator@U?$Point@N@Clipper2Lib@@@std@@@std@@@std@@@std@@@0@@Z
	??$_Get_unwrapped@AEBV?$_Vector_const_iterator@V?$_Vector_val@U?$_Simple_types@V?$vector@U?$Point@_J@Clipper2Lib@@V?$allocator@U?$Point@_J@Clipper2Lib@@@std@@@std@@@std@@@std@@@std@@@std@@YA?A_TAEBV?$_Vector_const_iterator@V?$_Vector_val@U?$_Simple_types@V?$vector@U?$Point@_J@Clipper2Lib@@V?$allocator@U?$Point@_J@Clipper2Lib@@@std@@@std@@@std@@@std@@@0@@Z
	??$_Get_unwrapped@AEBV?$_Vector_iterator@V?$_Vector_val@U?$_Simple_types@H@std@@@std@@@std@@@std@@YA?A_TAEBV?$_Vector_iterator@V?$_Vector_val@U?$_Simple_types@H@std@@@std@@@0@@Z
	??$_Get_unwrapped@AEBV?$_Vector_iterator@V?$_Vector_val@U?$_Simple_types@U?$vec@N$01@linalg@@@std@@@std@@@std@@@std@@YA?A_TAEBV?$_Vector_iterator@V?$_Vector_val@U?$_Simple_types@U?$vec@N$01@linalg@@@std@@@std@@@0@@Z
	??$_Get_unwrapped@AEBV?$_Vector_iterator@V?$_Vector_val@U?$_Simple_types@V?$Vec@_K@manifold@@@std@@@std@@@std@@@std@@YA?A_TAEBV?$_Vector_iterator@V?$_Vector_val@U?$_Simple_types@V?$Vec@_K@manifold@@@std@@@std@@@0@@Z
	??$_Get_unwrapped_n@AEAPEAD_J@std@@YA?A_TAEAPEAD_J@Z
	??$_Get_unwrapped_n@AEAPEAE_J@std@@YA?A_TAEAPEAE_J@Z
	??$_Get_unwrapped_n@AEAPEAG_K@std@@YA?A_TAEAPEAG_K@Z
	??$_Get_unwrapped_n@AEAPEAH_J@std@@YA?A_TAEAPEAH_J@Z
	??$_Get_unwrapped_n@AEAPEAI_J@std@@YA?A_TAEAPEAI_J@Z
	??$_Get_unwrapped_n@AEAPEAM_J@std@@YA?A_TAEAPEAM_J@Z
	??$_Get_unwrapped_n@AEAPEAN_J@std@@YA?A_TAEAPEAN_J@Z
	??$_Get_unwrapped_n@AEAPEAPEAH_J@std@@YA?A_TAEAPEAPEAH_J@Z
	??$_Get_unwrapped_n@AEAPEAU?$pair@HH@std@@_J@std@@YA?A_TAEAPEAU?$pair@HH@0@_J@Z
	??$_Get_unwrapped_n@AEAPEAU?$vec@H$02@linalg@@_J@std@@YA?A_TAEAPEAU?$vec@H$02@linalg@@_J@Z
	??$_Get_unwrapped_n@AEAPEAU?$vec@H$03@linalg@@_J@std@@YA?A_TAEAPEAU?$vec@H$03@linalg@@_J@Z
	??$_Get_unwrapped_n@AEAPEAU?$vec@N$02@linalg@@_J@std@@YA?A_TAEAPEAU?$vec@N$02@linalg@@_J@Z
	??$_Get_unwrapped_n@AEAPEAU?$vec@N$03@linalg@@_J@std@@YA?A_TAEAPEAU?$vec@N$03@linalg@@_J@Z
	??$_Get_unwrapped_n@AEAPEAUBarycentric@manifold@@_J@std@@YA?A_TAEAPEAUBarycentric@manifold@@_J@Z
	??$_Get_unwrapped_n@AEAPEAUBox@manifold@@_J@std@@YA?A_TAEAPEAUBox@manifold@@_J@Z
	??$_Get_unwrapped_n@AEAPEAUFaceData@QuickHull@manifold@@_J@std@@YA?A_TAEAPEAUFaceData@QuickHull@manifold@@_J@Z
	??$_Get_unwrapped_n@AEAPEAUHalfedge@manifold@@_J@std@@YA?A_TAEAPEAUHalfedge@manifold@@_J@Z
	??$_Get_unwrapped_n@AEAPEAUTmpEdge@manifold@@_J@std@@YA?A_TAEAPEAUTmpEdge@manifold@@_J@Z
	??$_Get_unwrapped_n@AEAPEAUTriRef@manifold@@_J@std@@YA?A_TAEAPEAUTriRef@manifold@@_J@Z
	??$_Get_unwrapped_n@AEAPEA_J_J@std@@YA?A_TAEAPEA_J_J@Z
	??$_Get_unwrapped_n@AEAPEA_K_J@std@@YA?A_TAEAPEA_K_J@Z
	??$_Get_unwrapped_n@AEAPEA_N_J@std@@YA?A_TAEAPEA_N_J@Z
	??$_Get_unwrapped_n@AEAUStridedRangeIter@?$StridedRange@PEAN@manifold@@_J@std@@YA?A_TAEAUStridedRangeIter@?$StridedRange@PEAN@manifold@@_J@Z
	??$_Get_unwrapped_n@AEAUStridedRangeIter@?$StridedRange@PEAUBox@manifold@@@manifold@@_J@std@@YA?A_TAEAUStridedRangeIter@?$StridedRange@PEAUBox@manifold@@@manifold@@_J@Z
	??$_Get_unwrapped_n@AEAV?$back_insert_iterator@V?$vector@U?$Point@N@Clipper2Lib@@V?$allocator@U?$Point@N@Clipper2Lib@@@std@@@std@@@std@@_J@std@@YA?A_TAEAV?$back_insert_iterator@V?$vector@U?$Point@N@Clipper2Lib@@V?$allocator@U?$Point@N@Clipper2Lib@@@std@@@std@@@0@_J@Z
	??$_Get_unwrapped_n@AEAV?$back_insert_iterator@V?$vector@U?$Point@_J@Clipper2Lib@@V?$allocator@U?$Point@_J@Clipper2Lib@@@std@@@std@@@std@@_J@std@@YA?A_TAEAV?$back_insert_iterator@V?$vector@U?$Point@_J@Clipper2Lib@@V?$allocator@U?$Point@_J@Clipper2Lib@@@std@@@std@@@0@_J@Z
	??$_Get_unwrapped_n@AEAV?$back_insert_iterator@V?$vector@V?$vector@U?$Point@N@Clipper2Lib@@V?$allocator@U?$Point@N@Clipper2Lib@@@std@@@std@@V?$allocator@V?$vector@U?$Point@N@Clipper2Lib@@V?$allocator@U?$Point@N@Clipper2Lib@@@std@@@std@@@2@@std@@@std@@_J@std@@YA?A_TAEAV?$back_insert_iterator@V?$vector@V?$vector@U?$Point@N@Clipper2Lib@@V?$allocator@U?$Point@N@Clipper2Lib@@@std@@@std@@V?$allocator@V?$vector@U?$Point@N@Clipper2Lib@@V?$allocator@U?$Point@N@Clipper2Lib@@@std@@@std@@@2@@std@@@0@_J@Z
	??$_Get_unwrapped_n@AEAV?$back_insert_iterator@V?$vector@V?$vector@U?$Point@_J@Clipper2Lib@@V?$allocator@U?$Point@_J@Clipper2Lib@@@std@@@std@@V?$allocator@V?$vector@U?$Point@_J@Clipper2Lib@@V?$allocator@U?$Point@_J@Clipper2Lib@@@std@@@std@@@2@@std@@@std@@_J@std@@YA?A_TAEAV?$back_insert_iterator@V?$vector@V?$vector@U?$Point@_J@Clipper2Lib@@V?$allocator@U?$Point@_J@Clipper2Lib@@@std@@@std@@V?$allocator@V?$vector@U?$Point@_J@Clipper2Lib@@V?$allocator@U?$Point@_J@Clipper2Lib@@@std@@@std@@@2@@std@@@0@_J@Z
	??$_Get_unwrapped_unverified@AEAPEAH@std@@YA?A_TAEAPEAH@Z
	??$_Get_unwrapped_unverified@AEAPEAUHalfedge@manifold@@@std@@YA?A_TAEAPEAUHalfedge@manifold@@@Z
	??$_Get_unwrapped_unverified@AEAPEAUTmpEdge@manifold@@@std@@YA?A_TAEAPEAUTmpEdge@manifold@@@Z
	??$_Get_unwrapped_unverified@AEAPEA_K@std@@YA?A_TAEAPEA_K@Z
	??$_Guess_median_unchecked@PEAU?$vec@N$01@linalg@@P6A_NU12@0@Z@std@@YAXPEAU?$vec@N$01@linalg@@00P6A_NU12@1@Z@Z
	??$_Hash_representation@H@std@@YA_KAEBH@Z
	??$_Hash_representation@I@std@@YA_KAEBI@Z
	??$_Hash_representation@_K@std@@YA_KAEB_K@Z
	??$_Idl_dist_add@_J_J@std@@YA?A_P_J0@Z
	??$_Idl_distance@PEADPEAD@std@@YA?A_PAEBQEAD0@Z
	??$_Idl_distance@PEAEPEAE@std@@YA?A_PAEBQEAE0@Z
	??$_Idl_distance@PEAHPEAH@std@@YA?A_PAEBQEAH0@Z
	??$_Idl_distance@PEAIPEAI@std@@YA?A_PAEBQEAI0@Z
	??$_Idl_distance@PEANPEAN@std@@YA?A_PAEBQEAN0@Z
	??$_Idl_distance@PEAPEAHPEAPEAH@std@@YA?A_PAEBQEAPEAH0@Z
	??$_Idl_distance@PEAU?$pair@HH@std@@PEAU12@@std@@YA?A_PAEBQEAU?$pair@HH@0@0@Z
	??$_Idl_distance@PEAU?$vec@H$02@linalg@@PEAU12@@std@@YA?A_PAEBQEAU?$vec@H$02@linalg@@0@Z
	??$_Idl_distance@PEAU?$vec@H$03@linalg@@PEAU12@@std@@YA?A_PAEBQEAU?$vec@H$03@linalg@@0@Z
	??$_Idl_distance@PEAU?$vec@N$02@linalg@@PEAU12@@std@@YA?A_PAEBQEAU?$vec@N$02@linalg@@0@Z
	??$_Idl_distance@PEAU?$vec@N$03@linalg@@PEAU12@@std@@YA?A_PAEBQEAU?$vec@N$03@linalg@@0@Z
	??$_Idl_distance@PEAUBarycentric@manifold@@PEAU12@@std@@YA?A_PAEBQEAUBarycentric@manifold@@0@Z
	??$_Idl_distance@PEAUBox@manifold@@PEAU12@@std@@YA?A_PAEBQEAUBox@manifold@@0@Z
	??$_Idl_distance@PEAUFaceData@QuickHull@manifold@@PEAU123@@std@@YA?A_PAEBQEAUFaceData@QuickHull@manifold@@0@Z
	??$_Idl_distance@PEAUHalfedge@manifold@@PEAU12@@std@@YA?A_PAEBQEAUHalfedge@manifold@@0@Z
	??$_Idl_distance@PEAUTmpEdge@manifold@@PEAU12@@std@@YA?A_PAEBQEAUTmpEdge@manifold@@0@Z
	??$_Idl_distance@PEAUTriRef@manifold@@PEAU12@@std@@YA?A_PAEBQEAUTriRef@manifold@@0@Z
	??$_Idl_distance@PEA_JPEA_J@std@@YA?A_PAEBQEA_J0@Z
	??$_Idl_distance@PEA_KPEA_K@std@@YA?A_PAEBQEA_K0@Z
	??$_Idl_distance@PEA_NPEA_N@std@@YA?A_PAEBQEA_N0@Z
	??$_Idl_distance@PEBDPEBD@std@@YA?A_PAEBQEBD0@Z
	??$_Idl_distance@PEBHPEBH@std@@YA?A_PAEBQEBH0@Z
	??$_Idl_distance@PEBNPEBN@std@@YA?A_PAEBQEBN0@Z
	??$_Idl_distance@PEBU?$pair@HH@std@@PEBU12@@std@@YA?A_PAEBQEBU?$pair@HH@0@0@Z
	??$_Idl_distance@PEBU?$vec@H$02@linalg@@PEBU12@@std@@YA?A_PAEBQEBU?$vec@H$02@linalg@@0@Z
	??$_Idl_distance@PEBU?$vec@N$02@linalg@@PEBU12@@std@@YA?A_PAEBQEBU?$vec@N$02@linalg@@0@Z
	??$_Idl_distance@PEBU?$vec@N$03@linalg@@PEBU12@@std@@YA?A_PAEBQEBU?$vec@N$03@linalg@@0@Z
	??$_Idl_distance@PEBUBox@manifold@@PEBU12@@std@@YA?A_PAEBQEBUBox@manifold@@0@Z
	??$_Idl_distance@PEBUHalfedge@manifold@@PEBU12@@std@@YA?A_PAEBQEBUHalfedge@manifold@@0@Z
	??$_Idl_distance@PEBUTriRef@manifold@@PEBU12@@std@@YA?A_PAEBQEBUTriRef@manifold@@0@Z
	??$_Idl_distance@PEB_KPEB_K@std@@YA?A_PAEBQEB_K0@Z
	??$_Idl_distance@UStridedRangeIter@?$StridedRange@PEBN@manifold@@U123@@std@@YA?A_PAEBUStridedRangeIter@?$StridedRange@PEBN@manifold@@0@Z
	??$_Idl_distance@V?$_Vector_const_iterator@V?$_Vector_val@U?$_Simple_types@H@std@@@std@@@std@@PEBH@std@@YA?A_PAEBQEBH0@Z
	??$_Idl_distance@V?$_Vector_const_iterator@V?$_Vector_val@U?$_Simple_types@M@std@@@std@@@std@@PEBM@std@@YA?A_PAEBQEBM0@Z
	??$_Idl_distance@V?$_Vector_const_iterator@V?$_Vector_val@U?$_Simple_types@N@std@@@std@@@std@@PEBN@std@@YA?A_PAEBQEBN0@Z
	??$_Idl_distance@V?$_Vector_const_iterator@V?$_Vector_val@U?$_Simple_types@U?$Point@N@Clipper2Lib@@@std@@@std@@@std@@PEBU?$Point@N@Clipper2Lib@@@std@@YA?A_PAEBQEBU?$Point@N@Clipper2Lib@@0@Z
	??$_Idl_distance@V?$_Vector_const_iterator@V?$_Vector_val@U?$_Simple_types@U?$Point@_J@Clipper2Lib@@@std@@@std@@@std@@PEBU?$Point@_J@Clipper2Lib@@@std@@YA?A_PAEBQEBU?$Point@_J@Clipper2Lib@@0@Z
	??$_Idl_distance@V?$_Vector_const_iterator@V?$_Vector_val@U?$_Simple_types@U?$vec@H$02@linalg@@@std@@@std@@@std@@PEBU?$vec@H$02@linalg@@@std@@YA?A_PAEBQEBU?$vec@H$02@linalg@@0@Z
	??$_Idl_distance@V?$_Vector_const_iterator@V?$_Vector_val@U?$_Simple_types@U?$vec@N$02@linalg@@@std@@@std@@@std@@PEBU?$vec@N$02@linalg@@@std@@YA?A_PAEBQEBU?$vec@N$02@linalg@@0@Z
	??$_Idl_distance@V?$_Vector_const_iterator@V?$_Vector_val@U?$_Simple_types@V?$vector@U?$Point@N@Clipper2Lib@@V?$allocator@U?$Point@N@Clipper2Lib@@@std@@@std@@@std@@@std@@@std@@PEBV?$vector@U?$Point@N@Clipper2Lib@@V?$allocator@U?$Point@N@Clipper2Lib@@@std@@@2@@std@@YA?A_PAEBQEBV?$vector@U?$Point@N@Clipper2Lib@@V?$allocator@U?$Point@N@Clipper2Lib@@@std@@@0@0@Z
	??$_Idl_distance@V?$_Vector_const_iterator@V?$_Vector_val@U?$_Simple_types@V?$vector@U?$Point@_J@Clipper2Lib@@V?$allocator@U?$Point@_J@Clipper2Lib@@@std@@@std@@@std@@@std@@@std@@PEBV?$vector@U?$Point@_J@Clipper2Lib@@V?$allocator@U?$Point@_J@Clipper2Lib@@@std@@@2@@std@@YA?A_PAEBQEBV?$vector@U?$Point@_J@Clipper2Lib@@V?$allocator@U?$Point@_J@Clipper2Lib@@@std@@@0@0@Z
	??$_Idl_distance@V?$_Vector_const_iterator@V?$_Vector_val@U?$_Simple_types@_K@std@@@std@@@std@@PEB_K@std@@YA?A_PAEBQEB_K0@Z
	??$_Inplace_merge_buffer_left@PEAUHalfedge@manifold@@U?$less@UHalfedge@manifold@@@std@@@std@@YAXPEAUHalfedge@manifold@@00QEAU12@U?$less@UHalfedge@manifold@@@0@@Z
	??$_Inplace_merge_buffer_left@PEA_JU?$less@_J@std@@@std@@YAXPEA_J00QEA_JU?$less@_J@0@@Z
	??$_Inplace_merge_buffer_right@PEAUHalfedge@manifold@@U?$less@UHalfedge@manifold@@@std@@@std@@YAXPEAUHalfedge@manifold@@00QEAU12@U?$less@UHalfedge@manifold@@@0@@Z
	??$_Inplace_merge_buffer_right@PEA_JU?$less@_J@std@@@std@@YAXPEA_J00QEA_JU?$less@_J@0@@Z
	??$_Insert_range@PEBH@?$vector@HV?$allocator@H@std@@@std@@AEAAXV?$_Vector_const_iterator@V?$_Vector_val@U?$_Simple_types@H@std@@@std@@@1@PEBH1Uforward_iterator_tag@1@@Z
	??$_Insert_range@PEBV?$vector@U?$Point@N@Clipper2Lib@@V?$allocator@U?$Point@N@Clipper2Lib@@@std@@@std@@@?$vector@V?$vector@U?$Point@N@Clipper2Lib@@V?$allocator@U?$Point@N@Clipper2Lib@@@std@@@std@@V?$allocator@V?$vector@U?$Point@N@Clipper2Lib@@V?$allocator@U?$Point@N@Clipper2Lib@@@std@@@std@@@2@@std@@AEAAXV?$_Vector_const_iterator@V?$_Vector_val@U?$_Simple_types@V?$vector@U?$Point@N@Clipper2Lib@@V?$allocator@U?$Point@N@Clipper2Lib@@@std@@@std@@@std@@@std@@@1@PEBV?$vector@U?$Point@N@Clipper2Lib@@V?$allocator@U?$Point@N@Clipper2Lib@@@std@@@1@1Uforward_iterator_tag@1@@Z
	??$_Insertion_sort_isort_max_chunks@PEAUHalfedge@manifold@@U?$less@UHalfedge@manifold@@@std@@@std@@YAXPEAUHalfedge@manifold@@QEAU12@_JU?$less@UHalfedge@manifold@@@0@@Z
	??$_Insertion_sort_isort_max_chunks@PEA_JU?$less@_J@std@@@std@@YAXPEA_JQEA_J_JU?$less@_J@0@@Z
	??$_Insertion_sort_unchecked@PEAU?$vec@N$01@linalg@@P6A_NU12@0@Z@std@@YAPEAU?$vec@N$01@linalg@@QEAU12@0P6A_NU12@1@Z@Z
	??$_Insertion_sort_unchecked@PEAUHalfedge@manifold@@U?$less@UHalfedge@manifold@@@std@@@std@@YAPEAUHalfedge@manifold@@QEAU12@0U?$less@UHalfedge@manifold@@@0@@Z
	??$_Insertion_sort_unchecked@PEA_JU?$less@_J@std@@@std@@YAPEA_JQEA_J0U?$less@_J@0@@Z
	??$_Is_all_bits_zero@$$T@std@@YA_NAEB$$T@Z
	??$_Is_all_bits_zero@G@std@@YA_NAEBG@Z
	??$_Is_all_bits_zero@H@std@@YA_NAEBH@Z
	??$_Is_all_bits_zero@I@std@@YA_NAEBI@Z
	??$_Is_all_bits_zero@N@std@@YA_NAEBN@Z
	??$_Is_all_bits_zero@_K@std@@YA_NAEB_K@Z
	??$_Kfn@$$CBHH@?$_Tmap_traits@HHU?$less@H@std@@V?$allocator@U?$pair@$$CBHH@std@@@2@$00@std@@SAAEBHAEBU?$pair@$$CBHH@1@@Z
	??$_Kfn@$$CBHH@?$_Umap_traits@HHV?$_Uhash_compare@HU?$hash@H@std@@U?$equal_to@H@2@@std@@V?$allocator@U?$pair@$$CBHH@std@@@2@$0A@@std@@SAAEBHAEBU?$pair@$$CBHH@1@@Z
	??$_Kfn@$$CBHU?$pair@USmoothness@manifold@@U12@@std@@@?$_Tmap_traits@HU?$pair@USmoothness@manifold@@U12@@std@@U?$less@H@2@V?$allocator@U?$pair@$$CBHU?$pair@USmoothness@manifold@@U12@@std@@@std@@@2@$0A@@std@@SAAEBHAEBU?$pair@$$CBHU?$pair@USmoothness@manifold@@U12@@std@@@1@@Z
	??$_Kfn@$$CBHURelation@Impl@Manifold@manifold@@@?$_Tmap_traits@HURelation@Impl@Manifold@manifold@@U?$less@H@std@@V?$allocator@U?$pair@$$CBHURelation@Impl@Manifold@manifold@@@std@@@6@$0A@@std@@SAAEBHAEBU?$pair@$$CBHURelation@Impl@Manifold@manifold@@@1@@Z
	??$_Kfn@$$CBHV?$vector@U?$pair@USmoothness@manifold@@U12@@std@@V?$allocator@U?$pair@USmoothness@manifold@@U12@@std@@@2@@std@@@?$_Tmap_traits@HV?$vector@U?$pair@USmoothness@manifold@@U12@@std@@V?$allocator@U?$pair@USmoothness@manifold@@U12@@std@@@2@@std@@U?$less@H@2@V?$allocator@U?$pair@$$CBHV?$vector@U?$pair@USmoothness@manifold@@U12@@std@@V?$allocator@U?$pair@USmoothness@manifold@@U12@@std@@@2@@std@@@std@@@2@$0A@@std@@SAAEBHAEBU?$pair@$$CBHV?$vector@U?$pair@USmoothness@manifold@@U12@@std@@V?$allocator@U?$pair@USmoothness@manifold@@U12@@std@@@2@@std@@@1@@Z
	??$_Kfn@$$CB_K_K@?$_Umap_traits@_K_KV?$_Uhash_compare@_KU?$hash@_K@std@@U?$equal_to@_K@2@@std@@V?$allocator@U?$pair@$$CB_K_K@std@@@2@$0A@@std@@SAAEB_KAEBU?$pair@$$CB_K_K@1@@Z
	??$_Lower_bound_duplicate@H@?$_Tree@V?$_Tmap_traits@HHU?$less@H@std@@V?$allocator@U?$pair@$$CBHH@std@@@2@$00@std@@@std@@IEBA_NQEAU?$_Tree_node@U?$pair@$$CBHH@std@@PEAX@1@AEBH@Z
	??$_Lower_bound_duplicate@H@?$_Tree@V?$_Tmap_traits@HU?$pair@USmoothness@manifold@@U12@@std@@U?$less@H@2@V?$allocator@U?$pair@$$CBHU?$pair@USmoothness@manifold@@U12@@std@@@std@@@2@$0A@@std@@@std@@IEBA_NQEAU?$_Tree_node@U?$pair@$$CBHU?$pair@USmoothness@manifold@@U12@@std@@@std@@PEAX@1@AEBH@Z
	??$_Lower_bound_duplicate@H@?$_Tree@V?$_Tmap_traits@HURelation@Impl@Manifold@manifold@@U?$less@H@std@@V?$allocator@U?$pair@$$CBHURelation@Impl@Manifold@manifold@@@std@@@6@$0A@@std@@@std@@IEBA_NQEAU?$_Tree_node@U?$pair@$$CBHURelation@Impl@Manifold@manifold@@@std@@PEAX@1@AEBH@Z
	??$_Lower_bound_duplicate@H@?$_Tree@V?$_Tmap_traits@HV?$vector@U?$pair@USmoothness@manifold@@U12@@std@@V?$allocator@U?$pair@USmoothness@manifold@@U12@@std@@@2@@std@@U?$less@H@2@V?$allocator@U?$pair@$$CBHV?$vector@U?$pair@USmoothness@manifold@@U12@@std@@V?$allocator@U?$pair@USmoothness@manifold@@U12@@std@@@2@@std@@@std@@@2@$0A@@std@@@std@@IEBA_NQEAU?$_Tree_node@U?$pair@$$CBHV?$vector@U?$pair@USmoothness@manifold@@U12@@std@@V?$allocator@U?$pair@USmoothness@manifold@@U12@@std@@@2@@std@@@std@@PEAX@1@AEBH@Z
	??$_Lower_bound_duplicate@U?$pair@HH@std@@@?$_Tree@V?$_Tset_traits@U?$pair@HH@std@@U?$less@U?$pair@HH@std@@@2@V?$allocator@U?$pair@HH@std@@@2@$00@std@@@std@@IEBA_NQEAU?$_Tree_node@U?$pair@HH@std@@PEAX@1@AEBU?$pair@HH@1@@Z
	??$_Make_heap_unchecked@PEAU?$vec@N$01@linalg@@P6A_NU12@0@Z@std@@YAXPEAU?$vec@N$01@linalg@@0P6A_NU12@1@Z@Z
	??$_Med3_unchecked@PEAU?$vec@N$01@linalg@@P6A_NU12@0@Z@std@@YAXPEAU?$vec@N$01@linalg@@00P6A_NU12@1@Z@Z
	??$_Merge_move@PEAUHalfedge@manifold@@PEAU12@U?$less@UHalfedge@manifold@@@std@@@std@@YAPEAUHalfedge@manifold@@PEAU12@QEAU12@10U?$less@UHalfedge@manifold@@@0@@Z
	??$_Merge_move@PEA_JPEA_JU?$less@_J@std@@@std@@YAPEA_JPEA_JQEA_J10U?$less@_J@0@@Z
	??$_Move_backward_unchecked@PEAHPEAH@std@@YAPEAHPEAH00@Z
	??$_Move_backward_unchecked@PEAU?$vec@N$01@linalg@@PEAU12@@std@@YAPEAU?$vec@N$01@linalg@@PEAU12@00@Z
	??$_Move_backward_unchecked@PEAUHalfedge@manifold@@PEAU12@@std@@YAPEAUHalfedge@manifold@@PEAU12@00@Z
	??$_Move_backward_unchecked@PEAV?$vector@U?$Point@N@Clipper2Lib@@V?$allocator@U?$Point@N@Clipper2Lib@@@std@@@std@@PEAV12@@std@@YAPEAV?$vector@U?$Point@N@Clipper2Lib@@V?$allocator@U?$Point@N@Clipper2Lib@@@std@@@0@PEAV10@00@Z
	??$_Move_backward_unchecked@PEA_JPEA_J@std@@YAPEA_JPEA_J00@Z
	??$_Move_construct_from@$$CBUImpl@Manifold@manifold@@@?$_Ptr_base@$$CBUImpl@Manifold@manifold@@@std@@IEAAX$$QEAV01@@Z
	??$_Move_construct_from@$$CBUPathImpl@manifold@@@?$_Ptr_base@$$CBUPathImpl@manifold@@@std@@IEAAX$$QEAV01@@Z
	??$_Move_construct_from@$$CBVCsgOpNode@manifold@@@?$_Ptr_base@$$CBVCsgOpNode@manifold@@@std@@IEAAX$$QEAV01@@Z
	??$_Move_construct_from@UCsgStackFrame@manifold@@@?$_Ptr_base@UCsgStackFrame@manifold@@@std@@IEAAX$$QEAV01@@Z
	??$_Move_construct_from@UImpl@Manifold@manifold@@@?$_Ptr_base@$$CBUImpl@Manifold@manifold@@@std@@IEAAX$$QEAV?$_Ptr_base@UImpl@Manifold@manifold@@@1@@Z
	??$_Move_construct_from@UImpl@Manifold@manifold@@@?$_Ptr_base@UImpl@Manifold@manifold@@@std@@IEAAX$$QEAV01@@Z
	??$_Move_construct_from@V?$vector@V?$shared_ptr@VCsgNode@manifold@@@std@@V?$allocator@V?$shared_ptr@VCsgNode@manifold@@@std@@@2@@std@@@?$_Ptr_base@V?$vector@V?$shared_ptr@VCsgNode@manifold@@@std@@V?$allocator@V?$shared_ptr@VCsgNode@manifold@@@std@@@2@@std@@@std@@IEAAX$$QEAV01@@Z
	??$_Move_construct_from@VCsgLeafNode@manifold@@@?$_Ptr_base@VCsgLeafNode@manifold@@@std@@IEAAX$$QEAV01@@Z
	??$_Move_construct_from@VCsgLeafNode@manifold@@@?$_Ptr_base@VCsgNode@manifold@@@std@@IEAAX$$QEAV?$_Ptr_base@VCsgLeafNode@manifold@@@1@@Z
	??$_Move_construct_from@VCsgNode@manifold@@@?$_Ptr_base@VCsgNode@manifold@@@std@@IEAAX$$QEAV01@@Z
	??$_Move_construct_from@VCsgOpNode@manifold@@@?$_Ptr_base@VCsgNode@manifold@@@std@@IEAAX$$QEAV?$_Ptr_base@VCsgOpNode@manifold@@@1@@Z
	??$_Move_construct_from@VCsgOpNode@manifold@@@?$_Ptr_base@VCsgOpNode@manifold@@@std@@IEAAX$$QEAV01@@Z
	??$_Move_construct_from@Vrecursive_mutex@std@@@?$_Ptr_base@Vrecursive_mutex@std@@@std@@IEAAX$$QEAV01@@Z
	??$_Move_unchecked@PEAHPEAH@std@@YAPEAHPEAH00@Z
	??$_Move_unchecked@PEAIPEAI@std@@YAPEAIPEAI00@Z
	??$_Move_unchecked@PEAUHalfedge@manifold@@PEAU12@@std@@YAPEAUHalfedge@manifold@@PEAU12@00@Z
	??$_Move_unchecked@PEAV?$shared_ptr@VCsgLeafNode@manifold@@@std@@PEAV12@@std@@YAPEAV?$shared_ptr@VCsgLeafNode@manifold@@@0@PEAV10@00@Z
	??$_Move_unchecked@PEAV?$unique_ptr@V?$Vec@_K@manifold@@U?$default_delete@V?$Vec@_K@manifold@@@std@@@std@@PEAV12@@std@@YAPEAV?$unique_ptr@V?$Vec@_K@manifold@@U?$default_delete@V?$Vec@_K@manifold@@@std@@@0@PEAV10@00@Z
	??$_Move_unchecked@PEAV?$vector@U?$Point@N@Clipper2Lib@@V?$allocator@U?$Point@N@Clipper2Lib@@@std@@@std@@PEAV12@@std@@YAPEAV?$vector@U?$Point@N@Clipper2Lib@@V?$allocator@U?$Point@N@Clipper2Lib@@@std@@@0@PEAV10@00@Z
	??$_Move_unchecked@PEA_JPEA_J@std@@YAPEA_JPEA_J00@Z
	??$_Next_iter@PEAH@std@@YAPEAHPEAH@Z
	??$_Next_iter@PEAU?$vec@N$01@linalg@@@std@@YAPEAU?$vec@N$01@linalg@@PEAU12@@Z
	??$_Next_iter@PEAUHalfedge@manifold@@@std@@YAPEAUHalfedge@manifold@@PEAU12@@Z
	??$_Next_iter@PEA_J@std@@YAPEA_JPEA_J@Z
	??$_Next_linear_congruential_value@I$0LMIP@$0A@$0HPPPPPPP@@std@@YAII@Z
	??$_Partition_by_median_guess_unchecked@PEAU?$vec@N$01@linalg@@P6A_NU12@0@Z@std@@YA?AU?$pair@PEAU?$vec@N$01@linalg@@PEAU12@@0@PEAU?$vec@N$01@linalg@@0P6A_NU23@1@Z@Z
	??$_Pass_fn@P6A_NU?$vec@N$01@linalg@@0@Z$0A@@std@@YAP6A_NU?$vec@N$01@linalg@@0@ZP6A_N00@Z@Z
	??$_Pass_fn@U?$less@UHalfedge@manifold@@@std@@$0A@@std@@YA?AU?$less@UHalfedge@manifold@@@0@U10@@Z
	??$_Pass_fn@U?$less@X@std@@$0A@@std@@YA?AU?$less@X@0@U10@@Z
	??$_Pass_fn@U?$less@_J@std@@$0A@@std@@YA?AU?$less@_J@0@U10@@Z
	??$_Pass_fn@V<lambda_ef602b5c7d00e8bb045a9b69def7a96b>@@$0A@@std@@YA?AV<lambda_ef602b5c7d00e8bb045a9b69def7a96b>@@V1@@Z
	??$_Pocca@V?$allocator@U?$Point@N@Clipper2Lib@@@std@@@std@@YAXAEAV?$allocator@U?$Point@N@Clipper2Lib@@@0@AEBV10@@Z
	??$_Pocca@V?$allocator@U?$_Tree_node@U?$pair@$$CBHURelation@Impl@Manifold@manifold@@@std@@PEAX@std@@@std@@@std@@YAXAEAV?$allocator@U?$_Tree_node@U?$pair@$$CBHURelation@Impl@Manifold@manifold@@@std@@PEAX@std@@@0@AEBV10@@Z
	??$_Pocma@V?$allocator@U?$Point@N@Clipper2Lib@@@std@@@std@@YAXAEAV?$allocator@U?$Point@N@Clipper2Lib@@@0@0@Z
	??$_Pocma@V?$allocator@U?$_Tree_node@U?$pair@$$CBHURelation@Impl@Manifold@manifold@@@std@@PEAX@std@@@std@@@std@@YAXAEAV?$allocator@U?$_Tree_node@U?$pair@$$CBHURelation@Impl@Manifold@manifold@@@std@@PEAX@std@@@0@0@Z
	??$_Pocma@V?$allocator@U?$vec@H$02@linalg@@@std@@@std@@YAXAEAV?$allocator@U?$vec@H$02@linalg@@@0@0@Z
	??$_Pocs@V?$allocator@U?$_Tree_node@U?$pair@$$CBHURelation@Impl@Manifold@manifold@@@std@@PEAX@std@@@std@@@std@@YAXAEAV?$allocator@U?$_Tree_node@U?$pair@$$CBHURelation@Impl@Manifold@manifold@@@std@@PEAX@std@@@0@0@Z
	??$_Pop_heap_hole_by_index@PEAU?$vec@N$01@linalg@@U12@P6A_NU12@0@Z@std@@YAXPEAU?$vec@N$01@linalg@@_J1$$QEAU12@P6A_NU12@3@Z@Z
	??$_Pop_heap_hole_unchecked@PEAU?$vec@N$01@linalg@@U12@P6A_NU12@0@Z@std@@YAXPEAU?$vec@N$01@linalg@@00$$QEAU12@P6A_NU12@2@Z@Z
	??$_Pop_heap_unchecked@PEAU?$vec@N$01@linalg@@P6A_NU12@0@Z@std@@YAXPEAU?$vec@N$01@linalg@@0P6A_NU12@1@Z@Z
	??$_Prev_iter@PEAH@std@@YAPEAHPEAH@Z
	??$_Prev_iter@PEAU?$vec@N$01@linalg@@@std@@YAPEAU?$vec@N$01@linalg@@PEAU12@@Z
	??$_Prev_iter@PEAUHalfedge@manifold@@@std@@YAPEAUHalfedge@manifold@@PEAU12@@Z
	??$_Prev_iter@PEA_J@std@@YAPEA_JPEA_J@Z
	??$_Push_heap_by_index@PEAU?$vec@N$01@linalg@@U12@P6A_NU12@0@Z@std@@YAXPEAU?$vec@N$01@linalg@@_J1$$QEAU12@P6A_NU12@3@Z@Z
	??$_Range_construct_or_tidy@PEBV?$shared_ptr@VCsgNode@manifold@@@std@@@?$vector@V?$shared_ptr@VCsgNode@manifold@@@std@@V?$allocator@V?$shared_ptr@VCsgNode@manifold@@@std@@@2@@std@@AEAAXPEBV?$shared_ptr@VCsgNode@manifold@@@1@0Uforward_iterator_tag@1@@Z
	??$_Range_construct_or_tidy@PEBV?$vector@U?$Point@N@Clipper2Lib@@V?$allocator@U?$Point@N@Clipper2Lib@@@std@@@std@@@?$vector@V?$vector@U?$Point@N@Clipper2Lib@@V?$allocator@U?$Point@N@Clipper2Lib@@@std@@@std@@V?$allocator@V?$vector@U?$Point@N@Clipper2Lib@@V?$allocator@U?$Point@N@Clipper2Lib@@@std@@@std@@@2@@std@@AEAAXPEBV?$vector@U?$Point@N@Clipper2Lib@@V?$allocator@U?$Point@N@Clipper2Lib@@@std@@@1@0Uforward_iterator_tag@1@@Z
	??$_Range_construct_or_tidy@PEBV?$vector@U?$vec@N$01@linalg@@V?$allocator@U?$vec@N$01@linalg@@@std@@@std@@@?$vector@V?$vector@U?$vec@N$01@linalg@@V?$allocator@U?$vec@N$01@linalg@@@std@@@std@@V?$allocator@V?$vector@U?$vec@N$01@linalg@@V?$allocator@U?$vec@N$01@linalg@@@std@@@std@@@2@@std@@AEAAXPEBV?$vector@U?$vec@N$01@linalg@@V?$allocator@U?$vec@N$01@linalg@@@std@@@1@0Uforward_iterator_tag@1@@Z
	??$_Range_construct_or_tidy@PEBVCrossSection@manifold@@@?$vector@VCrossSection@manifold@@V?$allocator@VCrossSection@manifold@@@std@@@std@@AEAAXPEBVCrossSection@manifold@@0Uforward_iterator_tag@1@@Z
	??$_Range_construct_or_tidy@PEB_K@?$vector@_KV?$allocator@_K@std@@@std@@AEAAXPEB_K0Uforward_iterator_tag@1@@Z
	??$_Reallocate_for@V<lambda_66f57f934f28d61049862f64df852ff0>@@PEBD@?$basic_string@DU?$char_traits@D@std@@V?$allocator@D@2@@std@@AEAAAEAV01@_KV<lambda_66f57f934f28d61049862f64df852ff0>@@PEBD@Z
	??$_Refancy@PEAI$0A@@std@@YAPEAIPEAI@Z
	??$_Refancy@PEAU?$Point@N@Clipper2Lib@@$0A@@std@@YAPEAU?$Point@N@Clipper2Lib@@PEAU12@@Z
	??$_Refancy@PEAU?$vec@H$02@linalg@@$0A@@std@@YAPEAU?$vec@H$02@linalg@@PEAU12@@Z
	??$_Refancy@PEAU?$vec@N$02@linalg@@$0A@@std@@YAPEAU?$vec@N$02@linalg@@PEAU12@@Z
	??$_Refancy@PEAV?$Vec@_K@manifold@@$0A@@std@@YAPEAV?$Vec@_K@manifold@@PEAV12@@Z
	??$_Refancy@PEA_K$0A@@std@@YAPEA_KPEA_K@Z
	??$_Resize@H@?$vector@HV?$allocator@H@std@@@std@@AEAAX_KAEBH@Z
	??$_Resize@U_Value_init_tag@std@@@?$vector@HV?$allocator@H@std@@@std@@AEAAX_KAEBU_Value_init_tag@1@@Z
	??$_Resize@U_Value_init_tag@std@@@?$vector@IV?$allocator@I@std@@@std@@AEAAX_KAEBU_Value_init_tag@1@@Z
	??$_Resize@U_Value_init_tag@std@@@?$vector@MV?$allocator@M@std@@@std@@AEAAX_KAEBU_Value_init_tag@1@@Z
	??$_Resize@U_Value_init_tag@std@@@?$vector@NV?$allocator@N@std@@@std@@AEAAX_KAEBU_Value_init_tag@1@@Z
	??$_Resize@U_Value_init_tag@std@@@?$vector@V?$unique_ptr@VPolyPathD@Clipper2Lib@@U?$default_delete@VPolyPathD@Clipper2Lib@@@std@@@std@@V?$allocator@V?$unique_ptr@VPolyPathD@Clipper2Lib@@U?$default_delete@VPolyPathD@Clipper2Lib@@@std@@@std@@@2@@std@@AEAAX_KAEBU_Value_init_tag@1@@Z
	??$_Resize@U_Value_init_tag@std@@@?$vector@_KV?$allocator@_K@std@@@std@@AEAAX_KAEBU_Value_init_tag@1@@Z
	??$_Resize_reallocate@H@?$vector@HV?$allocator@H@std@@@std@@AEAAX_KAEBH@Z
	??$_Resize_reallocate@U_Value_init_tag@std@@@?$vector@HV?$allocator@H@std@@@std@@AEAAX_KAEBU_Value_init_tag@1@@Z
	??$_Resize_reallocate@U_Value_init_tag@std@@@?$vector@IV?$allocator@I@std@@@std@@AEAAX_KAEBU_Value_init_tag@1@@Z
	??$_Resize_reallocate@U_Value_init_tag@std@@@?$vector@MV?$allocator@M@std@@@std@@AEAAX_KAEBU_Value_init_tag@1@@Z
	??$_Resize_reallocate@U_Value_init_tag@std@@@?$vector@NV?$allocator@N@std@@@std@@AEAAX_KAEBU_Value_init_tag@1@@Z
	??$_Resize_reallocate@U_Value_init_tag@std@@@?$vector@V?$unique_ptr@VPolyPathD@Clipper2Lib@@U?$default_delete@VPolyPathD@Clipper2Lib@@@std@@@std@@V?$allocator@V?$unique_ptr@VPolyPathD@Clipper2Lib@@U?$default_delete@VPolyPathD@Clipper2Lib@@@std@@@std@@@2@@std@@AEAAX_KAEBU_Value_init_tag@1@@Z
	??$_Resize_reallocate@U_Value_init_tag@std@@@?$vector@_KV?$allocator@_K@std@@@std@@AEAAX_KAEBU_Value_init_tag@1@@Z
	??$_Return_temporary_buffer@H@std@@YAXQEAH@Z
	??$_Return_temporary_buffer@UHalfedge@manifold@@@std@@YAXQEAUHalfedge@manifold@@@Z
	??$_Return_temporary_buffer@_J@std@@YAXQEA_J@Z
	??$_Rotate_one_left@PEAH@std@@YAXPEAH00@Z
	??$_Rotate_one_left@PEAUHalfedge@manifold@@@std@@YAXPEAUHalfedge@manifold@@00@Z
	??$_Rotate_one_left@PEA_J@std@@YAXPEA_J00@Z
	??$_Rotate_one_right@PEAH@std@@YAXPEAH00@Z
	??$_Rotate_one_right@PEAUHalfedge@manifold@@@std@@YAXPEAUHalfedge@manifold@@00@Z
	??$_Rotate_one_right@PEA_J@std@@YAXPEA_J00@Z
	??$_Seek_wrapped@PEADPEAD@std@@YAXAEAPEAD$$QEAPEAD@Z
	??$_Seek_wrapped@PEAEPEAE@std@@YAXAEAPEAE$$QEAPEAE@Z
	??$_Seek_wrapped@PEAGAEAPEAG@std@@YAXAEAPEAG0@Z
	??$_Seek_wrapped@PEAGPEAG@std@@YAXAEAPEAG$$QEAPEAG@Z
	??$_Seek_wrapped@PEAHAEAPEAH@std@@YAXAEAPEAH0@Z
	??$_Seek_wrapped@PEAHPEAH@std@@YAXAEAPEAH$$QEAPEAH@Z
	??$_Seek_wrapped@PEAIPEAI@std@@YAXAEAPEAI$$QEAPEAI@Z
	??$_Seek_wrapped@PEAMPEAM@std@@YAXAEAPEAM$$QEAPEAM@Z
	??$_Seek_wrapped@PEANPEAN@std@@YAXAEAPEAN$$QEAPEAN@Z
	??$_Seek_wrapped@PEAPEAHPEAPEAH@std@@YAXAEAPEAPEAH$$QEAPEAPEAH@Z
	??$_Seek_wrapped@PEAU?$pair@HH@std@@PEAU12@@std@@YAXAEAPEAU?$pair@HH@0@$$QEAPEAU10@@Z
	??$_Seek_wrapped@PEAU?$vec@H$02@linalg@@AEAPEAU12@@std@@YAXAEAPEAU?$vec@H$02@linalg@@0@Z
	??$_Seek_wrapped@PEAU?$vec@H$02@linalg@@PEAU12@@std@@YAXAEAPEAU?$vec@H$02@linalg@@$$QEAPEAU12@@Z
	??$_Seek_wrapped@PEAU?$vec@H$03@linalg@@PEAU12@@std@@YAXAEAPEAU?$vec@H$03@linalg@@$$QEAPEAU12@@Z
	??$_Seek_wrapped@PEAU?$vec@N$02@linalg@@AEAPEAU12@@std@@YAXAEAPEAU?$vec@N$02@linalg@@0@Z
	??$_Seek_wrapped@PEAU?$vec@N$02@linalg@@PEAU12@@std@@YAXAEAPEAU?$vec@N$02@linalg@@$$QEAPEAU12@@Z
	??$_Seek_wrapped@PEAU?$vec@N$03@linalg@@PEAU12@@std@@YAXAEAPEAU?$vec@N$03@linalg@@$$QEAPEAU12@@Z
	??$_Seek_wrapped@PEAUBarycentric@manifold@@AEAPEAU12@@std@@YAXAEAPEAUBarycentric@manifold@@0@Z
	??$_Seek_wrapped@PEAUBarycentric@manifold@@PEAU12@@std@@YAXAEAPEAUBarycentric@manifold@@$$QEAPEAU12@@Z
	??$_Seek_wrapped@PEAUBox@manifold@@AEAPEAU12@@std@@YAXAEAPEAUBox@manifold@@0@Z
	??$_Seek_wrapped@PEAUBox@manifold@@PEAU12@@std@@YAXAEAPEAUBox@manifold@@$$QEAPEAU12@@Z
	??$_Seek_wrapped@PEAUFaceData@QuickHull@manifold@@PEAU123@@std@@YAXAEAPEAUFaceData@QuickHull@manifold@@$$QEAPEAU123@@Z
	??$_Seek_wrapped@PEAUHalfedge@manifold@@AEAPEAU12@@std@@YAXAEAPEAUHalfedge@manifold@@0@Z
	??$_Seek_wrapped@PEAUHalfedge@manifold@@PEAU12@@std@@YAXAEAPEAUHalfedge@manifold@@$$QEAPEAU12@@Z
	??$_Seek_wrapped@PEAUTmpEdge@manifold@@AEAPEAU12@@std@@YAXAEAPEAUTmpEdge@manifold@@0@Z
	??$_Seek_wrapped@PEAUTmpEdge@manifold@@PEAU12@@std@@YAXAEAPEAUTmpEdge@manifold@@$$QEAPEAU12@@Z
	??$_Seek_wrapped@PEAUTriRef@manifold@@AEAPEAU12@@std@@YAXAEAPEAUTriRef@manifold@@0@Z
	??$_Seek_wrapped@PEAUTriRef@manifold@@PEAU12@@std@@YAXAEAPEAUTriRef@manifold@@$$QEAPEAU12@@Z
	??$_Seek_wrapped@PEA_JAEAPEA_J@std@@YAXAEAPEA_J0@Z
	??$_Seek_wrapped@PEA_JAEBQEA_J@std@@YAXAEAPEA_JAEBQEA_J@Z
	??$_Seek_wrapped@PEA_JPEA_J@std@@YAXAEAPEA_J$$QEAPEA_J@Z
	??$_Seek_wrapped@PEA_KAEAPEA_K@std@@YAXAEAPEA_K0@Z
	??$_Seek_wrapped@PEA_KPEA_K@std@@YAXAEAPEA_K$$QEAPEA_K@Z
	??$_Seek_wrapped@PEA_NPEA_N@std@@YAXAEAPEA_N$$QEAPEA_N@Z
	??$_Seek_wrapped@PEB_KAEAPEB_K@std@@YAXAEAPEB_K0@Z
	??$_Seek_wrapped@UStridedRangeIter@?$StridedRange@PEAN@manifold@@U123@@std@@YAXAEAUStridedRangeIter@?$StridedRange@PEAN@manifold@@$$QEAU123@@Z
	??$_Seek_wrapped@UStridedRangeIter@?$StridedRange@PEAUBox@manifold@@@manifold@@U123@@std@@YAXAEAUStridedRangeIter@?$StridedRange@PEAUBox@manifold@@@manifold@@$$QEAU123@@Z
	??$_Seek_wrapped@V?$_Vector_iterator@V?$_Vector_val@U?$_Simple_types@V?$Vec@_K@manifold@@@std@@@std@@@std@@AEAPEAV?$Vec@_K@manifold@@@std@@YAXAEAV?$_Vector_iterator@V?$_Vector_val@U?$_Simple_types@V?$Vec@_K@manifold@@@std@@@std@@@0@AEAPEAV?$Vec@_K@manifold@@@Z
	??$_Seek_wrapped@V?$back_insert_iterator@V?$vector@U?$Point@N@Clipper2Lib@@V?$allocator@U?$Point@N@Clipper2Lib@@@std@@@std@@@std@@AEAV12@@std@@YAXAEAV?$back_insert_iterator@V?$vector@U?$Point@N@Clipper2Lib@@V?$allocator@U?$Point@N@Clipper2Lib@@@std@@@std@@@0@0@Z
	??$_Seek_wrapped@V?$back_insert_iterator@V?$vector@U?$Point@_J@Clipper2Lib@@V?$allocator@U?$Point@_J@Clipper2Lib@@@std@@@std@@@std@@AEAV12@@std@@YAXAEAV?$back_insert_iterator@V?$vector@U?$Point@_J@Clipper2Lib@@V?$allocator@U?$Point@_J@Clipper2Lib@@@std@@@std@@@0@0@Z
	??$_Seek_wrapped@V?$back_insert_iterator@V?$vector@V?$vector@U?$Point@N@Clipper2Lib@@V?$allocator@U?$Point@N@Clipper2Lib@@@std@@@std@@V?$allocator@V?$vector@U?$Point@N@Clipper2Lib@@V?$allocator@U?$Point@N@Clipper2Lib@@@std@@@std@@@2@@std@@@std@@AEAV12@@std@@YAXAEAV?$back_insert_iterator@V?$vector@V?$vector@U?$Point@N@Clipper2Lib@@V?$allocator@U?$Point@N@Clipper2Lib@@@std@@@std@@V?$allocator@V?$vector@U?$Point@N@Clipper2Lib@@V?$allocator@U?$Point@N@Clipper2Lib@@@std@@@std@@@2@@std@@@0@0@Z
	??$_Seek_wrapped@V?$back_insert_iterator@V?$vector@V?$vector@U?$Point@_J@Clipper2Lib@@V?$allocator@U?$Point@_J@Clipper2Lib@@@std@@@std@@V?$allocator@V?$vector@U?$Point@_J@Clipper2Lib@@V?$allocator@U?$Point@_J@Clipper2Lib@@@std@@@std@@@2@@std@@@std@@AEAV12@@std@@YAXAEAV?$back_insert_iterator@V?$vector@V?$vector@U?$Point@_J@Clipper2Lib@@V?$allocator@U?$Point@_J@Clipper2Lib@@@std@@@std@@V?$allocator@V?$vector@U?$Point@_J@Clipper2Lib@@V?$allocator@U?$Point@_J@Clipper2Lib@@@std@@@std@@@2@@std@@@0@0@Z
	??$_Set_ptr_rep_and_enable_shared@$$CBUImpl@Manifold@manifold@@@?$shared_ptr@$$CBUImpl@Manifold@manifold@@@std@@AEAAXQEBUImpl@Manifold@manifold@@QEAV_Ref_count_base@1@@Z
	??$_Set_ptr_rep_and_enable_shared@$$CBUPathImpl@manifold@@@?$shared_ptr@$$CBUPathImpl@manifold@@@std@@AEAAXQEBUPathImpl@manifold@@QEAV_Ref_count_base@1@@Z
	??$_Set_ptr_rep_and_enable_shared@UCsgStackFrame@manifold@@@?$shared_ptr@UCsgStackFrame@manifold@@@std@@AEAAXQEAUCsgStackFrame@manifold@@QEAV_Ref_count_base@1@@Z
	??$_Set_ptr_rep_and_enable_shared@UImpl@Manifold@manifold@@@?$shared_ptr@$$CBUImpl@Manifold@manifold@@@std@@AEAAXQEAUImpl@Manifold@manifold@@QEAV_Ref_count_base@1@@Z
	??$_Set_ptr_rep_and_enable_shared@UImpl@Manifold@manifold@@@?$shared_ptr@UImpl@Manifold@manifold@@@std@@AEAAXQEAUImpl@Manifold@manifold@@QEAV_Ref_count_base@1@@Z
	??$_Set_ptr_rep_and_enable_shared@V?$vector@V?$shared_ptr@VCsgNode@manifold@@@std@@V?$allocator@V?$shared_ptr@VCsgNode@manifold@@@std@@@2@@std@@@?$shared_ptr@V?$vector@V?$shared_ptr@VCsgNode@manifold@@@std@@V?$allocator@V?$shared_ptr@VCsgNode@manifold@@@std@@@2@@std@@@std@@AEAAXQEAV?$vector@V?$shared_ptr@VCsgNode@manifold@@@std@@V?$allocator@V?$shared_ptr@VCsgNode@manifold@@@std@@@2@@1@QEAV_Ref_count_base@1@@Z
	??$_Set_ptr_rep_and_enable_shared@VCsgLeafNode@manifold@@@?$shared_ptr@VCsgLeafNode@manifold@@@std@@AEAAXQEAVCsgLeafNode@manifold@@QEAV_Ref_count_base@1@@Z
	??$_Set_ptr_rep_and_enable_shared@VCsgOpNode@manifold@@@?$shared_ptr@VCsgOpNode@manifold@@@std@@AEAAXQEAVCsgOpNode@manifold@@QEAV_Ref_count_base@1@@Z
	??$_Set_ptr_rep_and_enable_shared@Vrecursive_mutex@std@@@?$shared_ptr@Vrecursive_mutex@std@@@std@@AEAAXQEAVrecursive_mutex@1@QEAV_Ref_count_base@1@@Z
	??$_Sort_heap_unchecked@PEAU?$vec@N$01@linalg@@P6A_NU12@0@Z@std@@YAXPEAU?$vec@N$01@linalg@@0P6A_NU12@1@Z@Z
	??$_Sort_unchecked@PEAU?$vec@N$01@linalg@@P6A_NU12@0@Z@std@@YAXPEAU?$vec@N$01@linalg@@0_JP6A_NU12@2@Z@Z
	??$_Stable_sort_unchecked@PEAUHalfedge@manifold@@U?$less@UHalfedge@manifold@@@std@@@std@@YAXQEAUHalfedge@manifold@@0_J01U?$less@UHalfedge@manifold@@@0@@Z
	??$_Stable_sort_unchecked@PEA_JU?$less@_J@std@@@std@@YAXQEA_J0_J01U?$less@_J@0@@Z
	??$_Swap_adl@PEAU?$_Tree_node@U?$pair@$$CBHURelation@Impl@Manifold@manifold@@@std@@PEAX@std@@@std@@YAXAEAPEAU?$_Tree_node@U?$pair@$$CBHURelation@Impl@Manifold@manifold@@@std@@PEAX@0@0@Z
	??$_Swap_adl@U?$less@H@std@@@std@@YAXAEAU?$less@H@0@0@Z
	??$_Temporary_buffer_size@_J@std@@YA_J_J@Z
	??$_To_address@PEAD@std@@YA?A_PAEBQEAD@Z
	??$_To_address@PEAE@std@@YA?A_PAEBQEAE@Z
	??$_To_address@PEAG@std@@YA?A_PAEBQEAG@Z
	??$_To_address@PEAH@std@@YA?A_PAEBQEAH@Z
	??$_To_address@PEAI@std@@YA?A_PAEBQEAI@Z
	??$_To_address@PEAM@std@@YA?A_PAEBQEAM@Z
	??$_To_address@PEAN@std@@YA?A_PAEBQEAN@Z
	??$_To_address@PEAPEAH@std@@YA?A_PAEBQEAPEAH@Z
	??$_To_address@PEAU?$Point@N@Clipper2Lib@@@std@@YA?A_PAEBQEAU?$Point@N@Clipper2Lib@@@Z
	??$_To_address@PEAU?$vec@H$02@linalg@@@std@@YA?A_PAEBQEAU?$vec@H$02@linalg@@@Z
	??$_To_address@PEAU?$vec@H$03@linalg@@@std@@YA?A_PAEBQEAU?$vec@H$03@linalg@@@Z
	??$_To_address@PEAU?$vec@N$01@linalg@@@std@@YA?A_PAEBQEAU?$vec@N$01@linalg@@@Z
	??$_To_address@PEAU?$vec@N$02@linalg@@@std@@YA?A_PAEBQEAU?$vec@N$02@linalg@@@Z
	??$_To_address@PEAU?$vec@N$03@linalg@@@std@@YA?A_PAEBQEAU?$vec@N$03@linalg@@@Z
	??$_To_address@PEAUBarycentric@manifold@@@std@@YA?A_PAEBQEAUBarycentric@manifold@@@Z
	??$_To_address@PEAUBox@manifold@@@std@@YA?A_PAEBQEAUBox@manifold@@@Z
	??$_To_address@PEAUFaceData@QuickHull@manifold@@@std@@YA?A_PAEBQEAUFaceData@QuickHull@manifold@@@Z
	??$_To_address@PEAUHalfedge@manifold@@@std@@YA?A_PAEBQEAUHalfedge@manifold@@@Z
	??$_To_address@PEAUSmoothness@manifold@@@std@@YA?A_PAEBQEAUSmoothness@manifold@@@Z
	??$_To_address@PEAUTmpEdge@manifold@@@std@@YA?A_PAEBQEAUTmpEdge@manifold@@@Z
	??$_To_address@PEAUTriRef@manifold@@@std@@YA?A_PAEBQEAUTriRef@manifold@@@Z
	??$_To_address@PEA_J@std@@YA?A_PAEBQEA_J@Z
	??$_To_address@PEA_K@std@@YA?A_PAEBQEA_K@Z
	??$_To_address@PEA_N@std@@YA?A_PAEBQEA_N@Z
	??$_To_address@PEBD@std@@YA?A_PAEBQEBD@Z
	??$_To_address@PEBH@std@@YA?A_PAEBQEBH@Z
	??$_To_address@PEBI@std@@YA?A_PAEBQEBI@Z
	??$_To_address@PEBM@std@@YA?A_PAEBQEBM@Z
	??$_To_address@PEBN@std@@YA?A_PAEBQEBN@Z
	??$_To_address@PEBU?$vec@H$02@linalg@@@std@@YA?A_PAEBQEBU?$vec@H$02@linalg@@@Z
	??$_To_address@PEBU?$vec@N$02@linalg@@@std@@YA?A_PAEBQEBU?$vec@N$02@linalg@@@Z
	??$_To_address@PEBU?$vec@N$03@linalg@@@std@@YA?A_PAEBQEBU?$vec@N$03@linalg@@@Z
	??$_To_address@PEBUBox@manifold@@@std@@YA?A_PAEBQEBUBox@manifold@@@Z
	??$_To_address@PEBUHalfedge@manifold@@@std@@YA?A_PAEBQEBUHalfedge@manifold@@@Z
	??$_To_address@PEBUTriRef@manifold@@@std@@YA?A_PAEBQEBUTriRef@manifold@@@Z
	??$_To_address@PEB_K@std@@YA?A_PAEBQEB_K@Z
	??$_Try_emplace@AEBH$$V@?$map@HU?$pair@USmoothness@manifold@@U12@@std@@U?$less@H@2@V?$allocator@U?$pair@$$CBHU?$pair@USmoothness@manifold@@U12@@std@@@std@@@2@@std@@AEAA?AU?$pair@PEAU?$_Tree_node@U?$pair@$$CBHU?$pair@USmoothness@manifold@@U12@@std@@@std@@PEAX@std@@_N@1@AEBH@Z
	??$_Try_emplace@AEBH$$V@?$map@HURelation@Impl@Manifold@manifold@@U?$less@H@std@@V?$allocator@U?$pair@$$CBHURelation@Impl@Manifold@manifold@@@std@@@6@@std@@AEAA?AU?$pair@PEAU?$_Tree_node@U?$pair@$$CBHURelation@Impl@Manifold@manifold@@@std@@PEAX@std@@_N@1@AEBH@Z
	??$_Try_emplace@AEBH$$V@?$map@HV?$vector@U?$pair@USmoothness@manifold@@U12@@std@@V?$allocator@U?$pair@USmoothness@manifold@@U12@@std@@@2@@std@@U?$less@H@2@V?$allocator@U?$pair@$$CBHV?$vector@U?$pair@USmoothness@manifold@@U12@@std@@V?$allocator@U?$pair@USmoothness@manifold@@U12@@std@@@2@@std@@@std@@@2@@std@@AEAA?AU?$pair@PEAU?$_Tree_node@U?$pair@$$CBHV?$vector@U?$pair@USmoothness@manifold@@U12@@std@@V?$allocator@U?$pair@USmoothness@manifold@@U12@@std@@@2@@std@@@std@@PEAX@std@@_N@1@AEBH@Z
	??$_Try_emplace@AEB_K$$V@?$_Hash@V?$_Umap_traits@_K_KV?$_Uhash_compare@_KU?$hash@_K@std@@U?$equal_to@_K@2@@std@@V?$allocator@U?$pair@$$CB_K_K@std@@@2@$0A@@std@@@std@@IEAA?AU?$pair@PEAU?$_List_node@U?$pair@$$CB_K_K@std@@PEAX@std@@_N@1@AEB_K@Z
	??$_Try_emplace@H$$V@?$_Hash@V?$_Umap_traits@HHV?$_Uhash_compare@HU?$hash@H@std@@U?$equal_to@H@2@@std@@V?$allocator@U?$pair@$$CBHH@std@@@2@$0A@@std@@@std@@IEAA?AU?$pair@PEAU?$_List_node@U?$pair@$$CBHH@std@@PEAX@std@@_N@1@$$QEAH@Z
	??$_Try_emplace@H$$V@?$map@HURelation@Impl@Manifold@manifold@@U?$less@H@std@@V?$allocator@U?$pair@$$CBHURelation@Impl@Manifold@manifold@@@std@@@6@@std@@AEAA?AU?$pair@PEAU?$_Tree_node@U?$pair@$$CBHURelation@Impl@Manifold@manifold@@@std@@PEAX@std@@_N@1@$$QEAH@Z
	??$_Try_emplace@_K$$V@?$_Hash@V?$_Umap_traits@_K_KV?$_Uhash_compare@_KU?$hash@_K@std@@U?$equal_to@_K@2@@std@@V?$allocator@U?$pair@$$CB_K_K@std@@@2@$0A@@std@@@std@@IEAA?AU?$pair@PEAU?$_List_node@U?$pair@$$CB_K_K@std@@PEAX@std@@_N@1@$$QEA_K@Z
	??$_Tuple_get@$0A@$$QEAH@std@@YA$$QEA_P$$QEAV?$tuple@$$QEAH@0@@Z
	??$_Tuple_get@$0A@$$QEA_K@std@@YA$$QEA_P$$QEAV?$tuple@$$QEA_K@0@@Z
	??$_Tuple_get@$0A@AEBH@std@@YA$$QEA_P$$QEAV?$tuple@AEBH@0@@Z
	??$_Tuple_get@$0A@AEBU?$pair@HH@std@@@std@@YA$$QEA_P$$QEAV?$tuple@AEBU?$pair@HH@std@@@0@@Z
	??$_Tuple_get@$0A@AEB_K@std@@YA$$QEA_P$$QEAV?$tuple@AEB_K@0@@Z
	??$_Ucopy@PEAI@?$vector@IV?$allocator@I@std@@@std@@AEAAPEAIPEAI00@Z
	??$_Ucopy@PEAU?$Point@N@Clipper2Lib@@@?$vector@U?$Point@N@Clipper2Lib@@V?$allocator@U?$Point@N@Clipper2Lib@@@std@@@std@@AEAAPEAU?$Point@N@Clipper2Lib@@PEAU23@00@Z
	??$_Ucopy@PEAU?$vec@H$02@linalg@@@?$vector@U?$vec@H$02@linalg@@V?$allocator@U?$vec@H$02@linalg@@@std@@@std@@AEAAPEAU?$vec@H$02@linalg@@PEAU23@00@Z
	??$_Ucopy@PEAU?$vec@N$01@linalg@@@?$vector@U?$vec@N$01@linalg@@V?$allocator@U?$vec@N$01@linalg@@@std@@@std@@AEAAPEAU?$vec@N$01@linalg@@PEAU23@00@Z
	??$_Ucopy@PEAUPolyVert@manifold@@@?$vector@UPolyVert@manifold@@V?$allocator@UPolyVert@manifold@@@std@@@std@@AEAAPEAUPolyVert@manifold@@PEAU23@00@Z
	??$_Ucopy@PEAUSmoothness@manifold@@@?$vector@USmoothness@manifold@@V?$allocator@USmoothness@manifold@@@std@@@std@@AEAAPEAUSmoothness@manifold@@PEAU23@00@Z
	??$_Ucopy@PEAV?$shared_ptr@VCsgNode@manifold@@@std@@@?$vector@V?$shared_ptr@VCsgNode@manifold@@@std@@V?$allocator@V?$shared_ptr@VCsgNode@manifold@@@std@@@2@@std@@AEAAPEAV?$shared_ptr@VCsgNode@manifold@@@1@PEAV21@00@Z
	??$_Ucopy@PEAV?$vector@U?$Point@N@Clipper2Lib@@V?$allocator@U?$Point@N@Clipper2Lib@@@std@@@std@@@?$vector@V?$vector@U?$Point@N@Clipper2Lib@@V?$allocator@U?$Point@N@Clipper2Lib@@@std@@@std@@V?$allocator@V?$vector@U?$Point@N@Clipper2Lib@@V?$allocator@U?$Point@N@Clipper2Lib@@@std@@@std@@@2@@std@@AEAAPEAV?$vector@U?$Point@N@Clipper2Lib@@V?$allocator@U?$Point@N@Clipper2Lib@@@std@@@1@PEAV21@00@Z
	??$_Ucopy@PEA_K@?$vector@_KV?$allocator@_K@std@@@std@@AEAAPEA_KPEA_K00@Z
	??$_Ucopy@PEBH@?$vector@HV?$allocator@H@std@@@std@@AEAAPEAHPEBH0PEAH@Z
	??$_Ucopy@PEBI@?$vector@IV?$allocator@I@std@@@std@@AEAAPEAIPEBI0PEAI@Z
	??$_Ucopy@PEBU?$vec@H$02@linalg@@@?$vector@U?$vec@H$02@linalg@@V?$allocator@U?$vec@H$02@linalg@@@std@@@std@@AEAAPEAU?$vec@H$02@linalg@@PEBU23@0PEAU23@@Z
	??$_Ucopy@PEBU?$vec@N$02@linalg@@@?$vector@U?$vec@N$02@linalg@@V?$allocator@U?$vec@N$02@linalg@@@std@@@std@@AEAAPEAU?$vec@N$02@linalg@@PEBU23@0PEAU23@@Z
	??$_Ucopy@PEBV?$shared_ptr@VCsgNode@manifold@@@std@@@?$vector@V?$shared_ptr@VCsgNode@manifold@@@std@@V?$allocator@V?$shared_ptr@VCsgNode@manifold@@@std@@@2@@std@@AEAAPEAV?$shared_ptr@VCsgNode@manifold@@@1@PEBV21@0PEAV21@@Z
	??$_Ucopy@PEBV?$vector@U?$Point@N@Clipper2Lib@@V?$allocator@U?$Point@N@Clipper2Lib@@@std@@@std@@@?$vector@V?$vector@U?$Point@N@Clipper2Lib@@V?$allocator@U?$Point@N@Clipper2Lib@@@std@@@std@@V?$allocator@V?$vector@U?$Point@N@Clipper2Lib@@V?$allocator@U?$Point@N@Clipper2Lib@@@std@@@std@@@2@@std@@AEAAPEAV?$vector@U?$Point@N@Clipper2Lib@@V?$allocator@U?$Point@N@Clipper2Lib@@@std@@@1@PEBV21@0PEAV21@@Z
	??$_Ucopy@PEBV?$vector@U?$vec@N$01@linalg@@V?$allocator@U?$vec@N$01@linalg@@@std@@@std@@@?$vector@V?$vector@U?$vec@N$01@linalg@@V?$allocator@U?$vec@N$01@linalg@@@std@@@std@@V?$allocator@V?$vector@U?$vec@N$01@linalg@@V?$allocator@U?$vec@N$01@linalg@@@std@@@std@@@2@@std@@AEAAPEAV?$vector@U?$vec@N$01@linalg@@V?$allocator@U?$vec@N$01@linalg@@@std@@@1@PEBV21@0PEAV21@@Z
	??$_Ucopy@PEBVCrossSection@manifold@@@?$vector@VCrossSection@manifold@@V?$allocator@VCrossSection@manifold@@@std@@@std@@AEAAPEAVCrossSection@manifold@@PEBV23@0PEAV23@@Z
	??$_Ucopy@PEB_K@?$vector@_KV?$allocator@_K@std@@@std@@AEAAPEA_KPEB_K0PEA_K@Z
	??$_Unfancy@D@std@@YAPEADPEAD@Z
	??$_Unfancy@H@std@@YAPEAHPEAH@Z
	??$_Unfancy@I@std@@YAPEAIPEAI@Z
	??$_Unfancy@M@std@@YAPEAMPEAM@Z
	??$_Unfancy@N@std@@YAPEANPEAN@Z
	??$_Unfancy@U?$Point@N@Clipper2Lib@@@std@@YAPEAU?$Point@N@Clipper2Lib@@PEAU12@@Z
	??$_Unfancy@U?$Point@_J@Clipper2Lib@@@std@@YAPEAU?$Point@_J@Clipper2Lib@@PEAU12@@Z
	??$_Unfancy@U?$mat@N$02$02@linalg@@@std@@YAPEAU?$mat@N$02$02@linalg@@PEAU12@@Z
	??$_Unfancy@U?$pair@U?$vec@H$02@linalg@@H@std@@@std@@YAPEAU?$pair@U?$vec@H$02@linalg@@H@0@PEAU10@@Z
	??$_Unfancy@U?$pair@USmoothness@manifold@@U12@@std@@@std@@YAPEAU?$pair@USmoothness@manifold@@U12@@0@PEAU10@@Z
	??$_Unfancy@U?$vec@H$01@linalg@@@std@@YAPEAU?$vec@H$01@linalg@@PEAU12@@Z
	??$_Unfancy@U?$vec@H$02@linalg@@@std@@YAPEAU?$vec@H$02@linalg@@PEAU12@@Z
	??$_Unfancy@U?$vec@N$01@linalg@@@std@@YAPEAU?$vec@N$01@linalg@@PEAU12@@Z
	??$_Unfancy@U?$vec@N$02@linalg@@@std@@YAPEAU?$vec@N$02@linalg@@PEAU12@@Z
	??$_Unfancy@UFace@MeshBuilder@manifold@@@std@@YAPEAUFace@MeshBuilder@manifold@@PEAU123@@Z
	??$_Unfancy@UHalfedge@manifold@@@std@@YAPEAUHalfedge@manifold@@PEAU12@@Z
	??$_Unfancy@UPolyVert@manifold@@@std@@YAPEAUPolyVert@manifold@@PEAU12@@Z
	??$_Unfancy@USmoothness@manifold@@@std@@YAPEAUSmoothness@manifold@@PEAU12@@Z
	??$_Unfancy@U_Container_proxy@std@@@std@@YAPEAU_Container_proxy@0@PEAU10@@Z
	??$_Unfancy@V?$Vec@_K@manifold@@@std@@YAPEAV?$Vec@_K@manifold@@PEAV12@@Z
	??$_Unfancy@V?$shared_ptr@UCsgStackFrame@manifold@@@std@@@std@@YAPEAV?$shared_ptr@UCsgStackFrame@manifold@@@0@PEAV10@@Z
	??$_Unfancy@V?$shared_ptr@VCsgLeafNode@manifold@@@std@@@std@@YAPEAV?$shared_ptr@VCsgLeafNode@manifold@@@0@PEAV10@@Z
	??$_Unfancy@V?$shared_ptr@VCsgNode@manifold@@@std@@@std@@YAPEAV?$shared_ptr@VCsgNode@manifold@@@0@PEAV10@@Z
	??$_Unfancy@V?$shared_ptr@VCsgOpNode@manifold@@@std@@@std@@YAPEAV?$shared_ptr@VCsgOpNode@manifold@@@0@PEAV10@@Z
	??$_Unfancy@V?$unique_ptr@ULocalMinima@Clipper2Lib@@U?$default_delete@ULocalMinima@Clipper2Lib@@@std@@@std@@@std@@YAPEAV?$unique_ptr@ULocalMinima@Clipper2Lib@@U?$default_delete@ULocalMinima@Clipper2Lib@@@std@@@0@PEAV10@@Z
	??$_Unfancy@V?$unique_ptr@V?$Vec@_K@manifold@@U?$default_delete@V?$Vec@_K@manifold@@@std@@@std@@@std@@YAPEAV?$unique_ptr@V?$Vec@_K@manifold@@U?$default_delete@V?$Vec@_K@manifold@@@std@@@0@PEAV10@@Z
	??$_Unfancy@V?$unique_ptr@VPolyPathD@Clipper2Lib@@U?$default_delete@VPolyPathD@Clipper2Lib@@@std@@@std@@@std@@YAPEAV?$unique_ptr@VPolyPathD@Clipper2Lib@@U?$default_delete@VPolyPathD@Clipper2Lib@@@std@@@0@PEAV10@@Z
	??$_Unfancy@V?$vector@U?$Point@N@Clipper2Lib@@V?$allocator@U?$Point@N@Clipper2Lib@@@std@@@std@@@std@@YAPEAV?$vector@U?$Point@N@Clipper2Lib@@V?$allocator@U?$Point@N@Clipper2Lib@@@std@@@0@PEAV10@@Z
	??$_Unfancy@V?$vector@U?$Point@_J@Clipper2Lib@@V?$allocator@U?$Point@_J@Clipper2Lib@@@std@@@std@@@std@@YAPEAV?$vector@U?$Point@_J@Clipper2Lib@@V?$allocator@U?$Point@_J@Clipper2Lib@@@std@@@0@PEAV10@@Z
	??$_Unfancy@V?$vector@U?$pair@U?$vec@H$02@linalg@@H@std@@V?$allocator@U?$pair@U?$vec@H$02@linalg@@H@std@@@2@@std@@@std@@YAPEAV?$vector@U?$pair@U?$vec@H$02@linalg@@H@std@@V?$allocator@U?$pair@U?$vec@H$02@linalg@@H@std@@@2@@0@PEAV10@@Z
	??$_Unfancy@V?$vector@U?$vec@H$01@linalg@@V?$allocator@U?$vec@H$01@linalg@@@std@@@std@@@std@@YAPEAV?$vector@U?$vec@H$01@linalg@@V?$allocator@U?$vec@H$01@linalg@@@std@@@0@PEAV10@@Z
	??$_Unfancy@V?$vector@U?$vec@N$01@linalg@@V?$allocator@U?$vec@N$01@linalg@@@std@@@std@@@std@@YAPEAV?$vector@U?$vec@N$01@linalg@@V?$allocator@U?$vec@N$01@linalg@@@std@@@0@PEAV10@@Z
	??$_Unfancy@V?$vector@UPolyVert@manifold@@V?$allocator@UPolyVert@manifold@@@std@@@std@@@std@@YAPEAV?$vector@UPolyVert@manifold@@V?$allocator@UPolyVert@manifold@@@std@@@0@PEAV10@@Z
	??$_Unfancy@V?$vector@V?$vector@U?$Point@N@Clipper2Lib@@V?$allocator@U?$Point@N@Clipper2Lib@@@std@@@std@@V?$allocator@V?$vector@U?$Point@N@Clipper2Lib@@V?$allocator@U?$Point@N@Clipper2Lib@@@std@@@std@@@2@@std@@@std@@YAPEAV?$vector@V?$vector@U?$Point@N@Clipper2Lib@@V?$allocator@U?$Point@N@Clipper2Lib@@@std@@@std@@V?$allocator@V?$vector@U?$Point@N@Clipper2Lib@@V?$allocator@U?$Point@N@Clipper2Lib@@@std@@@std@@@2@@0@PEAV10@@Z
	??$_Unfancy@VCrossSection@manifold@@@std@@YAPEAVCrossSection@manifold@@PEAV12@@Z
	??$_Unfancy@VGroup@ClipperOffset@Clipper2Lib@@@std@@YAPEAVGroup@ClipperOffset@Clipper2Lib@@PEAV123@@Z
	??$_Unfancy@VManifold@manifold@@@std@@YAPEAVManifold@manifold@@PEAV12@@Z
	??$_Unfancy@VSparseIndices@manifold@@@std@@YAPEAVSparseIndices@manifold@@PEAV12@@Z
	??$_Unfancy@_K@std@@YAPEA_KPEA_K@Z
	??$_Unfancy_maybe_null@I@std@@YAPEAIPEAI@Z
	??$_Unfancy_maybe_null@M@std@@YAPEAMPEAM@Z
	??$_Unfancy_maybe_null@N@std@@YAPEANPEAN@Z
	??$_Unfancy_maybe_null@U?$vec@N$01@linalg@@@std@@YAPEAU?$vec@N$01@linalg@@PEAU12@@Z
	??$_Uninitialized_chunked_merge_unchecked2@PEAUHalfedge@manifold@@U12@U?$less@UHalfedge@manifold@@@std@@@std@@YAXPEAUHalfedge@manifold@@QEAU12@0_JU?$less@UHalfedge@manifold@@@0@@Z
	??$_Uninitialized_chunked_merge_unchecked2@PEA_J_JU?$less@_J@std@@@std@@YAXPEA_JQEA_J0_JU?$less@_J@0@@Z
	??$_Uninitialized_copy@PEAIV?$allocator@I@std@@@std@@YAPEAIQEAI0PEAIAEAV?$allocator@I@0@@Z
	??$_Uninitialized_copy@PEAU?$Point@N@Clipper2Lib@@V?$allocator@U?$Point@N@Clipper2Lib@@@std@@@std@@YAPEAU?$Point@N@Clipper2Lib@@QEAU12@0PEAU12@AEAV?$allocator@U?$Point@N@Clipper2Lib@@@0@@Z
	??$_Uninitialized_copy@PEAU?$vec@H$02@linalg@@V?$allocator@U?$vec@H$02@linalg@@@std@@@std@@YAPEAU?$vec@H$02@linalg@@QEAU12@0PEAU12@AEAV?$allocator@U?$vec@H$02@linalg@@@0@@Z
	??$_Uninitialized_copy@PEAU?$vec@N$01@linalg@@V?$allocator@U?$vec@N$01@linalg@@@std@@@std@@YAPEAU?$vec@N$01@linalg@@QEAU12@0PEAU12@AEAV?$allocator@U?$vec@N$01@linalg@@@0@@Z
	??$_Uninitialized_copy@PEAUPolyVert@manifold@@V?$allocator@UPolyVert@manifold@@@std@@@std@@YAPEAUPolyVert@manifold@@QEAU12@0PEAU12@AEAV?$allocator@UPolyVert@manifold@@@0@@Z
	??$_Uninitialized_copy@PEAUSmoothness@manifold@@V?$allocator@USmoothness@manifold@@@std@@@std@@YAPEAUSmoothness@manifold@@QEAU12@0PEAU12@AEAV?$allocator@USmoothness@manifold@@@0@@Z
	??$_Uninitialized_copy@PEAV?$Vec@_K@manifold@@V?$allocator@V?$Vec@_K@manifold@@@std@@@std@@YAPEAV?$Vec@_K@manifold@@QEAV12@0PEAV12@AEAV?$allocator@V?$Vec@_K@manifold@@@0@@Z
	??$_Uninitialized_copy@PEAV?$shared_ptr@VCsgNode@manifold@@@std@@V?$allocator@V?$shared_ptr@VCsgNode@manifold@@@std@@@2@@std@@YAPEAV?$shared_ptr@VCsgNode@manifold@@@0@QEAV10@0PEAV10@AEAV?$allocator@V?$shared_ptr@VCsgNode@manifold@@@std@@@0@@Z
	??$_Uninitialized_copy@PEAV?$vector@U?$Point@N@Clipper2Lib@@V?$allocator@U?$Point@N@Clipper2Lib@@@std@@@std@@V?$allocator@V?$vector@U?$Point@N@Clipper2Lib@@V?$allocator@U?$Point@N@Clipper2Lib@@@std@@@std@@@2@@std@@YAPEAV?$vector@U?$Point@N@Clipper2Lib@@V?$allocator@U?$Point@N@Clipper2Lib@@@std@@@0@QEAV10@0PEAV10@AEAV?$allocator@V?$vector@U?$Point@N@Clipper2Lib@@V?$allocator@U?$Point@N@Clipper2Lib@@@std@@@std@@@0@@Z
	??$_Uninitialized_copy@PEAVSparseIndices@manifold@@V?$allocator@VSparseIndices@manifold@@@std@@@std@@YAPEAVSparseIndices@manifold@@QEAV12@0PEAV12@AEAV?$allocator@VSparseIndices@manifold@@@0@@Z
	??$_Uninitialized_copy@PEA_KV?$allocator@_K@std@@@std@@YAPEA_KQEA_K0PEA_KAEAV?$allocator@_K@0@@Z
	??$_Uninitialized_copy@PEBHV?$allocator@H@std@@@std@@YAPEAHQEBH0PEAHAEAV?$allocator@H@0@@Z
	??$_Uninitialized_copy@PEBIV?$allocator@I@std@@@std@@YAPEAIQEBI0PEAIAEAV?$allocator@I@0@@Z
	??$_Uninitialized_copy@PEBU?$vec@H$02@linalg@@V?$allocator@U?$vec@H$02@linalg@@@std@@@std@@YAPEAU?$vec@H$02@linalg@@QEBU12@0PEAU12@AEAV?$allocator@U?$vec@H$02@linalg@@@0@@Z
	??$_Uninitialized_copy@PEBU?$vec@N$02@linalg@@V?$allocator@U?$vec@N$02@linalg@@@std@@@std@@YAPEAU?$vec@N$02@linalg@@QEBU12@0PEAU12@AEAV?$allocator@U?$vec@N$02@linalg@@@0@@Z
	??$_Uninitialized_copy@PEBV?$shared_ptr@VCsgNode@manifold@@@std@@V?$allocator@V?$shared_ptr@VCsgNode@manifold@@@std@@@2@@std@@YAPEAV?$shared_ptr@VCsgNode@manifold@@@0@QEBV10@0PEAV10@AEAV?$allocator@V?$shared_ptr@VCsgNode@manifold@@@std@@@0@@Z
	??$_Uninitialized_copy@PEBV?$vector@U?$Point@N@Clipper2Lib@@V?$allocator@U?$Point@N@Clipper2Lib@@@std@@@std@@V?$allocator@V?$vector@U?$Point@N@Clipper2Lib@@V?$allocator@U?$Point@N@Clipper2Lib@@@std@@@std@@@2@@std@@YAPEAV?$vector@U?$Point@N@Clipper2Lib@@V?$allocator@U?$Point@N@Clipper2Lib@@@std@@@0@QEBV10@0PEAV10@AEAV?$allocator@V?$vector@U?$Point@N@Clipper2Lib@@V?$allocator@U?$Point@N@Clipper2Lib@@@std@@@std@@@0@@Z
	??$_Uninitialized_copy@PEBV?$vector@U?$vec@N$01@linalg@@V?$allocator@U?$vec@N$01@linalg@@@std@@@std@@V?$allocator@V?$vector@U?$vec@N$01@linalg@@V?$allocator@U?$vec@N$01@linalg@@@std@@@std@@@2@@std@@YAPEAV?$vector@U?$vec@N$01@linalg@@V?$allocator@U?$vec@N$01@linalg@@@std@@@0@QEBV10@0PEAV10@AEAV?$allocator@V?$vector@U?$vec@N$01@linalg@@V?$allocator@U?$vec@N$01@linalg@@@std@@@std@@@0@@Z
	??$_Uninitialized_copy@PEBVCrossSection@manifold@@V?$allocator@VCrossSection@manifold@@@std@@@std@@YAPEAVCrossSection@manifold@@QEBV12@0PEAV12@AEAV?$allocator@VCrossSection@manifold@@@0@@Z
	??$_Uninitialized_copy@PEB_KV?$allocator@_K@std@@@std@@YAPEA_KQEB_K0PEA_KAEAV?$allocator@_K@0@@Z
	??$_Uninitialized_copy_unchecked@PEAPEAHPEAPEAH@std@@YAPEAPEAHPEAPEAHQEAPEAH0@Z
	??$_Uninitialized_fill_n@V?$allocator@H@std@@@std@@YAPEAHPEAH_KAEBHAEAV?$allocator@H@0@@Z
	??$_Uninitialized_fill_n@V?$allocator@I@std@@@std@@YAPEAIPEAI_KAEBIAEAV?$allocator@I@0@@Z
	??$_Uninitialized_merge_move@PEAUHalfedge@manifold@@U12@U?$less@UHalfedge@manifold@@@std@@@std@@YAPEAUHalfedge@manifold@@PEAU12@QEAU12@11U?$less@UHalfedge@manifold@@@0@@Z
	??$_Uninitialized_merge_move@PEA_J_JU?$less@_J@std@@@std@@YAPEA_JPEA_JQEA_J11U?$less@_J@0@@Z
	??$_Uninitialized_move@PEAHV?$allocator@H@std@@@std@@YAPEAHQEAH0PEAHAEAV?$allocator@H@0@@Z
	??$_Uninitialized_move@PEAIV?$allocator@I@std@@@std@@YAPEAIQEAI0PEAIAEAV?$allocator@I@0@@Z
	??$_Uninitialized_move@PEAMV?$allocator@M@std@@@std@@YAPEAMQEAM0PEAMAEAV?$allocator@M@0@@Z
	??$_Uninitialized_move@PEANV?$allocator@N@std@@@std@@YAPEANQEAN0PEANAEAV?$allocator@N@0@@Z
	??$_Uninitialized_move@PEAU?$Point@N@Clipper2Lib@@V?$allocator@U?$Point@N@Clipper2Lib@@@std@@@std@@YAPEAU?$Point@N@Clipper2Lib@@QEAU12@0PEAU12@AEAV?$allocator@U?$Point@N@Clipper2Lib@@@0@@Z
	??$_Uninitialized_move@PEAU?$Point@_J@Clipper2Lib@@V?$allocator@U?$Point@_J@Clipper2Lib@@@std@@@std@@YAPEAU?$Point@_J@Clipper2Lib@@QEAU12@0PEAU12@AEAV?$allocator@U?$Point@_J@Clipper2Lib@@@0@@Z
	??$_Uninitialized_move@PEAU?$mat@N$02$02@linalg@@V?$allocator@U?$mat@N$02$02@linalg@@@std@@@std@@YAPEAU?$mat@N$02$02@linalg@@QEAU12@0PEAU12@AEAV?$allocator@U?$mat@N$02$02@linalg@@@0@@Z
	??$_Uninitialized_move@PEAU?$pair@U?$vec@H$02@linalg@@H@std@@V?$allocator@U?$pair@U?$vec@H$02@linalg@@H@std@@@2@@std@@YAPEAU?$pair@U?$vec@H$02@linalg@@H@0@QEAU10@0PEAU10@AEAV?$allocator@U?$pair@U?$vec@H$02@linalg@@H@std@@@0@@Z
	??$_Uninitialized_move@PEAU?$pair@USmoothness@manifold@@U12@@std@@V?$allocator@U?$pair@USmoothness@manifold@@U12@@std@@@2@@std@@YAPEAU?$pair@USmoothness@manifold@@U12@@0@QEAU10@0PEAU10@AEAV?$allocator@U?$pair@USmoothness@manifold@@U12@@std@@@0@@Z
	??$_Uninitialized_move@PEAU?$vec@H$01@linalg@@V?$allocator@U?$vec@H$01@linalg@@@std@@@std@@YAPEAU?$vec@H$01@linalg@@QEAU12@0PEAU12@AEAV?$allocator@U?$vec@H$01@linalg@@@0@@Z
	??$_Uninitialized_move@PEAU?$vec@H$02@linalg@@V?$allocator@U?$vec@H$02@linalg@@@std@@@std@@YAPEAU?$vec@H$02@linalg@@QEAU12@0PEAU12@AEAV?$allocator@U?$vec@H$02@linalg@@@0@@Z
	??$_Uninitialized_move@PEAU?$vec@N$01@linalg@@V?$allocator@U?$vec@N$01@linalg@@@std@@@std@@YAPEAU?$vec@N$01@linalg@@QEAU12@0PEAU12@AEAV?$allocator@U?$vec@N$01@linalg@@@0@@Z
	??$_Uninitialized_move@PEAU?$vec@N$02@linalg@@V?$allocator@U?$vec@N$02@linalg@@@std@@@std@@YAPEAU?$vec@N$02@linalg@@QEAU12@0PEAU12@AEAV?$allocator@U?$vec@N$02@linalg@@@0@@Z
	??$_Uninitialized_move@PEAUFace@MeshBuilder@manifold@@V?$allocator@UFace@MeshBuilder@manifold@@@std@@@std@@YAPEAUFace@MeshBuilder@manifold@@QEAU123@0PEAU123@AEAV?$allocator@UFace@MeshBuilder@manifold@@@0@@Z
	??$_Uninitialized_move@PEAUHalfedge@manifold@@V?$allocator@UHalfedge@manifold@@@std@@@std@@YAPEAUHalfedge@manifold@@QEAU12@0PEAU12@AEAV?$allocator@UHalfedge@manifold@@@0@@Z
	??$_Uninitialized_move@PEAUPolyVert@manifold@@V?$allocator@UPolyVert@manifold@@@std@@@std@@YAPEAUPolyVert@manifold@@QEAU12@0PEAU12@AEAV?$allocator@UPolyVert@manifold@@@0@@Z
	??$_Uninitialized_move@PEAUSmoothness@manifold@@V?$allocator@USmoothness@manifold@@@std@@@std@@YAPEAUSmoothness@manifold@@QEAU12@0PEAU12@AEAV?$allocator@USmoothness@manifold@@@0@@Z
	??$_Uninitialized_move@PEAV?$Vec@_K@manifold@@V?$allocator@V?$Vec@_K@manifold@@@std@@@std@@YAPEAV?$Vec@_K@manifold@@QEAV12@0PEAV12@AEAV?$allocator@V?$Vec@_K@manifold@@@0@@Z
	??$_Uninitialized_move@PEAV?$shared_ptr@UCsgStackFrame@manifold@@@std@@V?$allocator@V?$shared_ptr@UCsgStackFrame@manifold@@@std@@@2@@std@@YAPEAV?$shared_ptr@UCsgStackFrame@manifold@@@0@QEAV10@0PEAV10@AEAV?$allocator@V?$shared_ptr@UCsgStackFrame@manifold@@@std@@@0@@Z
	??$_Uninitialized_move@PEAV?$shared_ptr@VCsgLeafNode@manifold@@@std@@V?$allocator@V?$shared_ptr@VCsgLeafNode@manifold@@@std@@@2@@std@@YAPEAV?$shared_ptr@VCsgLeafNode@manifold@@@0@QEAV10@0PEAV10@AEAV?$allocator@V?$shared_ptr@VCsgLeafNode@manifold@@@std@@@0@@Z
	??$_Uninitialized_move@PEAV?$shared_ptr@VCsgLeafNode@manifold@@@std@@V?$cache_aligned_allocator@V?$shared_ptr@VCsgLeafNode@manifold@@@std@@@d1@detail@tbb@@@std@@YAPEAV?$shared_ptr@VCsgLeafNode@manifold@@@0@QEAV10@0PEAV10@AEAV?$cache_aligned_allocator@V?$shared_ptr@VCsgLeafNode@manifold@@@std@@@d1@detail@tbb@@@Z
	??$_Uninitialized_move@PEAV?$shared_ptr@VCsgNode@manifold@@@std@@V?$allocator@V?$shared_ptr@VCsgNode@manifold@@@std@@@2@@std@@YAPEAV?$shared_ptr@VCsgNode@manifold@@@0@QEAV10@0PEAV10@AEAV?$allocator@V?$shared_ptr@VCsgNode@manifold@@@std@@@0@@Z
	??$_Uninitialized_move@PEAV?$shared_ptr@VCsgOpNode@manifold@@@std@@V?$allocator@V?$shared_ptr@VCsgOpNode@manifold@@@std@@@2@@std@@YAPEAV?$shared_ptr@VCsgOpNode@manifold@@@0@QEAV10@0PEAV10@AEAV?$allocator@V?$shared_ptr@VCsgOpNode@manifold@@@std@@@0@@Z
	??$_Uninitialized_move@PEAV?$unique_ptr@V?$Vec@_K@manifold@@U?$default_delete@V?$Vec@_K@manifold@@@std@@@std@@V?$allocator@V?$unique_ptr@V?$Vec@_K@manifold@@U?$default_delete@V?$Vec@_K@manifold@@@std@@@std@@@2@@std@@YAPEAV?$unique_ptr@V?$Vec@_K@manifold@@U?$default_delete@V?$Vec@_K@manifold@@@std@@@0@QEAV10@0PEAV10@AEAV?$allocator@V?$unique_ptr@V?$Vec@_K@manifold@@U?$default_delete@V?$Vec@_K@manifold@@@std@@@std@@@0@@Z
	??$_Uninitialized_move@PEAV?$unique_ptr@VPolyPathD@Clipper2Lib@@U?$default_delete@VPolyPathD@Clipper2Lib@@@std@@@std@@V?$allocator@V?$unique_ptr@VPolyPathD@Clipper2Lib@@U?$default_delete@VPolyPathD@Clipper2Lib@@@std@@@std@@@2@@std@@YAPEAV?$unique_ptr@VPolyPathD@Clipper2Lib@@U?$default_delete@VPolyPathD@Clipper2Lib@@@std@@@0@QEAV10@0PEAV10@AEAV?$allocator@V?$unique_ptr@VPolyPathD@Clipper2Lib@@U?$default_delete@VPolyPathD@Clipper2Lib@@@std@@@std@@@0@@Z
	??$_Uninitialized_move@PEAV?$vector@U?$Point@N@Clipper2Lib@@V?$allocator@U?$Point@N@Clipper2Lib@@@std@@@std@@V?$allocator@V?$vector@U?$Point@N@Clipper2Lib@@V?$allocator@U?$Point@N@Clipper2Lib@@@std@@@std@@@2@@std@@YAPEAV?$vector@U?$Point@N@Clipper2Lib@@V?$allocator@U?$Point@N@Clipper2Lib@@@std@@@0@QEAV10@0PEAV10@AEAV?$allocator@V?$vector@U?$Point@N@Clipper2Lib@@V?$allocator@U?$Point@N@Clipper2Lib@@@std@@@std@@@0@@Z
	??$_Uninitialized_move@PEAV?$vector@U?$Point@_J@Clipper2Lib@@V?$allocator@U?$Point@_J@Clipper2Lib@@@std@@@std@@V?$allocator@V?$vector@U?$Point@_J@Clipper2Lib@@V?$allocator@U?$Point@_J@Clipper2Lib@@@std@@@std@@@2@@std@@YAPEAV?$vector@U?$Point@_J@Clipper2Lib@@V?$allocator@U?$Point@_J@Clipper2Lib@@@std@@@0@QEAV10@0PEAV10@AEAV?$allocator@V?$vector@U?$Point@_J@Clipper2Lib@@V?$allocator@U?$Point@_J@Clipper2Lib@@@std@@@std@@@0@@Z
	??$_Uninitialized_move@PEAV?$vector@U?$vec@N$01@linalg@@V?$allocator@U?$vec@N$01@linalg@@@std@@@std@@V?$allocator@V?$vector@U?$vec@N$01@linalg@@V?$allocator@U?$vec@N$01@linalg@@@std@@@std@@@2@@std@@YAPEAV?$vector@U?$vec@N$01@linalg@@V?$allocator@U?$vec@N$01@linalg@@@std@@@0@QEAV10@0PEAV10@AEAV?$allocator@V?$vector@U?$vec@N$01@linalg@@V?$allocator@U?$vec@N$01@linalg@@@std@@@std@@@0@@Z
	??$_Uninitialized_move@PEAV?$vector@UPolyVert@manifold@@V?$allocator@UPolyVert@manifold@@@std@@@std@@V?$allocator@V?$vector@UPolyVert@manifold@@V?$allocator@UPolyVert@manifold@@@std@@@std@@@2@@std@@YAPEAV?$vector@UPolyVert@manifold@@V?$allocator@UPolyVert@manifold@@@std@@@0@QEAV10@0PEAV10@AEAV?$allocator@V?$vector@UPolyVert@manifold@@V?$allocator@UPolyVert@manifold@@@std@@@std@@@0@@Z
	??$_Uninitialized_move@PEAV?$vector@V?$vector@U?$Point@N@Clipper2Lib@@V?$allocator@U?$Point@N@Clipper2Lib@@@std@@@std@@V?$allocator@V?$vector@U?$Point@N@Clipper2Lib@@V?$allocator@U?$Point@N@Clipper2Lib@@@std@@@std@@@2@@std@@V?$allocator@V?$vector@V?$vector@U?$Point@N@Clipper2Lib@@V?$allocator@U?$Point@N@Clipper2Lib@@@std@@@std@@V?$allocator@V?$vector@U?$Point@N@Clipper2Lib@@V?$allocator@U?$Point@N@Clipper2Lib@@@std@@@std@@@2@@std@@@2@@std@@YAPEAV?$vector@V?$vector@U?$Point@N@Clipper2Lib@@V?$allocator@U?$Point@N@Clipper2Lib@@@std@@@std@@V?$allocator@V?$vector@U?$Point@N@Clipper2Lib@@V?$allocator@U?$Point@N@Clipper2Lib@@@std@@@std@@@2@@0@QEAV10@0PEAV10@AEAV?$allocator@V?$vector@V?$vector@U?$Point@N@Clipper2Lib@@V?$allocator@U?$Point@N@Clipper2Lib@@@std@@@std@@V?$allocator@V?$vector@U?$Point@N@Clipper2Lib@@V?$allocator@U?$Point@N@Clipper2Lib@@@std@@@std@@@2@@std@@@0@@Z
	??$_Uninitialized_move@PEAVCrossSection@manifold@@V?$allocator@VCrossSection@manifold@@@std@@@std@@YAPEAVCrossSection@manifold@@QEAV12@0PEAV12@AEAV?$allocator@VCrossSection@manifold@@@0@@Z
	??$_Uninitialized_move@PEAVManifold@manifold@@V?$allocator@VManifold@manifold@@@std@@@std@@YAPEAVManifold@manifold@@QEAV12@0PEAV12@AEAV?$allocator@VManifold@manifold@@@0@@Z
	??$_Uninitialized_move@PEAVSparseIndices@manifold@@V?$allocator@VSparseIndices@manifold@@@std@@@std@@YAPEAVSparseIndices@manifold@@QEAV12@0PEAV12@AEAV?$allocator@VSparseIndices@manifold@@@0@@Z
	??$_Uninitialized_move@PEA_KV?$allocator@_K@std@@@std@@YAPEA_KQEA_K0PEA_KAEAV?$allocator@_K@0@@Z
	??$_Uninitialized_move_unchecked@PEAHPEAH@std@@YAPEAHPEAHQEAH0@Z
	??$_Uninitialized_move_unchecked@PEAUHalfedge@manifold@@PEAU12@@std@@YAPEAUHalfedge@manifold@@PEAU12@QEAU12@0@Z
	??$_Uninitialized_move_unchecked@PEA_JPEA_J@std@@YAPEA_JPEA_JQEA_J0@Z
	??$_Uninitialized_value_construct_n@V?$allocator@H@std@@@std@@YAPEAHPEAH_KAEAV?$allocator@H@0@@Z
	??$_Uninitialized_value_construct_n@V?$allocator@I@std@@@std@@YAPEAIPEAI_KAEAV?$allocator@I@0@@Z
	??$_Uninitialized_value_construct_n@V?$allocator@M@std@@@std@@YAPEAMPEAM_KAEAV?$allocator@M@0@@Z
	??$_Uninitialized_value_construct_n@V?$allocator@N@std@@@std@@YAPEANPEAN_KAEAV?$allocator@N@0@@Z
	??$_Uninitialized_value_construct_n@V?$allocator@U?$Point@N@Clipper2Lib@@@std@@@std@@YAPEAU?$Point@N@Clipper2Lib@@PEAU12@_KAEAV?$allocator@U?$Point@N@Clipper2Lib@@@0@@Z
	??$_Uninitialized_value_construct_n@V?$allocator@U?$vec@N$01@linalg@@@std@@@std@@YAPEAU?$vec@N$01@linalg@@PEAU12@_KAEAV?$allocator@U?$vec@N$01@linalg@@@0@@Z
	??$_Uninitialized_value_construct_n@V?$allocator@V?$unique_ptr@VPolyPathD@Clipper2Lib@@U?$default_delete@VPolyPathD@Clipper2Lib@@@std@@@std@@@std@@@std@@YAPEAV?$unique_ptr@VPolyPathD@Clipper2Lib@@U?$default_delete@VPolyPathD@Clipper2Lib@@@std@@@0@PEAV10@_KAEAV?$allocator@V?$unique_ptr@VPolyPathD@Clipper2Lib@@U?$default_delete@VPolyPathD@Clipper2Lib@@@std@@@std@@@0@@Z
	??$_Uninitialized_value_construct_n@V?$allocator@V?$vector@U?$Point@N@Clipper2Lib@@V?$allocator@U?$Point@N@Clipper2Lib@@@std@@@std@@@std@@@std@@YAPEAV?$vector@U?$Point@N@Clipper2Lib@@V?$allocator@U?$Point@N@Clipper2Lib@@@std@@@0@PEAV10@_KAEAV?$allocator@V?$vector@U?$Point@N@Clipper2Lib@@V?$allocator@U?$Point@N@Clipper2Lib@@@std@@@std@@@0@@Z
	??$_Uninitialized_value_construct_n@V?$allocator@V?$vector@U?$pair@U?$vec@H$02@linalg@@H@std@@V?$allocator@U?$pair@U?$vec@H$02@linalg@@H@std@@@2@@std@@@std@@@std@@YAPEAV?$vector@U?$pair@U?$vec@H$02@linalg@@H@std@@V?$allocator@U?$pair@U?$vec@H$02@linalg@@H@std@@@2@@0@PEAV10@_KAEAV?$allocator@V?$vector@U?$pair@U?$vec@H$02@linalg@@H@std@@V?$allocator@U?$pair@U?$vec@H$02@linalg@@H@std@@@2@@std@@@0@@Z
	??$_Uninitialized_value_construct_n@V?$allocator@V?$vector@U?$vec@H$01@linalg@@V?$allocator@U?$vec@H$01@linalg@@@std@@@std@@@std@@@std@@YAPEAV?$vector@U?$vec@H$01@linalg@@V?$allocator@U?$vec@H$01@linalg@@@std@@@0@PEAV10@_KAEAV?$allocator@V?$vector@U?$vec@H$01@linalg@@V?$allocator@U?$vec@H$01@linalg@@@std@@@std@@@0@@Z
	??$_Uninitialized_value_construct_n@V?$allocator@VManifold@manifold@@@std@@@std@@YAPEAVManifold@manifold@@PEAV12@_KAEAV?$allocator@VManifold@manifold@@@0@@Z
	??$_Uninitialized_value_construct_n@V?$allocator@_K@std@@@std@@YAPEA_KPEA_K_KAEAV?$allocator@_K@0@@Z
	??$_Uninitialized_value_construct_n_unchecked1@PEAPEAH_K@std@@YAPEAPEAHPEAPEAH_K@Z
	??$_Voidify_iter@PEAH@std@@YAPEAXPEAH@Z
	??$_Voidify_iter@PEAI@std@@YAPEAXPEAI@Z
	??$_Voidify_iter@PEAM@std@@YAPEAXPEAM@Z
	??$_Voidify_iter@PEAN@std@@YAPEAXPEAN@Z
	??$_Voidify_iter@PEAPEAD@std@@YAPEAXPEAPEAD@Z
	??$_Voidify_iter@PEAPEAH@std@@YAPEAXPEAPEAH@Z
	??$_Voidify_iter@PEAPEAU?$_List_node@HPEAX@std@@@std@@YAPEAXPEAPEAU?$_List_node@HPEAX@0@@Z
	??$_Voidify_iter@PEAPEAU?$_List_node@U?$pair@$$CBHH@std@@PEAX@std@@@std@@YAPEAXPEAPEAU?$_List_node@U?$pair@$$CBHH@std@@PEAX@0@@Z
	??$_Voidify_iter@PEAPEAU?$_List_node@U?$pair@$$CB_K_K@std@@PEAX@std@@@std@@YAPEAXPEAPEAU?$_List_node@U?$pair@$$CB_K_K@std@@PEAX@0@@Z
	??$_Voidify_iter@PEAPEAU?$_Tree_node@U?$pair@$$CBHH@std@@PEAX@std@@@std@@YAPEAXPEAPEAU?$_Tree_node@U?$pair@$$CBHH@std@@PEAX@0@@Z
	??$_Voidify_iter@PEAPEAU?$_Tree_node@U?$pair@$$CBHU?$pair@USmoothness@manifold@@U12@@std@@@std@@PEAX@std@@@std@@YAPEAXPEAPEAU?$_Tree_node@U?$pair@$$CBHU?$pair@USmoothness@manifold@@U12@@std@@@std@@PEAX@0@@Z
	??$_Voidify_iter@PEAPEAU?$_Tree_node@U?$pair@$$CBHURelation@Impl@Manifold@manifold@@@std@@PEAX@std@@@std@@YAPEAXPEAPEAU?$_Tree_node@U?$pair@$$CBHURelation@Impl@Manifold@manifold@@@std@@PEAX@0@@Z
	??$_Voidify_iter@PEAPEAU?$_Tree_node@U?$pair@$$CBHV?$vector@U?$pair@USmoothness@manifold@@U12@@std@@V?$allocator@U?$pair@USmoothness@manifold@@U12@@std@@@2@@std@@@std@@PEAX@std@@@std@@YAPEAXPEAPEAU?$_Tree_node@U?$pair@$$CBHV?$vector@U?$pair@USmoothness@manifold@@U12@@std@@V?$allocator@U?$pair@USmoothness@manifold@@U12@@std@@@2@@std@@@std@@PEAX@0@@Z
	??$_Voidify_iter@PEAPEAU?$_Tree_node@U?$pair@HH@std@@PEAX@std@@@std@@YAPEAXPEAPEAU?$_Tree_node@U?$pair@HH@std@@PEAX@0@@Z
	??$_Voidify_iter@PEAU?$Point@N@Clipper2Lib@@@std@@YAPEAXPEAU?$Point@N@Clipper2Lib@@@Z
	??$_Voidify_iter@PEAU?$Point@_J@Clipper2Lib@@@std@@YAPEAXPEAU?$Point@_J@Clipper2Lib@@@Z
	??$_Voidify_iter@PEAU?$mat@N$02$02@linalg@@@std@@YAPEAXPEAU?$mat@N$02$02@linalg@@@Z
	??$_Voidify_iter@PEAU?$pair@$$CBHH@std@@@std@@YAPEAXPEAU?$pair@$$CBHH@0@@Z
	??$_Voidify_iter@PEAU?$pair@$$CBHU?$pair@USmoothness@manifold@@U12@@std@@@std@@@std@@YAPEAXPEAU?$pair@$$CBHU?$pair@USmoothness@manifold@@U12@@std@@@0@@Z
	??$_Voidify_iter@PEAU?$pair@$$CBHURelation@Impl@Manifold@manifold@@@std@@@std@@YAPEAXPEAU?$pair@$$CBHURelation@Impl@Manifold@manifold@@@0@@Z
	??$_Voidify_iter@PEAU?$pair@$$CBHV?$vector@U?$pair@USmoothness@manifold@@U12@@std@@V?$allocator@U?$pair@USmoothness@manifold@@U12@@std@@@2@@std@@@std@@@std@@YAPEAXPEAU?$pair@$$CBHV?$vector@U?$pair@USmoothness@manifold@@U12@@std@@V?$allocator@U?$pair@USmoothness@manifold@@U12@@std@@@2@@std@@@0@@Z
	??$_Voidify_iter@PEAU?$pair@$$CB_K_K@std@@@std@@YAPEAXPEAU?$pair@$$CB_K_K@0@@Z
	??$_Voidify_iter@PEAU?$pair@HH@std@@@std@@YAPEAXPEAU?$pair@HH@0@@Z
	??$_Voidify_iter@PEAU?$pair@U?$vec@H$02@linalg@@H@std@@@std@@YAPEAXPEAU?$pair@U?$vec@H$02@linalg@@H@0@@Z
	??$_Voidify_iter@PEAU?$pair@USmoothness@manifold@@U12@@std@@@std@@YAPEAXPEAU?$pair@USmoothness@manifold@@U12@@0@@Z
	??$_Voidify_iter@PEAU?$vec@H$01@linalg@@@std@@YAPEAXPEAU?$vec@H$01@linalg@@@Z
	??$_Voidify_iter@PEAU?$vec@H$02@linalg@@@std@@YAPEAXPEAU?$vec@H$02@linalg@@@Z
	??$_Voidify_iter@PEAU?$vec@N$01@linalg@@@std@@YAPEAXPEAU?$vec@N$01@linalg@@@Z
	??$_Voidify_iter@PEAU?$vec@N$02@linalg@@@std@@YAPEAXPEAU?$vec@N$02@linalg@@@Z
	??$_Voidify_iter@PEAUCsgStackFrame@manifold@@@std@@YAPEAXPEAUCsgStackFrame@manifold@@@Z
	??$_Voidify_iter@PEAUFace@MeshBuilder@manifold@@@std@@YAPEAXPEAUFace@MeshBuilder@manifold@@@Z
	??$_Voidify_iter@PEAUHalfedge@manifold@@@std@@YAPEAXPEAUHalfedge@manifold@@@Z
	??$_Voidify_iter@PEAUImpl@Manifold@manifold@@@std@@YAPEAXPEAUImpl@Manifold@manifold@@@Z
	??$_Voidify_iter@PEAUPolyVert@manifold@@@std@@YAPEAXPEAUPolyVert@manifold@@@Z
	??$_Voidify_iter@PEAUSmoothness@manifold@@@std@@YAPEAXPEAUSmoothness@manifold@@@Z
	??$_Voidify_iter@PEAU_Container_proxy@std@@@std@@YAPEAXPEAU_Container_proxy@0@@Z
	??$_Voidify_iter@PEAV?$Vec@_K@manifold@@@std@@YAPEAXPEAV?$Vec@_K@manifold@@@Z
	??$_Voidify_iter@PEAV?$_List_unchecked_const_iterator@V?$_List_val@U?$_List_simple_types@H@std@@@std@@U_Iterator_base0@2@@std@@@std@@YAPEAXPEAV?$_List_unchecked_const_iterator@V?$_List_val@U?$_List_simple_types@H@std@@@std@@U_Iterator_base0@2@@0@@Z
	??$_Voidify_iter@PEAV?$_List_unchecked_iterator@V?$_List_val@U?$_List_simple_types@U?$pair@$$CBHH@std@@@std@@@std@@@std@@@std@@YAPEAXPEAV?$_List_unchecked_iterator@V?$_List_val@U?$_List_simple_types@U?$pair@$$CBHH@std@@@std@@@std@@@0@@Z
	??$_Voidify_iter@PEAV?$_List_unchecked_iterator@V?$_List_val@U?$_List_simple_types@U?$pair@$$CB_K_K@std@@@std@@@std@@@std@@@std@@YAPEAXPEAV?$_List_unchecked_iterator@V?$_List_val@U?$_List_simple_types@U?$pair@$$CB_K_K@std@@@std@@@std@@@0@@Z
	??$_Voidify_iter@PEAV?$shared_ptr@UCsgStackFrame@manifold@@@std@@@std@@YAPEAXPEAV?$shared_ptr@UCsgStackFrame@manifold@@@0@@Z
	??$_Voidify_iter@PEAV?$shared_ptr@VCsgLeafNode@manifold@@@std@@@std@@YAPEAXPEAV?$shared_ptr@VCsgLeafNode@manifold@@@0@@Z
	??$_Voidify_iter@PEAV?$shared_ptr@VCsgNode@manifold@@@std@@@std@@YAPEAXPEAV?$shared_ptr@VCsgNode@manifold@@@0@@Z
	??$_Voidify_iter@PEAV?$shared_ptr@VCsgOpNode@manifold@@@std@@@std@@YAPEAXPEAV?$shared_ptr@VCsgOpNode@manifold@@@0@@Z
	??$_Voidify_iter@PEAV?$unique_ptr@V?$Vec@_K@manifold@@U?$default_delete@V?$Vec@_K@manifold@@@std@@@std@@@std@@YAPEAXPEAV?$unique_ptr@V?$Vec@_K@manifold@@U?$default_delete@V?$Vec@_K@manifold@@@std@@@0@@Z
	??$_Voidify_iter@PEAV?$unique_ptr@VPolyPathD@Clipper2Lib@@U?$default_delete@VPolyPathD@Clipper2Lib@@@std@@@std@@@std@@YAPEAXPEAV?$unique_ptr@VPolyPathD@Clipper2Lib@@U?$default_delete@VPolyPathD@Clipper2Lib@@@std@@@0@@Z
	??$_Voidify_iter@PEAV?$vector@U?$Point@N@Clipper2Lib@@V?$allocator@U?$Point@N@Clipper2Lib@@@std@@@std@@@std@@YAPEAXPEAV?$vector@U?$Point@N@Clipper2Lib@@V?$allocator@U?$Point@N@Clipper2Lib@@@std@@@0@@Z
	??$_Voidify_iter@PEAV?$vector@U?$Point@_J@Clipper2Lib@@V?$allocator@U?$Point@_J@Clipper2Lib@@@std@@@std@@@std@@YAPEAXPEAV?$vector@U?$Point@_J@Clipper2Lib@@V?$allocator@U?$Point@_J@Clipper2Lib@@@std@@@0@@Z
	??$_Voidify_iter@PEAV?$vector@U?$pair@U?$vec@H$02@linalg@@H@std@@V?$allocator@U?$pair@U?$vec@H$02@linalg@@H@std@@@2@@std@@@std@@YAPEAXPEAV?$vector@U?$pair@U?$vec@H$02@linalg@@H@std@@V?$allocator@U?$pair@U?$vec@H$02@linalg@@H@std@@@2@@0@@Z
	??$_Voidify_iter@PEAV?$vector@U?$vec@H$01@linalg@@V?$allocator@U?$vec@H$01@linalg@@@std@@@std@@@std@@YAPEAXPEAV?$vector@U?$vec@H$01@linalg@@V?$allocator@U?$vec@H$01@linalg@@@std@@@0@@Z
	??$_Voidify_iter@PEAV?$vector@U?$vec@N$01@linalg@@V?$allocator@U?$vec@N$01@linalg@@@std@@@std@@@std@@YAPEAXPEAV?$vector@U?$vec@N$01@linalg@@V?$allocator@U?$vec@N$01@linalg@@@std@@@0@@Z
	??$_Voidify_iter@PEAV?$vector@UPolyVert@manifold@@V?$allocator@UPolyVert@manifold@@@std@@@std@@@std@@YAPEAXPEAV?$vector@UPolyVert@manifold@@V?$allocator@UPolyVert@manifold@@@std@@@0@@Z
	??$_Voidify_iter@PEAV?$vector@V?$shared_ptr@VCsgNode@manifold@@@std@@V?$allocator@V?$shared_ptr@VCsgNode@manifold@@@std@@@2@@std@@@std@@YAPEAXPEAV?$vector@V?$shared_ptr@VCsgNode@manifold@@@std@@V?$allocator@V?$shared_ptr@VCsgNode@manifold@@@std@@@2@@0@@Z
	??$_Voidify_iter@PEAV?$vector@V?$vector@U?$Point@N@Clipper2Lib@@V?$allocator@U?$Point@N@Clipper2Lib@@@std@@@std@@V?$allocator@V?$vector@U?$Point@N@Clipper2Lib@@V?$allocator@U?$Point@N@Clipper2Lib@@@std@@@std@@@2@@std@@@std@@YAPEAXPEAV?$vector@V?$vector@U?$Point@N@Clipper2Lib@@V?$allocator@U?$Point@N@Clipper2Lib@@@std@@@std@@V?$allocator@V?$vector@U?$Point@N@Clipper2Lib@@V?$allocator@U?$Point@N@Clipper2Lib@@@std@@@std@@@2@@0@@Z
	??$_Voidify_iter@PEAVCrossSection@manifold@@@std@@YAPEAXPEAVCrossSection@manifold@@@Z
	??$_Voidify_iter@PEAVCsgLeafNode@manifold@@@std@@YAPEAXPEAVCsgLeafNode@manifold@@@Z
	??$_Voidify_iter@PEAVCsgOpNode@manifold@@@std@@YAPEAXPEAVCsgOpNode@manifold@@@Z
	??$_Voidify_iter@PEAVManifold@manifold@@@std@@YAPEAXPEAVManifold@manifold@@@Z
	??$_Voidify_iter@PEAVSparseIndices@manifold@@@std@@YAPEAXPEAVSparseIndices@manifold@@@Z
	??$_Voidify_iter@PEAVrecursive_mutex@std@@@std@@YAPEAXPEAVrecursive_mutex@0@@Z
	??$_Voidify_iter@PEA_J@std@@YAPEAXPEA_J@Z
	??$_Voidify_iter@PEA_K@std@@YAPEAXPEA_K@Z
	??$_Voidify_iter@PEBUImpl@Manifold@manifold@@@std@@YAPEAXPEBUImpl@Manifold@manifold@@@Z
	??$_Voidify_iter@PEBUPathImpl@manifold@@@std@@YAPEAXPEBUPathImpl@manifold@@@Z
	??$_Weakly_construct_from@VCsgLeafNode@manifold@@@?$_Ptr_base@VCsgNode@manifold@@@std@@IEAAXAEBV?$_Ptr_base@VCsgLeafNode@manifold@@@1@@Z
	??$_Weakly_construct_from@VCsgOpNode@manifold@@@?$_Ptr_base@VCsgNode@manifold@@@std@@IEAAXAEBV?$_Ptr_base@VCsgOpNode@manifold@@@1@@Z
	??$_Zero_range@PEAH@std@@YAPEAHQEAH0@Z
	??$_Zero_range@PEAI@std@@YAPEAIQEAI0@Z
	??$_Zero_range@PEAM@std@@YAPEAMQEAM0@Z
	??$_Zero_range@PEAN@std@@YAPEANQEAN0@Z
	??$_Zero_range@PEAPEAH@std@@YAPEAPEAHQEAPEAH0@Z
	??$_Zero_range@PEA_K@std@@YAPEA_KQEA_K0@Z
	??$abs@N@linalg@@YANAEBN@Z
	??$abs@U?$vec@N$01@linalg@@@linalg@@YA?AU?$vec@N$01@0@AEBU10@@Z
	??$abs@U?$vec@N$02@linalg@@@linalg@@YA?AU?$vec@N$02@0@AEBU10@@Z
	??$acos@N@linalg@@YANAEBN@Z
	??$addressof@$$CBN@std@@YAPEBNAEBN@Z
	??$addressof@$$CBU?$default_delete@UImpl@Manifold@manifold@@@std@@@std@@YAPEBU?$default_delete@UImpl@Manifold@manifold@@@0@AEBU10@@Z
	??$addressof@$$CBUImpl@Manifold@manifold@@@std@@YAPEBUImpl@Manifold@manifold@@AEBU123@@Z
	??$addressof@$$CBUPathImpl@manifold@@@std@@YAPEBUPathImpl@manifold@@AEBU12@@Z
	??$addressof@$$CBV?$_List_val@U?$_List_simple_types@H@std@@@std@@@std@@YAPEBV?$_List_val@U?$_List_simple_types@H@std@@@0@AEBV10@@Z
	??$addressof@$$CBV?$_List_val@U?$_List_simple_types@U?$pair@$$CBHH@std@@@std@@@std@@@std@@YAPEBV?$_List_val@U?$_List_simple_types@U?$pair@$$CBHH@std@@@std@@@0@AEBV10@@Z
	??$addressof@$$CBV?$_Tree@V?$_Tmap_traits@HURelation@Impl@Manifold@manifold@@U?$less@H@std@@V?$allocator@U?$pair@$$CBHURelation@Impl@Manifold@manifold@@@std@@@6@$0A@@std@@@std@@@std@@YAPEBV?$_Tree@V?$_Tmap_traits@HURelation@Impl@Manifold@manifold@@U?$less@H@std@@V?$allocator@U?$pair@$$CBHURelation@Impl@Manifold@manifold@@@std@@@6@$0A@@std@@@0@AEBV10@@Z
	??$addressof@$$CBV?$_Tree_val@U?$_Tree_simple_types@U?$pair@$$CBHH@std@@@std@@@std@@@std@@YAPEBV?$_Tree_val@U?$_Tree_simple_types@U?$pair@$$CBHH@std@@@std@@@0@AEBV10@@Z
	??$addressof@$$CBV?$_Tree_val@U?$_Tree_simple_types@U?$pair@$$CBHU?$pair@USmoothness@manifold@@U12@@std@@@std@@@std@@@std@@@std@@YAPEBV?$_Tree_val@U?$_Tree_simple_types@U?$pair@$$CBHU?$pair@USmoothness@manifold@@U12@@std@@@std@@@std@@@0@AEBV10@@Z
	??$addressof@$$CBV?$_Tree_val@U?$_Tree_simple_types@U?$pair@$$CBHURelation@Impl@Manifold@manifold@@@std@@@std@@@std@@@std@@YAPEBV?$_Tree_val@U?$_Tree_simple_types@U?$pair@$$CBHURelation@Impl@Manifold@manifold@@@std@@@std@@@0@AEBV10@@Z
	??$addressof@$$CBV?$_Tree_val@U?$_Tree_simple_types@U?$pair@$$CBHV?$vector@U?$pair@USmoothness@manifold@@U12@@std@@V?$allocator@U?$pair@USmoothness@manifold@@U12@@std@@@2@@std@@@std@@@std@@@std@@@std@@YAPEBV?$_Tree_val@U?$_Tree_simple_types@U?$pair@$$CBHV?$vector@U?$pair@USmoothness@manifold@@U12@@std@@V?$allocator@U?$pair@USmoothness@manifold@@U12@@std@@@2@@std@@@std@@@std@@@0@AEBV10@@Z
	??$addressof@$$CBV?$_Tree_val@U?$_Tree_simple_types@U?$pair@HH@std@@@std@@@std@@@std@@YAPEBV?$_Tree_val@U?$_Tree_simple_types@U?$pair@HH@std@@@std@@@0@AEBV10@@Z
	??$addressof@$$CBV?$_Vector_val@U?$_Simple_types@H@std@@@std@@@std@@YAPEBV?$_Vector_val@U?$_Simple_types@H@std@@@0@AEBV10@@Z
	??$addressof@$$CBV?$_Vector_val@U?$_Simple_types@M@std@@@std@@@std@@YAPEBV?$_Vector_val@U?$_Simple_types@M@std@@@0@AEBV10@@Z
	??$addressof@$$CBV?$_Vector_val@U?$_Simple_types@N@std@@@std@@@std@@YAPEBV?$_Vector_val@U?$_Simple_types@N@std@@@0@AEBV10@@Z
	??$addressof@$$CBV?$_Vector_val@U?$_Simple_types@U?$Point@N@Clipper2Lib@@@std@@@std@@@std@@YAPEBV?$_Vector_val@U?$_Simple_types@U?$Point@N@Clipper2Lib@@@std@@@0@AEBV10@@Z
	??$addressof@$$CBV?$_Vector_val@U?$_Simple_types@U?$Point@_J@Clipper2Lib@@@std@@@std@@@std@@YAPEBV?$_Vector_val@U?$_Simple_types@U?$Point@_J@Clipper2Lib@@@std@@@0@AEBV10@@Z
	??$addressof@$$CBV?$_Vector_val@U?$_Simple_types@U?$vec@H$02@linalg@@@std@@@std@@@std@@YAPEBV?$_Vector_val@U?$_Simple_types@U?$vec@H$02@linalg@@@std@@@0@AEBV10@@Z
	??$addressof@$$CBV?$_Vector_val@U?$_Simple_types@U?$vec@N$02@linalg@@@std@@@std@@@std@@YAPEBV?$_Vector_val@U?$_Simple_types@U?$vec@N$02@linalg@@@std@@@0@AEBV10@@Z
	??$addressof@$$CBV?$_Vector_val@U?$_Simple_types@UPolyVert@manifold@@@std@@@std@@@std@@YAPEBV?$_Vector_val@U?$_Simple_types@UPolyVert@manifold@@@std@@@0@AEBV10@@Z
	??$addressof@$$CBV?$_Vector_val@U?$_Simple_types@V?$vector@U?$Point@N@Clipper2Lib@@V?$allocator@U?$Point@N@Clipper2Lib@@@std@@@std@@@std@@@std@@@std@@YAPEBV?$_Vector_val@U?$_Simple_types@V?$vector@U?$Point@N@Clipper2Lib@@V?$allocator@U?$Point@N@Clipper2Lib@@@std@@@std@@@std@@@0@AEBV10@@Z
	??$addressof@$$CBV?$_Vector_val@U?$_Simple_types@V?$vector@U?$Point@_J@Clipper2Lib@@V?$allocator@U?$Point@_J@Clipper2Lib@@@std@@@std@@@std@@@std@@@std@@YAPEBV?$_Vector_val@U?$_Simple_types@V?$vector@U?$Point@_J@Clipper2Lib@@V?$allocator@U?$Point@_J@Clipper2Lib@@@std@@@std@@@std@@@0@AEBV10@@Z
	??$addressof@$$CBV?$_Vector_val@U?$_Simple_types@V?$vector@UPolyVert@manifold@@V?$allocator@UPolyVert@manifold@@@std@@@std@@@std@@@std@@@std@@YAPEBV?$_Vector_val@U?$_Simple_types@V?$vector@UPolyVert@manifold@@V?$allocator@UPolyVert@manifold@@@std@@@std@@@std@@@0@AEBV10@@Z
	??$addressof@$$CBV?$_Vector_val@U?$_Simple_types@_K@std@@@std@@@std@@YAPEBV?$_Vector_val@U?$_Simple_types@_K@std@@@0@AEBV10@@Z
	??$addressof@$$CBV?$vector@U?$Point@N@Clipper2Lib@@V?$allocator@U?$Point@N@Clipper2Lib@@@std@@@std@@@std@@YAPEBV?$vector@U?$Point@N@Clipper2Lib@@V?$allocator@U?$Point@N@Clipper2Lib@@@std@@@0@AEBV10@@Z
	??$addressof@$$CBVid@thread@std@@@std@@YAPEBVid@thread@0@AEBV120@@Z
	??$addressof@H@std@@YAPEAHAEAH@Z
	??$addressof@N@std@@YAPEANAEAN@Z
	??$addressof@PEAD@std@@YAPEAPEADAEAPEAD@Z
	??$addressof@PEAH@std@@YAPEAPEAHAEAPEAH@Z
	??$addressof@PEAU?$_List_node@HPEAX@std@@@std@@YAPEAPEAU?$_List_node@HPEAX@0@AEAPEAU10@@Z
	??$addressof@PEAU?$_List_node@U?$pair@$$CBHH@std@@PEAX@std@@@std@@YAPEAPEAU?$_List_node@U?$pair@$$CBHH@std@@PEAX@0@AEAPEAU10@@Z
	??$addressof@PEAU?$_List_node@U?$pair@$$CB_K_K@std@@PEAX@std@@@std@@YAPEAPEAU?$_List_node@U?$pair@$$CB_K_K@std@@PEAX@0@AEAPEAU10@@Z
	??$addressof@PEAU?$_Tree_node@U?$pair@$$CBHH@std@@PEAX@std@@@std@@YAPEAPEAU?$_Tree_node@U?$pair@$$CBHH@std@@PEAX@0@AEAPEAU10@@Z
	??$addressof@PEAU?$_Tree_node@U?$pair@$$CBHU?$pair@USmoothness@manifold@@U12@@std@@@std@@PEAX@std@@@std@@YAPEAPEAU?$_Tree_node@U?$pair@$$CBHU?$pair@USmoothness@manifold@@U12@@std@@@std@@PEAX@0@AEAPEAU10@@Z
	??$addressof@PEAU?$_Tree_node@U?$pair@$$CBHURelation@Impl@Manifold@manifold@@@std@@PEAX@std@@@std@@YAPEAPEAU?$_Tree_node@U?$pair@$$CBHURelation@Impl@Manifold@manifold@@@std@@PEAX@0@AEAPEAU10@@Z
	??$addressof@PEAU?$_Tree_node@U?$pair@$$CBHV?$vector@U?$pair@USmoothness@manifold@@U12@@std@@V?$allocator@U?$pair@USmoothness@manifold@@U12@@std@@@2@@std@@@std@@PEAX@std@@@std@@YAPEAPEAU?$_Tree_node@U?$pair@$$CBHV?$vector@U?$pair@USmoothness@manifold@@U12@@std@@V?$allocator@U?$pair@USmoothness@manifold@@U12@@std@@@2@@std@@@std@@PEAX@0@AEAPEAU10@@Z
	??$addressof@PEAU?$_Tree_node@U?$pair@HH@std@@PEAX@std@@@std@@YAPEAPEAU?$_Tree_node@U?$pair@HH@std@@PEAX@0@AEAPEAU10@@Z
	??$addressof@PEAU?$atomic@PEAV?$list_node@_K@d2@detail@tbb@@@std@@@std@@YAPEAPEAU?$atomic@PEAV?$list_node@_K@d2@detail@tbb@@@0@AEAPEAU10@@Z
	??$addressof@PEAU?$padded@U?$ets_element@U?$Hist@_K$07@details@manifold@@@d1@detail@tbb@@$0IA@@d0@detail@tbb@@@std@@YAPEAPEAU?$padded@U?$ets_element@U?$Hist@_K$07@details@manifold@@@d1@detail@tbb@@$0IA@@d0@detail@tbb@@AEAPEAU1234@@Z
	??$addressof@PEAU?$padded@U?$ets_element@V?$linear_congruential_engine@I$0LMIP@$0A@$0HPPPPPPP@@std@@@d1@detail@tbb@@$0IA@@d0@detail@tbb@@@std@@YAPEAPEAU?$padded@U?$ets_element@V?$linear_congruential_engine@I$0LMIP@$0A@$0HPPPPPPP@@std@@@d1@detail@tbb@@$0IA@@d0@detail@tbb@@AEAPEAU1234@@Z
	??$addressof@PEAU?$padded@U?$ets_element@VSparseIndices@manifold@@@d1@detail@tbb@@$0IA@@d0@detail@tbb@@@std@@YAPEAPEAU?$padded@U?$ets_element@VSparseIndices@manifold@@@d1@detail@tbb@@$0IA@@d0@detail@tbb@@AEAPEAU1234@@Z
	??$addressof@PEAU?$sum_node@V?$blocked_range@_K@d1@detail@tbb@@U?$CopyIfScanBody@PEAHPEAHV<lambda_5c12ef6d5b86dd74cff0ad6bf5f99d2e>@@@details@manifold@@@d1@detail@tbb@@@std@@YAPEAPEAU?$sum_node@V?$blocked_range@_K@d1@detail@tbb@@U?$CopyIfScanBody@PEAHPEAHV<lambda_5c12ef6d5b86dd74cff0ad6bf5f99d2e>@@@details@manifold@@@d1@detail@tbb@@AEAPEAU1234@@Z
	??$addressof@PEAU?$sum_node@V?$blocked_range@_K@d1@detail@tbb@@U?$CopyIfScanBody@PEAUTmpEdge@manifold@@PEAU12@V<lambda_1d1c6bcdb0a6830adb484fa5460103d0>@@@details@manifold@@@d1@detail@tbb@@@std@@YAPEAPEAU?$sum_node@V?$blocked_range@_K@d1@detail@tbb@@U?$CopyIfScanBody@PEAUTmpEdge@manifold@@PEAU12@V<lambda_1d1c6bcdb0a6830adb484fa5460103d0>@@@details@manifold@@@d1@detail@tbb@@AEAPEAU1234@@Z
	??$addressof@PEAU?$sum_node@V?$blocked_range@_K@d1@detail@tbb@@U?$CopyIfScanBody@PEA_JPEA_JV<lambda_09fe494a54b81d6c69236683cf5b4f26>@@@details@manifold@@@d1@detail@tbb@@@std@@YAPEAPEAU?$sum_node@V?$blocked_range@_K@d1@detail@tbb@@U?$CopyIfScanBody@PEA_JPEA_JV<lambda_09fe494a54b81d6c69236683cf5b4f26>@@@details@manifold@@@d1@detail@tbb@@AEAPEAU1234@@Z
	??$addressof@PEAU?$sum_node@V?$blocked_range@_K@d1@detail@tbb@@U?$CopyIfScanBody@U?$CountingIterator@_K@manifold@@PEAHV<lambda_15275a5507336b257891fcec3ad173af>@@@details@manifold@@@d1@detail@tbb@@@std@@YAPEAPEAU?$sum_node@V?$blocked_range@_K@d1@detail@tbb@@U?$CopyIfScanBody@U?$CountingIterator@_K@manifold@@PEAHV<lambda_15275a5507336b257891fcec3ad173af>@@@details@manifold@@@d1@detail@tbb@@AEAPEAU1234@@Z
	??$addressof@PEAU?$sum_node@V?$blocked_range@_K@d1@detail@tbb@@U?$CopyIfScanBody@U?$CountingIterator@_K@manifold@@PEAHV<lambda_4107a9b620f6bac47b0532e36b1e37da>@@@details@manifold@@@d1@detail@tbb@@@std@@YAPEAPEAU?$sum_node@V?$blocked_range@_K@d1@detail@tbb@@U?$CopyIfScanBody@U?$CountingIterator@_K@manifold@@PEAHV<lambda_4107a9b620f6bac47b0532e36b1e37da>@@@details@manifold@@@d1@detail@tbb@@AEAPEAU1234@@Z
	??$addressof@PEAU?$sum_node@V?$blocked_range@_K@d1@detail@tbb@@U?$CopyIfScanBody@U?$CountingIterator@_K@manifold@@PEAHV<lambda_f7d217123976fdede42126514b35aac9>@@@details@manifold@@@d1@detail@tbb@@@std@@YAPEAPEAU?$sum_node@V?$blocked_range@_K@d1@detail@tbb@@U?$CopyIfScanBody@U?$CountingIterator@_K@manifold@@PEAHV<lambda_f7d217123976fdede42126514b35aac9>@@@details@manifold@@@d1@detail@tbb@@AEAPEAU1234@@Z
	??$addressof@PEAU?$sum_node@V?$blocked_range@_K@d1@detail@tbb@@U?$ScanBody@HPEAHPEAHU?$plus@H@std@@@details@manifold@@@d1@detail@tbb@@@std@@YAPEAPEAU?$sum_node@V?$blocked_range@_K@d1@detail@tbb@@U?$ScanBody@HPEAHPEAHU?$plus@H@std@@@details@manifold@@@d1@detail@tbb@@AEAPEAU1234@@Z
	??$addressof@PEAU?$sum_node@V?$blocked_range@_K@d1@detail@tbb@@U?$ScanBody@_KPEA_KPEA_KU?$plus@_K@std@@@details@manifold@@@d1@detail@tbb@@@std@@YAPEAPEAU?$sum_node@V?$blocked_range@_K@d1@detail@tbb@@U?$ScanBody@_KPEA_KPEA_KU?$plus@_K@std@@@details@manifold@@@d1@detail@tbb@@AEAPEAU1234@@Z
	??$addressof@PEAU?$sum_node@V?$blocked_range@_K@d1@detail@tbb@@V?$lambda_scan_body@V?$blocked_range@_K@d1@detail@tbb@@HV<lambda_fc34ceecbeedaf8547ac86e00c016eac>@@U?$plus@H@std@@@234@@d1@detail@tbb@@@std@@YAPEAPEAU?$sum_node@V?$blocked_range@_K@d1@detail@tbb@@V?$lambda_scan_body@V?$blocked_range@_K@d1@detail@tbb@@HV<lambda_fc34ceecbeedaf8547ac86e00c016eac>@@U?$plus@H@std@@@234@@d1@detail@tbb@@AEAPEAU1234@@Z
	??$addressof@PEAUarray@?$ets_base@$00@d1@detail@tbb@@@std@@YAPEAPEAUarray@?$ets_base@$00@d1@detail@tbb@@AEAPEAU12345@@Z
	??$addressof@PEAV?$list_node@_K@d2@detail@tbb@@@std@@YAPEAPEAV?$list_node@_K@d2@detail@tbb@@AEAPEAV1234@@Z
	??$addressof@U?$final_sum@V?$blocked_range@_K@d1@detail@tbb@@U?$CopyIfScanBody@PEAHPEAHV<lambda_5c12ef6d5b86dd74cff0ad6bf5f99d2e>@@@details@manifold@@@d1@detail@tbb@@@std@@YAPEAU?$final_sum@V?$blocked_range@_K@d1@detail@tbb@@U?$CopyIfScanBody@PEAHPEAHV<lambda_5c12ef6d5b86dd74cff0ad6bf5f99d2e>@@@details@manifold@@@d1@detail@tbb@@AEAU1234@@Z
	??$addressof@U?$final_sum@V?$blocked_range@_K@d1@detail@tbb@@U?$CopyIfScanBody@PEAUTmpEdge@manifold@@PEAU12@V<lambda_1d1c6bcdb0a6830adb484fa5460103d0>@@@details@manifold@@@d1@detail@tbb@@@std@@YAPEAU?$final_sum@V?$blocked_range@_K@d1@detail@tbb@@U?$CopyIfScanBody@PEAUTmpEdge@manifold@@PEAU12@V<lambda_1d1c6bcdb0a6830adb484fa5460103d0>@@@details@manifold@@@d1@detail@tbb@@AEAU1234@@Z
	??$addressof@U?$final_sum@V?$blocked_range@_K@d1@detail@tbb@@U?$CopyIfScanBody@PEA_JPEA_JV<lambda_09fe494a54b81d6c69236683cf5b4f26>@@@details@manifold@@@d1@detail@tbb@@@std@@YAPEAU?$final_sum@V?$blocked_range@_K@d1@detail@tbb@@U?$CopyIfScanBody@PEA_JPEA_JV<lambda_09fe494a54b81d6c69236683cf5b4f26>@@@details@manifold@@@d1@detail@tbb@@AEAU1234@@Z
	??$addressof@U?$final_sum@V?$blocked_range@_K@d1@detail@tbb@@U?$CopyIfScanBody@U?$CountingIterator@_K@manifold@@PEAHV<lambda_15275a5507336b257891fcec3ad173af>@@@details@manifold@@@d1@detail@tbb@@@std@@YAPEAU?$final_sum@V?$blocked_range@_K@d1@detail@tbb@@U?$CopyIfScanBody@U?$CountingIterator@_K@manifold@@PEAHV<lambda_15275a5507336b257891fcec3ad173af>@@@details@manifold@@@d1@detail@tbb@@AEAU1234@@Z
	??$addressof@U?$final_sum@V?$blocked_range@_K@d1@detail@tbb@@U?$CopyIfScanBody@U?$CountingIterator@_K@manifold@@PEAHV<lambda_4107a9b620f6bac47b0532e36b1e37da>@@@details@manifold@@@d1@detail@tbb@@@std@@YAPEAU?$final_sum@V?$blocked_range@_K@d1@detail@tbb@@U?$CopyIfScanBody@U?$CountingIterator@_K@manifold@@PEAHV<lambda_4107a9b620f6bac47b0532e36b1e37da>@@@details@manifold@@@d1@detail@tbb@@AEAU1234@@Z
	??$addressof@U?$final_sum@V?$blocked_range@_K@d1@detail@tbb@@U?$CopyIfScanBody@U?$CountingIterator@_K@manifold@@PEAHV<lambda_f7d217123976fdede42126514b35aac9>@@@details@manifold@@@d1@detail@tbb@@@std@@YAPEAU?$final_sum@V?$blocked_range@_K@d1@detail@tbb@@U?$CopyIfScanBody@U?$CountingIterator@_K@manifold@@PEAHV<lambda_f7d217123976fdede42126514b35aac9>@@@details@manifold@@@d1@detail@tbb@@AEAU1234@@Z
	??$addressof@U?$final_sum@V?$blocked_range@_K@d1@detail@tbb@@U?$ScanBody@HPEAHPEAHU?$plus@H@std@@@details@manifold@@@d1@detail@tbb@@@std@@YAPEAU?$final_sum@V?$blocked_range@_K@d1@detail@tbb@@U?$ScanBody@HPEAHPEAHU?$plus@H@std@@@details@manifold@@@d1@detail@tbb@@AEAU1234@@Z
	??$addressof@U?$final_sum@V?$blocked_range@_K@d1@detail@tbb@@U?$ScanBody@_KPEA_KPEA_KU?$plus@_K@std@@@details@manifold@@@d1@detail@tbb@@@std@@YAPEAU?$final_sum@V?$blocked_range@_K@d1@detail@tbb@@U?$ScanBody@_KPEA_KPEA_KU?$plus@_K@std@@@details@manifold@@@d1@detail@tbb@@AEAU1234@@Z
	??$addressof@U?$final_sum@V?$blocked_range@_K@d1@detail@tbb@@V?$lambda_scan_body@V?$blocked_range@_K@d1@detail@tbb@@HV<lambda_fc34ceecbeedaf8547ac86e00c016eac>@@U?$plus@H@std@@@234@@d1@detail@tbb@@@std@@YAPEAU?$final_sum@V?$blocked_range@_K@d1@detail@tbb@@V?$lambda_scan_body@V?$blocked_range@_K@d1@detail@tbb@@HV<lambda_fc34ceecbeedaf8547ac86e00c016eac>@@U?$plus@H@std@@@234@@d1@detail@tbb@@AEAU1234@@Z
	??$addressof@U?$pair@$$CBHH@std@@@std@@YAPEAU?$pair@$$CBHH@0@AEAU10@@Z
	??$addressof@U?$pair@$$CBHU?$pair@USmoothness@manifold@@U12@@std@@@std@@@std@@YAPEAU?$pair@$$CBHU?$pair@USmoothness@manifold@@U12@@std@@@0@AEAU10@@Z
	??$addressof@U?$pair@$$CBHURelation@Impl@Manifold@manifold@@@std@@@std@@YAPEAU?$pair@$$CBHURelation@Impl@Manifold@manifold@@@0@AEAU10@@Z
	??$addressof@U?$pair@$$CBHV?$vector@U?$pair@USmoothness@manifold@@U12@@std@@V?$allocator@U?$pair@USmoothness@manifold@@U12@@std@@@2@@std@@@std@@@std@@YAPEAU?$pair@$$CBHV?$vector@U?$pair@USmoothness@manifold@@U12@@std@@V?$allocator@U?$pair@USmoothness@manifold@@U12@@std@@@2@@std@@@0@AEAU10@@Z
	??$addressof@U?$pair@$$CB_K_K@std@@@std@@YAPEAU?$pair@$$CB_K_K@0@AEAU10@@Z
	??$addressof@U?$pair@HH@std@@@std@@YAPEAU?$pair@HH@0@AEAU10@@Z
	??$addressof@UCsgStackFrame@manifold@@@std@@YAPEAUCsgStackFrame@manifold@@AEAU12@@Z
	??$addressof@UHalfedge@manifold@@@std@@YAPEAUHalfedge@manifold@@AEAU12@@Z
	??$addressof@UImpl@Manifold@manifold@@@std@@YAPEAUImpl@Manifold@manifold@@AEAU123@@Z
	??$addressof@U_Container_proxy@std@@@std@@YAPEAU_Container_proxy@0@AEAU10@@Z
	??$addressof@V?$_Deque_val@U?$_Deque_simple_types@H@std@@@std@@@std@@YAPEAV?$_Deque_val@U?$_Deque_simple_types@H@std@@@0@AEAV10@@Z
	??$addressof@V?$_List_unchecked_const_iterator@V?$_List_val@U?$_List_simple_types@H@std@@@std@@U_Iterator_base0@2@@std@@@std@@YAPEAV?$_List_unchecked_const_iterator@V?$_List_val@U?$_List_simple_types@H@std@@@std@@U_Iterator_base0@2@@0@AEAV10@@Z
	??$addressof@V?$_List_unchecked_iterator@V?$_List_val@U?$_List_simple_types@U?$pair@$$CBHH@std@@@std@@@std@@@std@@@std@@YAPEAV?$_List_unchecked_iterator@V?$_List_val@U?$_List_simple_types@U?$pair@$$CBHH@std@@@std@@@std@@@0@AEAV10@@Z
	??$addressof@V?$_List_unchecked_iterator@V?$_List_val@U?$_List_simple_types@U?$pair@$$CB_K_K@std@@@std@@@std@@@std@@@std@@YAPEAV?$_List_unchecked_iterator@V?$_List_val@U?$_List_simple_types@U?$pair@$$CB_K_K@std@@@std@@@std@@@0@AEAV10@@Z
	??$addressof@V?$_List_val@U?$_List_simple_types@H@std@@@std@@@std@@YAPEAV?$_List_val@U?$_List_simple_types@H@std@@@0@AEAV10@@Z
	??$addressof@V?$_List_val@U?$_List_simple_types@U?$pair@$$CBHH@std@@@std@@@std@@@std@@YAPEAV?$_List_val@U?$_List_simple_types@U?$pair@$$CBHH@std@@@std@@@0@AEAV10@@Z
	??$addressof@V?$_Tree@V?$_Tmap_traits@HURelation@Impl@Manifold@manifold@@U?$less@H@std@@V?$allocator@U?$pair@$$CBHURelation@Impl@Manifold@manifold@@@std@@@6@$0A@@std@@@std@@@std@@YAPEAV?$_Tree@V?$_Tmap_traits@HURelation@Impl@Manifold@manifold@@U?$less@H@std@@V?$allocator@U?$pair@$$CBHURelation@Impl@Manifold@manifold@@@std@@@6@$0A@@std@@@0@AEAV10@@Z
	??$addressof@V?$_Tree_val@U?$_Tree_simple_types@U?$pair@$$CBHH@std@@@std@@@std@@@std@@YAPEAV?$_Tree_val@U?$_Tree_simple_types@U?$pair@$$CBHH@std@@@std@@@0@AEAV10@@Z
	??$addressof@V?$_Tree_val@U?$_Tree_simple_types@U?$pair@$$CBHU?$pair@USmoothness@manifold@@U12@@std@@@std@@@std@@@std@@@std@@YAPEAV?$_Tree_val@U?$_Tree_simple_types@U?$pair@$$CBHU?$pair@USmoothness@manifold@@U12@@std@@@std@@@std@@@0@AEAV10@@Z
	??$addressof@V?$_Tree_val@U?$_Tree_simple_types@U?$pair@$$CBHURelation@Impl@Manifold@manifold@@@std@@@std@@@std@@@std@@YAPEAV?$_Tree_val@U?$_Tree_simple_types@U?$pair@$$CBHURelation@Impl@Manifold@manifold@@@std@@@std@@@0@AEAV10@@Z
	??$addressof@V?$_Tree_val@U?$_Tree_simple_types@U?$pair@$$CBHV?$vector@U?$pair@USmoothness@manifold@@U12@@std@@V?$allocator@U?$pair@USmoothness@manifold@@U12@@std@@@2@@std@@@std@@@std@@@std@@@std@@YAPEAV?$_Tree_val@U?$_Tree_simple_types@U?$pair@$$CBHV?$vector@U?$pair@USmoothness@manifold@@U12@@std@@V?$allocator@U?$pair@USmoothness@manifold@@U12@@std@@@2@@std@@@std@@@std@@@0@AEAV10@@Z
	??$addressof@V?$_Tree_val@U?$_Tree_simple_types@U?$pair@HH@std@@@std@@@std@@@std@@YAPEAV?$_Tree_val@U?$_Tree_simple_types@U?$pair@HH@std@@@std@@@0@AEAV10@@Z
	??$addressof@V?$_Vector_val@U?$_Simple_types@H@std@@@std@@@std@@YAPEAV?$_Vector_val@U?$_Simple_types@H@std@@@0@AEAV10@@Z
	??$addressof@V?$_Vector_val@U?$_Simple_types@I@std@@@std@@@std@@YAPEAV?$_Vector_val@U?$_Simple_types@I@std@@@0@AEAV10@@Z
	??$addressof@V?$_Vector_val@U?$_Simple_types@U?$vec@N$01@linalg@@@std@@@std@@@std@@YAPEAV?$_Vector_val@U?$_Simple_types@U?$vec@N$01@linalg@@@std@@@0@AEAV10@@Z
	??$addressof@V?$_Vector_val@U?$_Simple_types@V?$Vec@_K@manifold@@@std@@@std@@@std@@YAPEAV?$_Vector_val@U?$_Simple_types@V?$Vec@_K@manifold@@@std@@@0@AEAV10@@Z
	??$addressof@V?$_Vector_val@U?$_Simple_types@V?$shared_ptr@VCsgLeafNode@manifold@@@std@@@std@@@std@@@std@@YAPEAV?$_Vector_val@U?$_Simple_types@V?$shared_ptr@VCsgLeafNode@manifold@@@std@@@std@@@0@AEAV10@@Z
	??$addressof@V?$_Vector_val@U?$_Simple_types@V?$unique_ptr@V?$Vec@_K@manifold@@U?$default_delete@V?$Vec@_K@manifold@@@std@@@std@@@std@@@std@@@std@@YAPEAV?$_Vector_val@U?$_Simple_types@V?$unique_ptr@V?$Vec@_K@manifold@@U?$default_delete@V?$Vec@_K@manifold@@@std@@@std@@@std@@@0@AEAV10@@Z
	??$addressof@V?$_Vector_val@U?$_Simple_types@V?$vector@U?$Point@N@Clipper2Lib@@V?$allocator@U?$Point@N@Clipper2Lib@@@std@@@std@@@std@@@std@@@std@@YAPEAV?$_Vector_val@U?$_Simple_types@V?$vector@U?$Point@N@Clipper2Lib@@V?$allocator@U?$Point@N@Clipper2Lib@@@std@@@std@@@std@@@0@AEAV10@@Z
	??$addressof@V?$_Vector_val@U?$_Simple_types@V?$vector@V?$vector@U?$Point@N@Clipper2Lib@@V?$allocator@U?$Point@N@Clipper2Lib@@@std@@@std@@V?$allocator@V?$vector@U?$Point@N@Clipper2Lib@@V?$allocator@U?$Point@N@Clipper2Lib@@@std@@@std@@@2@@std@@@std@@@std@@@std@@YAPEAV?$_Vector_val@U?$_Simple_types@V?$vector@V?$vector@U?$Point@N@Clipper2Lib@@V?$allocator@U?$Point@N@Clipper2Lib@@@std@@@std@@V?$allocator@V?$vector@U?$Point@N@Clipper2Lib@@V?$allocator@U?$Point@N@Clipper2Lib@@@std@@@std@@@2@@std@@@std@@@0@AEAV10@@Z
	??$addressof@V?$unique_ptr@V?$Vec@_K@manifold@@U?$default_delete@V?$Vec@_K@manifold@@@std@@@std@@@std@@YAPEAV?$unique_ptr@V?$Vec@_K@manifold@@U?$default_delete@V?$Vec@_K@manifold@@@std@@@0@AEAV10@@Z
	??$addressof@V?$vector@U?$Point@N@Clipper2Lib@@V?$allocator@U?$Point@N@Clipper2Lib@@@std@@@std@@@std@@YAPEAV?$vector@U?$Point@N@Clipper2Lib@@V?$allocator@U?$Point@N@Clipper2Lib@@@std@@@0@AEAV10@@Z
	??$addressof@V?$vector@U?$Point@_J@Clipper2Lib@@V?$allocator@U?$Point@_J@Clipper2Lib@@@std@@@std@@@std@@YAPEAV?$vector@U?$Point@_J@Clipper2Lib@@V?$allocator@U?$Point@_J@Clipper2Lib@@@std@@@0@AEAV10@@Z
	??$addressof@V?$vector@U?$vec@H$02@linalg@@V?$allocator@U?$vec@H$02@linalg@@@std@@@std@@@std@@YAPEAV?$vector@U?$vec@H$02@linalg@@V?$allocator@U?$vec@H$02@linalg@@@std@@@0@AEAV10@@Z
	??$addressof@V?$vector@V?$shared_ptr@VCsgNode@manifold@@@std@@V?$allocator@V?$shared_ptr@VCsgNode@manifold@@@std@@@2@@std@@@std@@YAPEAV?$vector@V?$shared_ptr@VCsgNode@manifold@@@std@@V?$allocator@V?$shared_ptr@VCsgNode@manifold@@@std@@@2@@0@AEAV10@@Z
	??$addressof@V?$vector@V?$vector@U?$Point@N@Clipper2Lib@@V?$allocator@U?$Point@N@Clipper2Lib@@@std@@@std@@V?$allocator@V?$vector@U?$Point@N@Clipper2Lib@@V?$allocator@U?$Point@N@Clipper2Lib@@@std@@@std@@@2@@std@@@std@@YAPEAV?$vector@V?$vector@U?$Point@N@Clipper2Lib@@V?$allocator@U?$Point@N@Clipper2Lib@@@std@@@std@@V?$allocator@V?$vector@U?$Point@N@Clipper2Lib@@V?$allocator@U?$Point@N@Clipper2Lib@@@std@@@std@@@2@@0@AEAV10@@Z
	??$addressof@V?$vector@V?$vector@U?$Point@_J@Clipper2Lib@@V?$allocator@U?$Point@_J@Clipper2Lib@@@std@@@std@@V?$allocator@V?$vector@U?$Point@_J@Clipper2Lib@@V?$allocator@U?$Point@_J@Clipper2Lib@@@std@@@std@@@2@@std@@@std@@YAPEAV?$vector@V?$vector@U?$Point@_J@Clipper2Lib@@V?$allocator@U?$Point@_J@Clipper2Lib@@@std@@@std@@V?$allocator@V?$vector@U?$Point@_J@Clipper2Lib@@V?$allocator@U?$Point@_J@Clipper2Lib@@@std@@@std@@@2@@0@AEAV10@@Z
	??$addressof@VCsgLeafNode@manifold@@@std@@YAPEAVCsgLeafNode@manifold@@AEAV12@@Z
	??$addressof@VCsgOpNode@manifold@@@std@@YAPEAVCsgOpNode@manifold@@AEAV12@@Z
	??$addressof@Vid@thread@std@@@std@@YAPEAVid@thread@0@AEAV120@@Z
	??$addressof@Vrecursive_mutex@std@@@std@@YAPEAVrecursive_mutex@0@AEAV10@@Z
	??$addressof@_J@std@@YAPEA_JAEA_J@Z
	??$addressof@_K@std@@YAPEA_KAEA_K@Z
	??$adjugate@N@linalg@@YA?AU?$mat@N$02$02@0@AEBU10@@Z
	??$advance@PEAH_J@std@@YAXAEAPEAH_J@Z
	??$advance@PEAU?$Point@N@Clipper2Lib@@_J@std@@YAXAEAPEAU?$Point@N@Clipper2Lib@@_J@Z
	??$advance@PEAUHalfedge@manifold@@_J@std@@YAXAEAPEAUHalfedge@manifold@@_J@Z
	??$advance@PEA_J_J@std@@YAXAEAPEA_J_J@Z
	??$advance@PEBI_J@std@@YAXAEAPEBI_J@Z
	??$advance@PEBU?$vec@H$02@linalg@@_J@std@@YAXAEAPEBU?$vec@H$02@linalg@@_J@Z
	??$advance@PEBU?$vec@N$02@linalg@@_J@std@@YAXAEAPEBU?$vec@N$02@linalg@@_J@Z
	??$advance@PEBV?$shared_ptr@VCsgNode@manifold@@@std@@_J@std@@YAXAEAPEBV?$shared_ptr@VCsgNode@manifold@@@0@_J@Z
	??$advance@PEB_K_J@std@@YAXAEAPEB_K_J@Z
	??$all@U?$mat@_N$02$03@linalg@@@linalg@@YA_NAEBU?$mat@_N$02$03@0@@Z
	??$all@U?$vec@_N$02@linalg@@@linalg@@YA_NAEBU?$vec@_N$02@0@@Z
	??$any@U?$vec@_N$02@linalg@@@linalg@@YA_NAEBU?$vec@_N$02@0@@Z
	??$apply@Uclamp@detail@linalg@@NNN@linalg@@YANUclamp@detail@0@AEBN11@Z
	??$apply@Ulerp@detail@linalg@@NNN@linalg@@YANUlerp@detail@0@AEBN11@Z
	??$apply@Ulerp@detail@linalg@@U?$vec@N$01@3@U43@N@linalg@@YA?AU?$vec@N$01@0@Ulerp@detail@0@AEBU10@1AEBN@Z
	??$apply@Ulerp@detail@linalg@@U?$vec@N$02@3@U43@N@linalg@@YA?AU?$vec@N$02@0@Ulerp@detail@0@AEBU10@1AEBN@Z
	??$apply@Ulerp@detail@linalg@@U?$vec@N$03@3@U43@N@linalg@@YA?AU?$vec@N$03@0@Ulerp@detail@0@AEBU10@1AEBN@Z
	??$apply@Umax@detail@linalg@@HH@linalg@@YAHUmax@detail@0@AEBH1@Z
	??$apply@Umax@detail@linalg@@NN@linalg@@YANUmax@detail@0@AEBN1@Z
	??$apply@Umax@detail@linalg@@NU?$vec@N$03@3@@linalg@@YA?AU?$vec@N$03@0@Umax@detail@0@AEBNAEBU10@@Z
	??$apply@Umax@detail@linalg@@U?$vec@N$01@3@U43@@linalg@@YA?AU?$vec@N$01@0@Umax@detail@0@AEBU10@1@Z
	??$apply@Umax@detail@linalg@@U?$vec@N$02@3@U43@@linalg@@YA?AU?$vec@N$02@0@Umax@detail@0@AEBU10@1@Z
	??$apply@Umin@detail@linalg@@U?$vec@N$01@3@U43@@linalg@@YA?AU?$vec@N$01@0@Umin@detail@0@AEBU10@1@Z
	??$apply@Umin@detail@linalg@@U?$vec@N$02@3@U43@@linalg@@YA?AU?$vec@N$02@0@Umin@detail@0@AEBU10@1@Z
	??$apply@Uop_add@detail@linalg@@NU?$vec@N$03@3@@linalg@@YA?AU?$vec@N$03@0@Uop_add@detail@0@AEBNAEBU10@@Z
	??$apply@Uop_add@detail@linalg@@U?$vec@H$02@3@H@linalg@@YA?AU?$vec@H$02@0@Uop_add@detail@0@AEBU10@AEBH@Z
	??$apply@Uop_add@detail@linalg@@U?$vec@H$03@3@H@linalg@@YA?AU?$vec@H$03@0@Uop_add@detail@0@AEBU10@AEBH@Z
	??$apply@Uop_add@detail@linalg@@U?$vec@H$03@3@U43@@linalg@@YA?AU?$vec@H$03@0@Uop_add@detail@0@AEBU10@1@Z
	??$apply@Uop_add@detail@linalg@@U?$vec@N$01@3@U43@@linalg@@YA?AU?$vec@N$01@0@Uop_add@detail@0@AEBU10@1@Z
	??$apply@Uop_add@detail@linalg@@U?$vec@N$02@3@H@linalg@@YA?AU?$vec@N$02@0@Uop_add@detail@0@AEBU10@AEBH@Z
	??$apply@Uop_add@detail@linalg@@U?$vec@N$02@3@N@linalg@@YA?AU?$vec@N$02@0@Uop_add@detail@0@AEBU10@AEBN@Z
	??$apply@Uop_add@detail@linalg@@U?$vec@N$02@3@U43@@linalg@@YA?AU?$vec@N$02@0@Uop_add@detail@0@AEBU10@1@Z
	??$apply@Uop_add@detail@linalg@@U?$vec@N$03@3@U43@@linalg@@YA?AU?$vec@N$03@0@Uop_add@detail@0@AEBU10@1@Z
	??$apply@Uop_div@detail@linalg@@U?$mat@N$02$02@3@N@linalg@@YA?AU?$mat@N$02$02@0@Uop_div@detail@0@AEBU10@AEBN@Z
	??$apply@Uop_div@detail@linalg@@U?$vec@N$01@3@N@linalg@@YA?AU?$vec@N$01@0@Uop_div@detail@0@AEBU10@AEBN@Z
	??$apply@Uop_div@detail@linalg@@U?$vec@N$02@3@H@linalg@@YA?AU?$vec@N$02@0@Uop_div@detail@0@AEBU10@AEBH@Z
	??$apply@Uop_div@detail@linalg@@U?$vec@N$02@3@N@linalg@@YA?AU?$vec@N$02@0@Uop_div@detail@0@AEBU10@AEBN@Z
	??$apply@Uop_div@detail@linalg@@U?$vec@N$02@3@U43@@linalg@@YA?AU?$vec@N$02@0@Uop_div@detail@0@AEBU10@1@Z
	??$apply@Uop_div@detail@linalg@@U?$vec@N$03@3@N@linalg@@YA?AU?$vec@N$03@0@Uop_div@detail@0@AEBU10@AEBN@Z
	??$apply@Uop_gt@detail@linalg@@U?$vec@H$02@3@U43@@linalg@@YA?AU?$vec@_N$02@0@Uop_gt@detail@0@AEBU?$vec@H$02@0@1@Z
	??$apply@Uop_lt@detail@linalg@@U?$vec@N$02@3@U43@@linalg@@YA?AU?$vec@_N$02@0@Uop_lt@detail@0@AEBU?$vec@N$02@0@1@Z
	??$apply@Uop_mod@detail@linalg@@U?$vec@H$03@3@H@linalg@@YA?AU?$vec@H$03@0@Uop_mod@detail@0@AEBU10@AEBH@Z
	??$apply@Uop_mul@detail@linalg@@NU?$mat@N$01$01@3@@linalg@@YA?AU?$mat@N$01$01@0@Uop_mul@detail@0@AEBNAEBU10@@Z
	??$apply@Uop_mul@detail@linalg@@NU?$mat@N$02$02@3@@linalg@@YA?AU?$mat@N$02$02@0@Uop_mul@detail@0@AEBNAEBU10@@Z
	??$apply@Uop_mul@detail@linalg@@NU?$vec@N$01@3@@linalg@@YA?AU?$vec@N$01@0@Uop_mul@detail@0@AEBNAEBU10@@Z
	??$apply@Uop_mul@detail@linalg@@NU?$vec@N$02@3@@linalg@@YA?AU?$vec@N$02@0@Uop_mul@detail@0@AEBNAEBU10@@Z
	??$apply@Uop_mul@detail@linalg@@NU?$vec@N$03@3@@linalg@@YA?AU?$vec@N$03@0@Uop_mul@detail@0@AEBNAEBU10@@Z
	??$apply@Uop_mul@detail@linalg@@U?$mat@N$02$02@3@N@linalg@@YA?AU?$mat@N$02$02@0@Uop_mul@detail@0@AEBU10@AEBN@Z
	??$apply@Uop_mul@detail@linalg@@U?$vec@N$01@3@N@linalg@@YA?AU?$vec@N$01@0@Uop_mul@detail@0@AEBU10@AEBN@Z
	??$apply@Uop_mul@detail@linalg@@U?$vec@N$01@3@U43@@linalg@@YA?AU?$vec@N$01@0@Uop_mul@detail@0@AEBU10@1@Z
	??$apply@Uop_mul@detail@linalg@@U?$vec@N$02@3@N@linalg@@YA?AU?$vec@N$02@0@Uop_mul@detail@0@AEBU10@AEBN@Z
	??$apply@Uop_mul@detail@linalg@@U?$vec@N$02@3@U43@@linalg@@YA?AU?$vec@N$02@0@Uop_mul@detail@0@AEBU10@1@Z
	??$apply@Uop_mul@detail@linalg@@U?$vec@N$03@3@U43@@linalg@@YA?AU?$vec@N$03@0@Uop_mul@detail@0@AEBU10@1@Z
	??$apply@Uop_neg@detail@linalg@@U?$vec@N$02@3@@linalg@@YA?AU?$vec@N$02@0@Uop_neg@detail@0@AEBU10@@Z
	??$apply@Uop_neg@detail@linalg@@U?$vec@N$03@3@@linalg@@YA?AU?$vec@N$03@0@Uop_neg@detail@0@AEBU10@@Z
	??$apply@Uop_not@detail@linalg@@U?$vec@_N$03@3@@linalg@@YA?AU?$vec@_N$03@0@Uop_not@detail@0@AEBU10@@Z
	??$apply@Uop_sub@detail@linalg@@NU?$vec@N$02@3@@linalg@@YA?AU?$vec@N$02@0@Uop_sub@detail@0@AEBNAEBU10@@Z
	??$apply@Uop_sub@detail@linalg@@U?$mat@N$01$01@3@U43@@linalg@@YA?AU?$mat@N$01$01@0@Uop_sub@detail@0@AEBU10@1@Z
	??$apply@Uop_sub@detail@linalg@@U?$mat@N$02$02@3@U43@@linalg@@YA?AU?$mat@N$02$02@0@Uop_sub@detail@0@AEBU10@1@Z
	??$apply@Uop_sub@detail@linalg@@U?$vec@H$02@3@H@linalg@@YA?AU?$vec@H$02@0@Uop_sub@detail@0@AEBU10@AEBH@Z
	??$apply@Uop_sub@detail@linalg@@U?$vec@H$02@3@U43@@linalg@@YA?AU?$vec@H$02@0@Uop_sub@detail@0@AEBU10@1@Z
	??$apply@Uop_sub@detail@linalg@@U?$vec@H$03@3@H@linalg@@YA?AU?$vec@H$03@0@Uop_sub@detail@0@AEBU10@AEBH@Z
	??$apply@Uop_sub@detail@linalg@@U?$vec@H$03@3@U43@@linalg@@YA?AU?$vec@H$03@0@Uop_sub@detail@0@AEBU10@1@Z
	??$apply@Uop_sub@detail@linalg@@U?$vec@N$01@3@U43@@linalg@@YA?AU?$vec@N$01@0@Uop_sub@detail@0@AEBU10@1@Z
	??$apply@Uop_sub@detail@linalg@@U?$vec@N$02@3@H@linalg@@YA?AU?$vec@N$02@0@Uop_sub@detail@0@AEBU10@AEBH@Z
	??$apply@Uop_sub@detail@linalg@@U?$vec@N$02@3@N@linalg@@YA?AU?$vec@N$02@0@Uop_sub@detail@0@AEBU10@AEBN@Z
	??$apply@Uop_sub@detail@linalg@@U?$vec@N$02@3@U43@@linalg@@YA?AU?$vec@N$02@0@Uop_sub@detail@0@AEBU10@1@Z
	??$apply@Ustd_abs@detail@linalg@@N@linalg@@YANUstd_abs@detail@0@AEBN@Z
	??$apply@Ustd_abs@detail@linalg@@U?$vec@N$01@3@@linalg@@YA?AU?$vec@N$01@0@Ustd_abs@detail@0@AEBU10@@Z
	??$apply@Ustd_abs@detail@linalg@@U?$vec@N$02@3@@linalg@@YA?AU?$vec@N$02@0@Ustd_abs@detail@0@AEBU10@@Z
	??$apply@Ustd_acos@detail@linalg@@N@linalg@@YANUstd_acos@detail@0@AEBN@Z
	??$apply@Ustd_copysign@detail@linalg@@U?$vec@N$03@3@U43@@linalg@@YA?AU?$vec@N$03@0@Ustd_copysign@detail@0@AEBU10@1@Z
	??$apply@Ustd_cos@detail@linalg@@U?$vec@N$02@3@@linalg@@YA?AU?$vec@N$02@0@Ustd_cos@detail@0@AEBU10@@Z
	??$apply@Ustd_isfinite@detail@linalg@@N@linalg@@YA_NUstd_isfinite@detail@0@AEBN@Z
	??$apply@Ustd_isfinite@detail@linalg@@U?$mat@N$02$03@3@@linalg@@YA?AU?$mat@_N$02$03@0@Ustd_isfinite@detail@0@AEBU?$mat@N$02$03@0@@Z
	??$apply@Ustd_isfinite@detail@linalg@@U?$vec@N$02@3@@linalg@@YA?AU?$vec@_N$02@0@Ustd_isfinite@detail@0@AEBU?$vec@N$02@0@@Z
	??$apply@Ustd_log2@detail@linalg@@U?$vec@H$02@3@@linalg@@YA?AU?$vec@N$02@0@Ustd_log2@detail@0@AEBU?$vec@H$02@0@@Z
	??$apply@Ustd_pow@detail@linalg@@_KN@linalg@@YANUstd_pow@detail@0@AEB_KAEBN@Z
	??$apply@Ustd_sqrt@detail@linalg@@U?$vec@N$03@3@@linalg@@YA?AU?$vec@N$03@0@Ustd_sqrt@detail@0@AEBU10@@Z
	??$argmax@N$03@linalg@@YAHAEBU?$vec@N$03@0@@Z
	??$assign@PEAU?$Point@N@Clipper2Lib@@$0A@@?$vector@U?$Point@N@Clipper2Lib@@V?$allocator@U?$Point@N@Clipper2Lib@@@std@@@std@@QEAAXPEAU?$Point@N@Clipper2Lib@@0@Z
	??$atomic_exchange@E@std@@YAEQEAU?$atomic@E@0@E@Z
	??$autoPolicy@PEADX@manifold@@YA?AW4ExecutionPolicy@0@PEAD0_K@Z
	??$autoPolicy@PEAEX@manifold@@YA?AW4ExecutionPolicy@0@PEAE0_K@Z
	??$autoPolicy@PEAHX@manifold@@YA?AW4ExecutionPolicy@0@PEAH0_K@Z
	??$autoPolicy@PEAIX@manifold@@YA?AW4ExecutionPolicy@0@PEAI0_K@Z
	??$autoPolicy@PEANX@manifold@@YA?AW4ExecutionPolicy@0@PEAN0_K@Z
	??$autoPolicy@PEAU?$pair@HH@std@@X@manifold@@YA?AW4ExecutionPolicy@0@PEAU?$pair@HH@std@@0_K@Z
	??$autoPolicy@PEAU?$vec@H$02@linalg@@X@manifold@@YA?AW4ExecutionPolicy@0@PEAU?$vec@H$02@linalg@@0_K@Z
	??$autoPolicy@PEAU?$vec@N$02@linalg@@X@manifold@@YA?AW4ExecutionPolicy@0@PEAU?$vec@N$02@linalg@@0_K@Z
	??$autoPolicy@PEAU?$vec@N$03@linalg@@X@manifold@@YA?AW4ExecutionPolicy@0@PEAU?$vec@N$03@linalg@@0_K@Z
	??$autoPolicy@PEAUBarycentric@manifold@@X@manifold@@YA?AW4ExecutionPolicy@0@PEAUBarycentric@0@0_K@Z
	??$autoPolicy@PEAUBox@manifold@@X@manifold@@YA?AW4ExecutionPolicy@0@PEAUBox@0@0_K@Z
	??$autoPolicy@PEAUFaceData@QuickHull@manifold@@X@manifold@@YA?AW4ExecutionPolicy@0@PEAUFaceData@QuickHull@0@0_K@Z
	??$autoPolicy@PEAUHalfedge@manifold@@X@manifold@@YA?AW4ExecutionPolicy@0@PEAUHalfedge@0@0_K@Z
	??$autoPolicy@PEAUTmpEdge@manifold@@X@manifold@@YA?AW4ExecutionPolicy@0@PEAUTmpEdge@0@0_K@Z
	??$autoPolicy@PEAUTriRef@manifold@@X@manifold@@YA?AW4ExecutionPolicy@0@PEAUTriRef@0@0_K@Z
	??$autoPolicy@PEA_JX@manifold@@YA?AW4ExecutionPolicy@0@PEA_J0_K@Z
	??$autoPolicy@PEA_KX@manifold@@YA?AW4ExecutionPolicy@0@PEA_K0_K@Z
	??$autoPolicy@PEA_NX@manifold@@YA?AW4ExecutionPolicy@0@PEA_N0_K@Z
	??$autoPolicy@PEBHX@manifold@@YA?AW4ExecutionPolicy@0@PEBH0_K@Z
	??$autoPolicy@PEBNX@manifold@@YA?AW4ExecutionPolicy@0@PEBN0_K@Z
	??$autoPolicy@PEBU?$pair@HH@std@@X@manifold@@YA?AW4ExecutionPolicy@0@PEBU?$pair@HH@std@@0_K@Z
	??$autoPolicy@PEBU?$vec@H$02@linalg@@X@manifold@@YA?AW4ExecutionPolicy@0@PEBU?$vec@H$02@linalg@@0_K@Z
	??$autoPolicy@PEBU?$vec@N$02@linalg@@X@manifold@@YA?AW4ExecutionPolicy@0@PEBU?$vec@N$02@linalg@@0_K@Z
	??$autoPolicy@PEBU?$vec@N$03@linalg@@X@manifold@@YA?AW4ExecutionPolicy@0@PEBU?$vec@N$03@linalg@@0_K@Z
	??$autoPolicy@PEBUBox@manifold@@X@manifold@@YA?AW4ExecutionPolicy@0@PEBUBox@0@0_K@Z
	??$autoPolicy@PEBUHalfedge@manifold@@X@manifold@@YA?AW4ExecutionPolicy@0@PEBUHalfedge@0@0_K@Z
	??$autoPolicy@PEBUTriRef@manifold@@X@manifold@@YA?AW4ExecutionPolicy@0@PEBUTriRef@0@0_K@Z
	??$autoPolicy@PEB_KX@manifold@@YA?AW4ExecutionPolicy@0@PEB_K0_K@Z
	??$autoPolicy@U?$CountingIterator@_K@manifold@@X@manifold@@YA?AW4ExecutionPolicy@0@U?$CountingIterator@_K@0@0_K@Z
	??$autoPolicy@UStridedRangeIter@?$StridedRange@PEBN@manifold@@X@manifold@@YA?AW4ExecutionPolicy@0@UStridedRangeIter@?$StridedRange@PEBN@0@0_K@Z
	??$back_inserter@V?$vector@U?$Point@N@Clipper2Lib@@V?$allocator@U?$Point@N@Clipper2Lib@@@std@@@std@@@std@@YA?AV?$back_insert_iterator@V?$vector@U?$Point@N@Clipper2Lib@@V?$allocator@U?$Point@N@Clipper2Lib@@@std@@@std@@@0@AEAV?$vector@U?$Point@N@Clipper2Lib@@V?$allocator@U?$Point@N@Clipper2Lib@@@std@@@0@@Z
	??$back_inserter@V?$vector@U?$Point@_J@Clipper2Lib@@V?$allocator@U?$Point@_J@Clipper2Lib@@@std@@@std@@@std@@YA?AV?$back_insert_iterator@V?$vector@U?$Point@_J@Clipper2Lib@@V?$allocator@U?$Point@_J@Clipper2Lib@@@std@@@std@@@0@AEAV?$vector@U?$Point@_J@Clipper2Lib@@V?$allocator@U?$Point@_J@Clipper2Lib@@@std@@@0@@Z
	??$back_inserter@V?$vector@V?$vector@U?$Point@N@Clipper2Lib@@V?$allocator@U?$Point@N@Clipper2Lib@@@std@@@std@@V?$allocator@V?$vector@U?$Point@N@Clipper2Lib@@V?$allocator@U?$Point@N@Clipper2Lib@@@std@@@std@@@2@@std@@@std@@YA?AV?$back_insert_iterator@V?$vector@V?$vector@U?$Point@N@Clipper2Lib@@V?$allocator@U?$Point@N@Clipper2Lib@@@std@@@std@@V?$allocator@V?$vector@U?$Point@N@Clipper2Lib@@V?$allocator@U?$Point@N@Clipper2Lib@@@std@@@std@@@2@@std@@@0@AEAV?$vector@V?$vector@U?$Point@N@Clipper2Lib@@V?$allocator@U?$Point@N@Clipper2Lib@@@std@@@std@@V?$allocator@V?$vector@U?$Point@N@Clipper2Lib@@V?$allocator@U?$Point@N@Clipper2Lib@@@std@@@std@@@2@@0@@Z
	??$back_inserter@V?$vector@V?$vector@U?$Point@_J@Clipper2Lib@@V?$allocator@U?$Point@_J@Clipper2Lib@@@std@@@std@@V?$allocator@V?$vector@U?$Point@_J@Clipper2Lib@@V?$allocator@U?$Point@_J@Clipper2Lib@@@std@@@std@@@2@@std@@@std@@YA?AV?$back_insert_iterator@V?$vector@V?$vector@U?$Point@_J@Clipper2Lib@@V?$allocator@U?$Point@_J@Clipper2Lib@@@std@@@std@@V?$allocator@V?$vector@U?$Point@_J@Clipper2Lib@@V?$allocator@U?$Point@_J@Clipper2Lib@@@std@@@std@@@2@@std@@@0@AEAV?$vector@V?$vector@U?$Point@_J@Clipper2Lib@@V?$allocator@U?$Point@_J@Clipper2Lib@@@std@@@std@@V?$allocator@V?$vector@U?$Point@_J@Clipper2Lib@@V?$allocator@U?$Point@_J@Clipper2Lib@@@std@@@std@@@2@@0@@Z
	??$begin@H@std@@YAPEBHV?$initializer_list@H@0@@Z
	??$begin@U?$vec@H$02@linalg@@@std@@YAPEBU?$vec@H$02@linalg@@V?$initializer_list@U?$vec@H$02@linalg@@@0@@Z
	??$call@V<lambda_f7704d47ea6188c36769ba075f25f69a>@@AEAU?$stored_pack@I@d0@detail@tbb@@@d0@detail@tbb@@YAX$$QEAV<lambda_f7704d47ea6188c36769ba075f25f69a>@@AEAU?$stored_pack@I@012@@Z
	??$call@XV<lambda_f7704d47ea6188c36769ba075f25f69a>@@$$V@?$stored_pack@I@d0@detail@tbb@@KAX$$QEAV<lambda_f7704d47ea6188c36769ba075f25f69a>@@AEAU0123@@Z
	??$call@XV<lambda_f7704d47ea6188c36769ba075f25f69a>@@AEAI@?$stored_pack@$$V@d0@detail@tbb@@KAX$$QEAV<lambda_f7704d47ea6188c36769ba075f25f69a>@@AEBU0123@AEAI@Z
	??$check_being_stolen@U?$start_for@V?$blocked_range@PEAD@d1@detail@tbb@@V<lambda_390e7650f5d708b0e84e59fd24728414>@@$$CBVauto_partitioner@234@@d1@detail@tbb@@@?$dynamic_grainsize_mode@U?$adaptive_mode@Vauto_partition_type@d1@detail@tbb@@@d1@detail@tbb@@@d1@detail@tbb@@QEAA_NAEAU?$start_for@V?$blocked_range@PEAD@d1@detail@tbb@@V<lambda_390e7650f5d708b0e84e59fd24728414>@@$$CBVauto_partitioner@234@@123@AEBUexecution_data@123@@Z
	??$check_being_stolen@U?$start_for@V?$blocked_range@PEAE@d1@detail@tbb@@V<lambda_6b4fcd617dc3091fadf6e4783b22a839>@@$$CBVauto_partitioner@234@@d1@detail@tbb@@@?$dynamic_grainsize_mode@U?$adaptive_mode@Vauto_partition_type@d1@detail@tbb@@@d1@detail@tbb@@@d1@detail@tbb@@QEAA_NAEAU?$start_for@V?$blocked_range@PEAE@d1@detail@tbb@@V<lambda_6b4fcd617dc3091fadf6e4783b22a839>@@$$CBVauto_partitioner@234@@123@AEBUexecution_data@123@@Z
	??$check_being_stolen@U?$start_for@V?$blocked_range@PEAH@d1@detail@tbb@@V<lambda_1c009478eeb148d97e9341582c6ebdef>@@$$CBVauto_partitioner@234@@d1@detail@tbb@@@?$dynamic_grainsize_mode@U?$adaptive_mode@Vauto_partition_type@d1@detail@tbb@@@d1@detail@tbb@@@d1@detail@tbb@@QEAA_NAEAU?$start_for@V?$blocked_range@PEAH@d1@detail@tbb@@V<lambda_1c009478eeb148d97e9341582c6ebdef>@@$$CBVauto_partitioner@234@@123@AEBUexecution_data@123@@Z
	??$check_being_stolen@U?$start_for@V?$blocked_range@PEAI@d1@detail@tbb@@V<lambda_55bd6547379df8a8634d9ee152318fd0>@@$$CBVauto_partitioner@234@@d1@detail@tbb@@@?$dynamic_grainsize_mode@U?$adaptive_mode@Vauto_partition_type@d1@detail@tbb@@@d1@detail@tbb@@@d1@detail@tbb@@QEAA_NAEAU?$start_for@V?$blocked_range@PEAI@d1@detail@tbb@@V<lambda_55bd6547379df8a8634d9ee152318fd0>@@$$CBVauto_partitioner@234@@123@AEBUexecution_data@123@@Z
	??$check_being_stolen@U?$start_for@V?$blocked_range@PEAN@d1@detail@tbb@@V<lambda_96b4ac76a702b60061fd6b4388172533>@@$$CBVauto_partitioner@234@@d1@detail@tbb@@@?$dynamic_grainsize_mode@U?$adaptive_mode@Vauto_partition_type@d1@detail@tbb@@@d1@detail@tbb@@@d1@detail@tbb@@QEAA_NAEAU?$start_for@V?$blocked_range@PEAN@d1@detail@tbb@@V<lambda_96b4ac76a702b60061fd6b4388172533>@@$$CBVauto_partitioner@234@@123@AEBUexecution_data@123@@Z
	??$check_being_stolen@U?$start_for@V?$blocked_range@PEAU?$pair@HH@std@@@d1@detail@tbb@@V<lambda_cacf0e9b7eff79c3447974a54ad57622>@@$$CBVauto_partitioner@234@@d1@detail@tbb@@@?$dynamic_grainsize_mode@U?$adaptive_mode@Vauto_partition_type@d1@detail@tbb@@@d1@detail@tbb@@@d1@detail@tbb@@QEAA_NAEAU?$start_for@V?$blocked_range@PEAU?$pair@HH@std@@@d1@detail@tbb@@V<lambda_cacf0e9b7eff79c3447974a54ad57622>@@$$CBVauto_partitioner@234@@123@AEBUexecution_data@123@@Z
	??$check_being_stolen@U?$start_for@V?$blocked_range@PEAU?$vec@H$02@linalg@@@d1@detail@tbb@@V<lambda_50c73d532b09eac601dfed511085ee3f>@@$$CBVauto_partitioner@234@@d1@detail@tbb@@@?$dynamic_grainsize_mode@U?$adaptive_mode@Vauto_partition_type@d1@detail@tbb@@@d1@detail@tbb@@@d1@detail@tbb@@QEAA_NAEAU?$start_for@V?$blocked_range@PEAU?$vec@H$02@linalg@@@d1@detail@tbb@@V<lambda_50c73d532b09eac601dfed511085ee3f>@@$$CBVauto_partitioner@234@@123@AEBUexecution_data@123@@Z
	??$check_being_stolen@U?$start_for@V?$blocked_range@PEAU?$vec@N$02@linalg@@@d1@detail@tbb@@V<lambda_7aa2ab451ab11e4b32889fdc5782f714>@@$$CBVauto_partitioner@234@@d1@detail@tbb@@@?$dynamic_grainsize_mode@U?$adaptive_mode@Vauto_partition_type@d1@detail@tbb@@@d1@detail@tbb@@@d1@detail@tbb@@QEAA_NAEAU?$start_for@V?$blocked_range@PEAU?$vec@N$02@linalg@@@d1@detail@tbb@@V<lambda_7aa2ab451ab11e4b32889fdc5782f714>@@$$CBVauto_partitioner@234@@123@AEBUexecution_data@123@@Z
	??$check_being_stolen@U?$start_for@V?$blocked_range@PEAU?$vec@N$02@linalg@@@d1@detail@tbb@@V<lambda_bf52f877fdec0d85ccd27fa3a28cde87>@@$$CBVauto_partitioner@234@@d1@detail@tbb@@@?$dynamic_grainsize_mode@U?$adaptive_mode@Vauto_partition_type@d1@detail@tbb@@@d1@detail@tbb@@@d1@detail@tbb@@QEAA_NAEAU?$start_for@V?$blocked_range@PEAU?$vec@N$02@linalg@@@d1@detail@tbb@@V<lambda_bf52f877fdec0d85ccd27fa3a28cde87>@@$$CBVauto_partitioner@234@@123@AEBUexecution_data@123@@Z
	??$check_being_stolen@U?$start_for@V?$blocked_range@PEAU?$vec@N$03@linalg@@@d1@detail@tbb@@V<lambda_ac42147e527b84c1e18e82d2239b4e00>@@$$CBVauto_partitioner@234@@d1@detail@tbb@@@?$dynamic_grainsize_mode@U?$adaptive_mode@Vauto_partition_type@d1@detail@tbb@@@d1@detail@tbb@@@d1@detail@tbb@@QEAA_NAEAU?$start_for@V?$blocked_range@PEAU?$vec@N$03@linalg@@@d1@detail@tbb@@V<lambda_ac42147e527b84c1e18e82d2239b4e00>@@$$CBVauto_partitioner@234@@123@AEBUexecution_data@123@@Z
	??$check_being_stolen@U?$start_for@V?$blocked_range@PEAUBarycentric@manifold@@@d1@detail@tbb@@V<lambda_5a1b5cf6847d2627f3fed7e4e384c5a5>@@$$CBVauto_partitioner@234@@d1@detail@tbb@@@?$dynamic_grainsize_mode@U?$adaptive_mode@Vauto_partition_type@d1@detail@tbb@@@d1@detail@tbb@@@d1@detail@tbb@@QEAA_NAEAU?$start_for@V?$blocked_range@PEAUBarycentric@manifold@@@d1@detail@tbb@@V<lambda_5a1b5cf6847d2627f3fed7e4e384c5a5>@@$$CBVauto_partitioner@234@@123@AEBUexecution_data@123@@Z
	??$check_being_stolen@U?$start_for@V?$blocked_range@PEAUBox@manifold@@@d1@detail@tbb@@V<lambda_94e8667c3c22bf3bc3eec35b8ed39056>@@$$CBVauto_partitioner@234@@d1@detail@tbb@@@?$dynamic_grainsize_mode@U?$adaptive_mode@Vauto_partition_type@d1@detail@tbb@@@d1@detail@tbb@@@d1@detail@tbb@@QEAA_NAEAU?$start_for@V?$blocked_range@PEAUBox@manifold@@@d1@detail@tbb@@V<lambda_94e8667c3c22bf3bc3eec35b8ed39056>@@$$CBVauto_partitioner@234@@123@AEBUexecution_data@123@@Z
	??$check_being_stolen@U?$start_for@V?$blocked_range@PEAUBox@manifold@@@d1@detail@tbb@@V<lambda_9da81faedc09361c6a787386af9b6f8e>@@$$CBVauto_partitioner@234@@d1@detail@tbb@@@?$dynamic_grainsize_mode@U?$adaptive_mode@Vauto_partition_type@d1@detail@tbb@@@d1@detail@tbb@@@d1@detail@tbb@@QEAA_NAEAU?$start_for@V?$blocked_range@PEAUBox@manifold@@@d1@detail@tbb@@V<lambda_9da81faedc09361c6a787386af9b6f8e>@@$$CBVauto_partitioner@234@@123@AEBUexecution_data@123@@Z
	??$check_being_stolen@U?$start_for@V?$blocked_range@PEAUFaceData@QuickHull@manifold@@@d1@detail@tbb@@V<lambda_dba04a9a13962c0282956f647a169345>@@$$CBVauto_partitioner@234@@d1@detail@tbb@@@?$dynamic_grainsize_mode@U?$adaptive_mode@Vauto_partition_type@d1@detail@tbb@@@d1@detail@tbb@@@d1@detail@tbb@@QEAA_NAEAU?$start_for@V?$blocked_range@PEAUFaceData@QuickHull@manifold@@@d1@detail@tbb@@V<lambda_dba04a9a13962c0282956f647a169345>@@$$CBVauto_partitioner@234@@123@AEBUexecution_data@123@@Z
	??$check_being_stolen@U?$start_for@V?$blocked_range@PEAUHalfedge@manifold@@@d1@detail@tbb@@V<lambda_32c00d621959975f1324ec5a60fb61a7>@@$$CBVauto_partitioner@234@@d1@detail@tbb@@@?$dynamic_grainsize_mode@U?$adaptive_mode@Vauto_partition_type@d1@detail@tbb@@@d1@detail@tbb@@@d1@detail@tbb@@QEAA_NAEAU?$start_for@V?$blocked_range@PEAUHalfedge@manifold@@@d1@detail@tbb@@V<lambda_32c00d621959975f1324ec5a60fb61a7>@@$$CBVauto_partitioner@234@@123@AEBUexecution_data@123@@Z
	??$check_being_stolen@U?$start_for@V?$blocked_range@PEAUTmpEdge@manifold@@@d1@detail@tbb@@V<lambda_02035d049f954c25fedd5e3c2f22d9ba>@@$$CBVauto_partitioner@234@@d1@detail@tbb@@@?$dynamic_grainsize_mode@U?$adaptive_mode@Vauto_partition_type@d1@detail@tbb@@@d1@detail@tbb@@@d1@detail@tbb@@QEAA_NAEAU?$start_for@V?$blocked_range@PEAUTmpEdge@manifold@@@d1@detail@tbb@@V<lambda_02035d049f954c25fedd5e3c2f22d9ba>@@$$CBVauto_partitioner@234@@123@AEBUexecution_data@123@@Z
	??$check_being_stolen@U?$start_for@V?$blocked_range@PEAUTriRef@manifold@@@d1@detail@tbb@@V<lambda_2764dc2231b3bfb2b26de9434b902a3c>@@$$CBVauto_partitioner@234@@d1@detail@tbb@@@?$dynamic_grainsize_mode@U?$adaptive_mode@Vauto_partition_type@d1@detail@tbb@@@d1@detail@tbb@@@d1@detail@tbb@@QEAA_NAEAU?$start_for@V?$blocked_range@PEAUTriRef@manifold@@@d1@detail@tbb@@V<lambda_2764dc2231b3bfb2b26de9434b902a3c>@@$$CBVauto_partitioner@234@@123@AEBUexecution_data@123@@Z
	??$check_being_stolen@U?$start_for@V?$blocked_range@PEA_K@d1@detail@tbb@@V<lambda_7c11afd42849bd32ee6b867925cb3ab3>@@$$CBVauto_partitioner@234@@d1@detail@tbb@@@?$dynamic_grainsize_mode@U?$adaptive_mode@Vauto_partition_type@d1@detail@tbb@@@d1@detail@tbb@@@d1@detail@tbb@@QEAA_NAEAU?$start_for@V?$blocked_range@PEA_K@d1@detail@tbb@@V<lambda_7c11afd42849bd32ee6b867925cb3ab3>@@$$CBVauto_partitioner@234@@123@AEBUexecution_data@123@@Z
	??$check_being_stolen@U?$start_for@V?$blocked_range@PEA_N@d1@detail@tbb@@V<lambda_0bdef824febffa99a1b8265514128764>@@$$CBVauto_partitioner@234@@d1@detail@tbb@@@?$dynamic_grainsize_mode@U?$adaptive_mode@Vauto_partition_type@d1@detail@tbb@@@d1@detail@tbb@@@d1@detail@tbb@@QEAA_NAEAU?$start_for@V?$blocked_range@PEA_N@d1@detail@tbb@@V<lambda_0bdef824febffa99a1b8265514128764>@@$$CBVauto_partitioner@234@@123@AEBUexecution_data@123@@Z
	??$check_being_stolen@U?$start_for@V?$blocked_range@U?$CountingIterator@_K@manifold@@@d1@detail@tbb@@V<lambda_02dc4021b47f890e4339536daea4e2ea>@@$$CBVauto_partitioner@234@@d1@detail@tbb@@@?$dynamic_grainsize_mode@U?$adaptive_mode@Vauto_partition_type@d1@detail@tbb@@@d1@detail@tbb@@@d1@detail@tbb@@QEAA_NAEAU?$start_for@V?$blocked_range@U?$CountingIterator@_K@manifold@@@d1@detail@tbb@@V<lambda_02dc4021b47f890e4339536daea4e2ea>@@$$CBVauto_partitioner@234@@123@AEBUexecution_data@123@@Z
	??$check_being_stolen@U?$start_for@V?$blocked_range@U?$CountingIterator@_K@manifold@@@d1@detail@tbb@@V<lambda_125395722cd87c64d27ded1c3ab4c003>@@$$CBVauto_partitioner@234@@d1@detail@tbb@@@?$dynamic_grainsize_mode@U?$adaptive_mode@Vauto_partition_type@d1@detail@tbb@@@d1@detail@tbb@@@d1@detail@tbb@@QEAA_NAEAU?$start_for@V?$blocked_range@U?$CountingIterator@_K@manifold@@@d1@detail@tbb@@V<lambda_125395722cd87c64d27ded1c3ab4c003>@@$$CBVauto_partitioner@234@@123@AEBUexecution_data@123@@Z
	??$check_being_stolen@U?$start_for@V?$blocked_range@U?$CountingIterator@_K@manifold@@@d1@detail@tbb@@V<lambda_1956f3c9293dc6d188bf97bfdeab53ed>@@$$CBVauto_partitioner@234@@d1@detail@tbb@@@?$dynamic_grainsize_mode@U?$adaptive_mode@Vauto_partition_type@d1@detail@tbb@@@d1@detail@tbb@@@d1@detail@tbb@@QEAA_NAEAU?$start_for@V?$blocked_range@U?$CountingIterator@_K@manifold@@@d1@detail@tbb@@V<lambda_1956f3c9293dc6d188bf97bfdeab53ed>@@$$CBVauto_partitioner@234@@123@AEBUexecution_data@123@@Z
	??$check_being_stolen@U?$start_for@V?$blocked_range@U?$CountingIterator@_K@manifold@@@d1@detail@tbb@@V<lambda_1e9adf9048cd241e89e58bbd0f247b09>@@$$CBVauto_partitioner@234@@d1@detail@tbb@@@?$dynamic_grainsize_mode@U?$adaptive_mode@Vauto_partition_type@d1@detail@tbb@@@d1@detail@tbb@@@d1@detail@tbb@@QEAA_NAEAU?$start_for@V?$blocked_range@U?$CountingIterator@_K@manifold@@@d1@detail@tbb@@V<lambda_1e9adf9048cd241e89e58bbd0f247b09>@@$$CBVauto_partitioner@234@@123@AEBUexecution_data@123@@Z
	??$check_being_stolen@U?$start_for@V?$blocked_range@U?$CountingIterator@_K@manifold@@@d1@detail@tbb@@V<lambda_26d504527354b7114cdfe56beddf2178>@@$$CBVauto_partitioner@234@@d1@detail@tbb@@@?$dynamic_grainsize_mode@U?$adaptive_mode@Vauto_partition_type@d1@detail@tbb@@@d1@detail@tbb@@@d1@detail@tbb@@QEAA_NAEAU?$start_for@V?$blocked_range@U?$CountingIterator@_K@manifold@@@d1@detail@tbb@@V<lambda_26d504527354b7114cdfe56beddf2178>@@$$CBVauto_partitioner@234@@123@AEBUexecution_data@123@@Z
	??$check_being_stolen@U?$start_for@V?$blocked_range@U?$CountingIterator@_K@manifold@@@d1@detail@tbb@@V<lambda_27db5046e7932e3dbada70de608fd096>@@$$CBVauto_partitioner@234@@d1@detail@tbb@@@?$dynamic_grainsize_mode@U?$adaptive_mode@Vauto_partition_type@d1@detail@tbb@@@d1@detail@tbb@@@d1@detail@tbb@@QEAA_NAEAU?$start_for@V?$blocked_range@U?$CountingIterator@_K@manifold@@@d1@detail@tbb@@V<lambda_27db5046e7932e3dbada70de608fd096>@@$$CBVauto_partitioner@234@@123@AEBUexecution_data@123@@Z
	??$check_being_stolen@U?$start_for@V?$blocked_range@U?$CountingIterator@_K@manifold@@@d1@detail@tbb@@V<lambda_29f1866b8f287452ff90a23a0252edd9>@@$$CBVauto_partitioner@234@@d1@detail@tbb@@@?$dynamic_grainsize_mode@U?$adaptive_mode@Vauto_partition_type@d1@detail@tbb@@@d1@detail@tbb@@@d1@detail@tbb@@QEAA_NAEAU?$start_for@V?$blocked_range@U?$CountingIterator@_K@manifold@@@d1@detail@tbb@@V<lambda_29f1866b8f287452ff90a23a0252edd9>@@$$CBVauto_partitioner@234@@123@AEBUexecution_data@123@@Z
	??$check_being_stolen@U?$start_for@V?$blocked_range@U?$CountingIterator@_K@manifold@@@d1@detail@tbb@@V<lambda_2cd0ea27e88ac2e9c5e2ad6664d98df1>@@$$CBVauto_partitioner@234@@d1@detail@tbb@@@?$dynamic_grainsize_mode@U?$adaptive_mode@Vauto_partition_type@d1@detail@tbb@@@d1@detail@tbb@@@d1@detail@tbb@@QEAA_NAEAU?$start_for@V?$blocked_range@U?$CountingIterator@_K@manifold@@@d1@detail@tbb@@V<lambda_2cd0ea27e88ac2e9c5e2ad6664d98df1>@@$$CBVauto_partitioner@234@@123@AEBUexecution_data@123@@Z
	??$check_being_stolen@U?$start_for@V?$blocked_range@U?$CountingIterator@_K@manifold@@@d1@detail@tbb@@V<lambda_2daf603a677dabb13dc391e4046b315a>@@$$CBVauto_partitioner@234@@d1@detail@tbb@@@?$dynamic_grainsize_mode@U?$adaptive_mode@Vauto_partition_type@d1@detail@tbb@@@d1@detail@tbb@@@d1@detail@tbb@@QEAA_NAEAU?$start_for@V?$blocked_range@U?$CountingIterator@_K@manifold@@@d1@detail@tbb@@V<lambda_2daf603a677dabb13dc391e4046b315a>@@$$CBVauto_partitioner@234@@123@AEBUexecution_data@123@@Z
	??$check_being_stolen@U?$start_for@V?$blocked_range@U?$CountingIterator@_K@manifold@@@d1@detail@tbb@@V<lambda_3f9f3dbeef3d29af65db1e28354a7aa4>@@$$CBVauto_partitioner@234@@d1@detail@tbb@@@?$dynamic_grainsize_mode@U?$adaptive_mode@Vauto_partition_type@d1@detail@tbb@@@d1@detail@tbb@@@d1@detail@tbb@@QEAA_NAEAU?$start_for@V?$blocked_range@U?$CountingIterator@_K@manifold@@@d1@detail@tbb@@V<lambda_3f9f3dbeef3d29af65db1e28354a7aa4>@@$$CBVauto_partitioner@234@@123@AEBUexecution_data@123@@Z
	??$check_being_stolen@U?$start_for@V?$blocked_range@U?$CountingIterator@_K@manifold@@@d1@detail@tbb@@V<lambda_4d78262fb9bb70ea4fa831a94ffef145>@@$$CBVauto_partitioner@234@@d1@detail@tbb@@@?$dynamic_grainsize_mode@U?$adaptive_mode@Vauto_partition_type@d1@detail@tbb@@@d1@detail@tbb@@@d1@detail@tbb@@QEAA_NAEAU?$start_for@V?$blocked_range@U?$CountingIterator@_K@manifold@@@d1@detail@tbb@@V<lambda_4d78262fb9bb70ea4fa831a94ffef145>@@$$CBVauto_partitioner@234@@123@AEBUexecution_data@123@@Z
	??$check_being_stolen@U?$start_for@V?$blocked_range@U?$CountingIterator@_K@manifold@@@d1@detail@tbb@@V<lambda_506f0b934a600660933fc1862c825f02>@@$$CBVauto_partitioner@234@@d1@detail@tbb@@@?$dynamic_grainsize_mode@U?$adaptive_mode@Vauto_partition_type@d1@detail@tbb@@@d1@detail@tbb@@@d1@detail@tbb@@QEAA_NAEAU?$start_for@V?$blocked_range@U?$CountingIterator@_K@manifold@@@d1@detail@tbb@@V<lambda_506f0b934a600660933fc1862c825f02>@@$$CBVauto_partitioner@234@@123@AEBUexecution_data@123@@Z
	??$check_being_stolen@U?$start_for@V?$blocked_range@U?$CountingIterator@_K@manifold@@@d1@detail@tbb@@V<lambda_521749c93a96c6436d07fd36b74bbab8>@@$$CBVauto_partitioner@234@@d1@detail@tbb@@@?$dynamic_grainsize_mode@U?$adaptive_mode@Vauto_partition_type@d1@detail@tbb@@@d1@detail@tbb@@@d1@detail@tbb@@QEAA_NAEAU?$start_for@V?$blocked_range@U?$CountingIterator@_K@manifold@@@d1@detail@tbb@@V<lambda_521749c93a96c6436d07fd36b74bbab8>@@$$CBVauto_partitioner@234@@123@AEBUexecution_data@123@@Z
	??$check_being_stolen@U?$start_for@V?$blocked_range@U?$CountingIterator@_K@manifold@@@d1@detail@tbb@@V<lambda_63da45c9d74e932208bb009736d1b485>@@$$CBVauto_partitioner@234@@d1@detail@tbb@@@?$dynamic_grainsize_mode@U?$adaptive_mode@Vauto_partition_type@d1@detail@tbb@@@d1@detail@tbb@@@d1@detail@tbb@@QEAA_NAEAU?$start_for@V?$blocked_range@U?$CountingIterator@_K@manifold@@@d1@detail@tbb@@V<lambda_63da45c9d74e932208bb009736d1b485>@@$$CBVauto_partitioner@234@@123@AEBUexecution_data@123@@Z
	??$check_being_stolen@U?$start_for@V?$blocked_range@U?$CountingIterator@_K@manifold@@@d1@detail@tbb@@V<lambda_6ccdfb7e6dff4e8edb19856de089cf21>@@$$CBVauto_partitioner@234@@d1@detail@tbb@@@?$dynamic_grainsize_mode@U?$adaptive_mode@Vauto_partition_type@d1@detail@tbb@@@d1@detail@tbb@@@d1@detail@tbb@@QEAA_NAEAU?$start_for@V?$blocked_range@U?$CountingIterator@_K@manifold@@@d1@detail@tbb@@V<lambda_6ccdfb7e6dff4e8edb19856de089cf21>@@$$CBVauto_partitioner@234@@123@AEBUexecution_data@123@@Z
	??$check_being_stolen@U?$start_for@V?$blocked_range@U?$CountingIterator@_K@manifold@@@d1@detail@tbb@@V<lambda_780a3844230d1dc8481661a1830dc147>@@$$CBVauto_partitioner@234@@d1@detail@tbb@@@?$dynamic_grainsize_mode@U?$adaptive_mode@Vauto_partition_type@d1@detail@tbb@@@d1@detail@tbb@@@d1@detail@tbb@@QEAA_NAEAU?$start_for@V?$blocked_range@U?$CountingIterator@_K@manifold@@@d1@detail@tbb@@V<lambda_780a3844230d1dc8481661a1830dc147>@@$$CBVauto_partitioner@234@@123@AEBUexecution_data@123@@Z
	??$check_being_stolen@U?$start_for@V?$blocked_range@U?$CountingIterator@_K@manifold@@@d1@detail@tbb@@V<lambda_783a3fe3c5efa311c27c14ac40e01e03>@@$$CBVauto_partitioner@234@@d1@detail@tbb@@@?$dynamic_grainsize_mode@U?$adaptive_mode@Vauto_partition_type@d1@detail@tbb@@@d1@detail@tbb@@@d1@detail@tbb@@QEAA_NAEAU?$start_for@V?$blocked_range@U?$CountingIterator@_K@manifold@@@d1@detail@tbb@@V<lambda_783a3fe3c5efa311c27c14ac40e01e03>@@$$CBVauto_partitioner@234@@123@AEBUexecution_data@123@@Z
	??$check_being_stolen@U?$start_for@V?$blocked_range@U?$CountingIterator@_K@manifold@@@d1@detail@tbb@@V<lambda_7cff2e5c2a465897ae733acbfff853fd>@@$$CBVauto_partitioner@234@@d1@detail@tbb@@@?$dynamic_grainsize_mode@U?$adaptive_mode@Vauto_partition_type@d1@detail@tbb@@@d1@detail@tbb@@@d1@detail@tbb@@QEAA_NAEAU?$start_for@V?$blocked_range@U?$CountingIterator@_K@manifold@@@d1@detail@tbb@@V<lambda_7cff2e5c2a465897ae733acbfff853fd>@@$$CBVauto_partitioner@234@@123@AEBUexecution_data@123@@Z
	??$check_being_stolen@U?$start_for@V?$blocked_range@U?$CountingIterator@_K@manifold@@@d1@detail@tbb@@V<lambda_7f9eca30be8c6242d9cf5c6758733a69>@@$$CBVauto_partitioner@234@@d1@detail@tbb@@@?$dynamic_grainsize_mode@U?$adaptive_mode@Vauto_partition_type@d1@detail@tbb@@@d1@detail@tbb@@@d1@detail@tbb@@QEAA_NAEAU?$start_for@V?$blocked_range@U?$CountingIterator@_K@manifold@@@d1@detail@tbb@@V<lambda_7f9eca30be8c6242d9cf5c6758733a69>@@$$CBVauto_partitioner@234@@123@AEBUexecution_data@123@@Z
	??$check_being_stolen@U?$start_for@V?$blocked_range@U?$CountingIterator@_K@manifold@@@d1@detail@tbb@@V<lambda_9126d938adfe72b43d3fb711e32fec58>@@$$CBVauto_partitioner@234@@d1@detail@tbb@@@?$dynamic_grainsize_mode@U?$adaptive_mode@Vauto_partition_type@d1@detail@tbb@@@d1@detail@tbb@@@d1@detail@tbb@@QEAA_NAEAU?$start_for@V?$blocked_range@U?$CountingIterator@_K@manifold@@@d1@detail@tbb@@V<lambda_9126d938adfe72b43d3fb711e32fec58>@@$$CBVauto_partitioner@234@@123@AEBUexecution_data@123@@Z
	??$check_being_stolen@U?$start_for@V?$blocked_range@U?$CountingIterator@_K@manifold@@@d1@detail@tbb@@V<lambda_92e66cac9d1178a2b8523200e0fabdd2>@@$$CBVauto_partitioner@234@@d1@detail@tbb@@@?$dynamic_grainsize_mode@U?$adaptive_mode@Vauto_partition_type@d1@detail@tbb@@@d1@detail@tbb@@@d1@detail@tbb@@QEAA_NAEAU?$start_for@V?$blocked_range@U?$CountingIterator@_K@manifold@@@d1@detail@tbb@@V<lambda_92e66cac9d1178a2b8523200e0fabdd2>@@$$CBVauto_partitioner@234@@123@AEBUexecution_data@123@@Z
	??$check_being_stolen@U?$start_for@V?$blocked_range@U?$CountingIterator@_K@manifold@@@d1@detail@tbb@@V<lambda_9575f5f0cae48ec85373a7fe1fcbfa72>@@$$CBVauto_partitioner@234@@d1@detail@tbb@@@?$dynamic_grainsize_mode@U?$adaptive_mode@Vauto_partition_type@d1@detail@tbb@@@d1@detail@tbb@@@d1@detail@tbb@@QEAA_NAEAU?$start_for@V?$blocked_range@U?$CountingIterator@_K@manifold@@@d1@detail@tbb@@V<lambda_9575f5f0cae48ec85373a7fe1fcbfa72>@@$$CBVauto_partitioner@234@@123@AEBUexecution_data@123@@Z
	??$check_being_stolen@U?$start_for@V?$blocked_range@U?$CountingIterator@_K@manifold@@@d1@detail@tbb@@V<lambda_bc749e62b33a04bf20a9f89018c24ad9>@@$$CBVauto_partitioner@234@@d1@detail@tbb@@@?$dynamic_grainsize_mode@U?$adaptive_mode@Vauto_partition_type@d1@detail@tbb@@@d1@detail@tbb@@@d1@detail@tbb@@QEAA_NAEAU?$start_for@V?$blocked_range@U?$CountingIterator@_K@manifold@@@d1@detail@tbb@@V<lambda_bc749e62b33a04bf20a9f89018c24ad9>@@$$CBVauto_partitioner@234@@123@AEBUexecution_data@123@@Z
	??$check_being_stolen@U?$start_for@V?$blocked_range@U?$CountingIterator@_K@manifold@@@d1@detail@tbb@@V<lambda_be6873c193848cc6e247d065b3b956d7>@@$$CBVauto_partitioner@234@@d1@detail@tbb@@@?$dynamic_grainsize_mode@U?$adaptive_mode@Vauto_partition_type@d1@detail@tbb@@@d1@detail@tbb@@@d1@detail@tbb@@QEAA_NAEAU?$start_for@V?$blocked_range@U?$CountingIterator@_K@manifold@@@d1@detail@tbb@@V<lambda_be6873c193848cc6e247d065b3b956d7>@@$$CBVauto_partitioner@234@@123@AEBUexecution_data@123@@Z
	??$check_being_stolen@U?$start_for@V?$blocked_range@U?$CountingIterator@_K@manifold@@@d1@detail@tbb@@V<lambda_c4d2a604a53dfe3c4acd8238ff486975>@@$$CBVauto_partitioner@234@@d1@detail@tbb@@@?$dynamic_grainsize_mode@U?$adaptive_mode@Vauto_partition_type@d1@detail@tbb@@@d1@detail@tbb@@@d1@detail@tbb@@QEAA_NAEAU?$start_for@V?$blocked_range@U?$CountingIterator@_K@manifold@@@d1@detail@tbb@@V<lambda_c4d2a604a53dfe3c4acd8238ff486975>@@$$CBVauto_partitioner@234@@123@AEBUexecution_data@123@@Z
	??$check_being_stolen@U?$start_for@V?$blocked_range@U?$CountingIterator@_K@manifold@@@d1@detail@tbb@@V<lambda_c500369bacae8e90d52452af9e0c5a5f>@@$$CBVauto_partitioner@234@@d1@detail@tbb@@@?$dynamic_grainsize_mode@U?$adaptive_mode@Vauto_partition_type@d1@detail@tbb@@@d1@detail@tbb@@@d1@detail@tbb@@QEAA_NAEAU?$start_for@V?$blocked_range@U?$CountingIterator@_K@manifold@@@d1@detail@tbb@@V<lambda_c500369bacae8e90d52452af9e0c5a5f>@@$$CBVauto_partitioner@234@@123@AEBUexecution_data@123@@Z
	??$check_being_stolen@U?$start_for@V?$blocked_range@U?$CountingIterator@_K@manifold@@@d1@detail@tbb@@V<lambda_cbc8108a9ae962306fcccb3ede9dfe7b>@@$$CBVauto_partitioner@234@@d1@detail@tbb@@@?$dynamic_grainsize_mode@U?$adaptive_mode@Vauto_partition_type@d1@detail@tbb@@@d1@detail@tbb@@@d1@detail@tbb@@QEAA_NAEAU?$start_for@V?$blocked_range@U?$CountingIterator@_K@manifold@@@d1@detail@tbb@@V<lambda_cbc8108a9ae962306fcccb3ede9dfe7b>@@$$CBVauto_partitioner@234@@123@AEBUexecution_data@123@@Z
	??$check_being_stolen@U?$start_for@V?$blocked_range@U?$CountingIterator@_K@manifold@@@d1@detail@tbb@@V<lambda_e0f95191e147729669e5502af0d8c78f>@@$$CBVauto_partitioner@234@@d1@detail@tbb@@@?$dynamic_grainsize_mode@U?$adaptive_mode@Vauto_partition_type@d1@detail@tbb@@@d1@detail@tbb@@@d1@detail@tbb@@QEAA_NAEAU?$start_for@V?$blocked_range@U?$CountingIterator@_K@manifold@@@d1@detail@tbb@@V<lambda_e0f95191e147729669e5502af0d8c78f>@@$$CBVauto_partitioner@234@@123@AEBUexecution_data@123@@Z
	??$check_being_stolen@U?$start_for@V?$blocked_range@U?$CountingIterator@_K@manifold@@@d1@detail@tbb@@V<lambda_e6ccefc8389025fdae3070ad6547df8b>@@$$CBVauto_partitioner@234@@d1@detail@tbb@@@?$dynamic_grainsize_mode@U?$adaptive_mode@Vauto_partition_type@d1@detail@tbb@@@d1@detail@tbb@@@d1@detail@tbb@@QEAA_NAEAU?$start_for@V?$blocked_range@U?$CountingIterator@_K@manifold@@@d1@detail@tbb@@V<lambda_e6ccefc8389025fdae3070ad6547df8b>@@$$CBVauto_partitioner@234@@123@AEBUexecution_data@123@@Z
	??$check_being_stolen@U?$start_for@V?$blocked_range@U?$CountingIterator@_K@manifold@@@d1@detail@tbb@@V<lambda_e9d4c16dd2ddde8e2352556dc7221143>@@$$CBVauto_partitioner@234@@d1@detail@tbb@@@?$dynamic_grainsize_mode@U?$adaptive_mode@Vauto_partition_type@d1@detail@tbb@@@d1@detail@tbb@@@d1@detail@tbb@@QEAA_NAEAU?$start_for@V?$blocked_range@U?$CountingIterator@_K@manifold@@@d1@detail@tbb@@V<lambda_e9d4c16dd2ddde8e2352556dc7221143>@@$$CBVauto_partitioner@234@@123@AEBUexecution_data@123@@Z
	??$check_being_stolen@U?$start_for@V?$blocked_range@U?$CountingIterator@_K@manifold@@@d1@detail@tbb@@V<lambda_eb78ce1719e35291698c7f0f9fb1de42>@@$$CBVauto_partitioner@234@@d1@detail@tbb@@@?$dynamic_grainsize_mode@U?$adaptive_mode@Vauto_partition_type@d1@detail@tbb@@@d1@detail@tbb@@@d1@detail@tbb@@QEAA_NAEAU?$start_for@V?$blocked_range@U?$CountingIterator@_K@manifold@@@d1@detail@tbb@@V<lambda_eb78ce1719e35291698c7f0f9fb1de42>@@$$CBVauto_partitioner@234@@123@AEBUexecution_data@123@@Z
	??$check_being_stolen@U?$start_for@V?$blocked_range@U?$CountingIterator@_K@manifold@@@d1@detail@tbb@@V<lambda_ed823f9406acb25c9c1e9beef7ffd72e>@@$$CBVauto_partitioner@234@@d1@detail@tbb@@@?$dynamic_grainsize_mode@U?$adaptive_mode@Vauto_partition_type@d1@detail@tbb@@@d1@detail@tbb@@@d1@detail@tbb@@QEAA_NAEAU?$start_for@V?$blocked_range@U?$CountingIterator@_K@manifold@@@d1@detail@tbb@@V<lambda_ed823f9406acb25c9c1e9beef7ffd72e>@@$$CBVauto_partitioner@234@@123@AEBUexecution_data@123@@Z
	??$check_being_stolen@U?$start_for@V?$blocked_range@U?$CountingIterator@_K@manifold@@@d1@detail@tbb@@V<lambda_f6d20b7269383540cbe04483b9eb90fa>@@$$CBVauto_partitioner@234@@d1@detail@tbb@@@?$dynamic_grainsize_mode@U?$adaptive_mode@Vauto_partition_type@d1@detail@tbb@@@d1@detail@tbb@@@d1@detail@tbb@@QEAA_NAEAU?$start_for@V?$blocked_range@U?$CountingIterator@_K@manifold@@@d1@detail@tbb@@V<lambda_f6d20b7269383540cbe04483b9eb90fa>@@$$CBVauto_partitioner@234@@123@AEBUexecution_data@123@@Z
	??$check_being_stolen@U?$start_for@V?$blocked_range@U?$CountingIterator@_K@manifold@@@d1@detail@tbb@@V<lambda_fd0eb947c4292ddc7c05e12e85dc0560>@@$$CBVauto_partitioner@234@@d1@detail@tbb@@@?$dynamic_grainsize_mode@U?$adaptive_mode@Vauto_partition_type@d1@detail@tbb@@@d1@detail@tbb@@@d1@detail@tbb@@QEAA_NAEAU?$start_for@V?$blocked_range@U?$CountingIterator@_K@manifold@@@d1@detail@tbb@@V<lambda_fd0eb947c4292ddc7c05e12e85dc0560>@@$$CBVauto_partitioner@234@@123@AEBUexecution_data@123@@Z
	??$check_being_stolen@U?$start_for@V?$blocked_range@_K@d1@detail@tbb@@V<lambda_03fb884a4cd862991adc5f74fb847a05>@@$$CBVauto_partitioner@234@@d1@detail@tbb@@@?$dynamic_grainsize_mode@U?$adaptive_mode@Vauto_partition_type@d1@detail@tbb@@@d1@detail@tbb@@@d1@detail@tbb@@QEAA_NAEAU?$start_for@V?$blocked_range@_K@d1@detail@tbb@@V<lambda_03fb884a4cd862991adc5f74fb847a05>@@$$CBVauto_partitioner@234@@123@AEBUexecution_data@123@@Z
	??$check_being_stolen@U?$start_for@V?$blocked_range@_K@d1@detail@tbb@@V<lambda_11b10d549c18cb6f5807ee78b48dc7bd>@@$$CBVauto_partitioner@234@@d1@detail@tbb@@@?$dynamic_grainsize_mode@U?$adaptive_mode@Vauto_partition_type@d1@detail@tbb@@@d1@detail@tbb@@@d1@detail@tbb@@QEAA_NAEAU?$start_for@V?$blocked_range@_K@d1@detail@tbb@@V<lambda_11b10d549c18cb6f5807ee78b48dc7bd>@@$$CBVauto_partitioner@234@@123@AEBUexecution_data@123@@Z
	??$check_being_stolen@U?$start_for@V?$blocked_range@_K@d1@detail@tbb@@V<lambda_16b5223be46195286e2e8405f732d4b5>@@$$CBVauto_partitioner@234@@d1@detail@tbb@@@?$dynamic_grainsize_mode@U?$adaptive_mode@Vauto_partition_type@d1@detail@tbb@@@d1@detail@tbb@@@d1@detail@tbb@@QEAA_NAEAU?$start_for@V?$blocked_range@_K@d1@detail@tbb@@V<lambda_16b5223be46195286e2e8405f732d4b5>@@$$CBVauto_partitioner@234@@123@AEBUexecution_data@123@@Z
	??$check_being_stolen@U?$start_for@V?$blocked_range@_K@d1@detail@tbb@@V<lambda_2028fcf9990d21ed7bffc3cba0404ce0>@@$$CBVauto_partitioner@234@@d1@detail@tbb@@@?$dynamic_grainsize_mode@U?$adaptive_mode@Vauto_partition_type@d1@detail@tbb@@@d1@detail@tbb@@@d1@detail@tbb@@QEAA_NAEAU?$start_for@V?$blocked_range@_K@d1@detail@tbb@@V<lambda_2028fcf9990d21ed7bffc3cba0404ce0>@@$$CBVauto_partitioner@234@@123@AEBUexecution_data@123@@Z
	??$check_being_stolen@U?$start_for@V?$blocked_range@_K@d1@detail@tbb@@V<lambda_23aea90e25cc54a4a61e14d1812e73f1>@@$$CBVauto_partitioner@234@@d1@detail@tbb@@@?$dynamic_grainsize_mode@U?$adaptive_mode@Vauto_partition_type@d1@detail@tbb@@@d1@detail@tbb@@@d1@detail@tbb@@QEAA_NAEAU?$start_for@V?$blocked_range@_K@d1@detail@tbb@@V<lambda_23aea90e25cc54a4a61e14d1812e73f1>@@$$CBVauto_partitioner@234@@123@AEBUexecution_data@123@@Z
	??$check_being_stolen@U?$start_for@V?$blocked_range@_K@d1@detail@tbb@@V<lambda_2596da0e62de8e522dfd94f3c01ad496>@@$$CBVauto_partitioner@234@@d1@detail@tbb@@@?$dynamic_grainsize_mode@U?$adaptive_mode@Vauto_partition_type@d1@detail@tbb@@@d1@detail@tbb@@@d1@detail@tbb@@QEAA_NAEAU?$start_for@V?$blocked_range@_K@d1@detail@tbb@@V<lambda_2596da0e62de8e522dfd94f3c01ad496>@@$$CBVauto_partitioner@234@@123@AEBUexecution_data@123@@Z
	??$check_being_stolen@U?$start_for@V?$blocked_range@_K@d1@detail@tbb@@V<lambda_26f1855a7dd848bca9cb6ca2551d675b>@@$$CBVauto_partitioner@234@@d1@detail@tbb@@@?$dynamic_grainsize_mode@U?$adaptive_mode@Vauto_partition_type@d1@detail@tbb@@@d1@detail@tbb@@@d1@detail@tbb@@QEAA_NAEAU?$start_for@V?$blocked_range@_K@d1@detail@tbb@@V<lambda_26f1855a7dd848bca9cb6ca2551d675b>@@$$CBVauto_partitioner@234@@123@AEBUexecution_data@123@@Z
	??$check_being_stolen@U?$start_for@V?$blocked_range@_K@d1@detail@tbb@@V<lambda_2b54008fd670a063f1c547b58f1ed842>@@$$CBVauto_partitioner@234@@d1@detail@tbb@@@?$dynamic_grainsize_mode@U?$adaptive_mode@Vauto_partition_type@d1@detail@tbb@@@d1@detail@tbb@@@d1@detail@tbb@@QEAA_NAEAU?$start_for@V?$blocked_range@_K@d1@detail@tbb@@V<lambda_2b54008fd670a063f1c547b58f1ed842>@@$$CBVauto_partitioner@234@@123@AEBUexecution_data@123@@Z
	??$check_being_stolen@U?$start_for@V?$blocked_range@_K@d1@detail@tbb@@V<lambda_46c595594061512c0c3ea99d0c6996f4>@@$$CBVauto_partitioner@234@@d1@detail@tbb@@@?$dynamic_grainsize_mode@U?$adaptive_mode@Vauto_partition_type@d1@detail@tbb@@@d1@detail@tbb@@@d1@detail@tbb@@QEAA_NAEAU?$start_for@V?$blocked_range@_K@d1@detail@tbb@@V<lambda_46c595594061512c0c3ea99d0c6996f4>@@$$CBVauto_partitioner@234@@123@AEBUexecution_data@123@@Z
	??$check_being_stolen@U?$start_for@V?$blocked_range@_K@d1@detail@tbb@@V<lambda_4fe243d2ac3a58c8cc3c365283b19d0a>@@$$CBVauto_partitioner@234@@d1@detail@tbb@@@?$dynamic_grainsize_mode@U?$adaptive_mode@Vauto_partition_type@d1@detail@tbb@@@d1@detail@tbb@@@d1@detail@tbb@@QEAA_NAEAU?$start_for@V?$blocked_range@_K@d1@detail@tbb@@V<lambda_4fe243d2ac3a58c8cc3c365283b19d0a>@@$$CBVauto_partitioner@234@@123@AEBUexecution_data@123@@Z
	??$check_being_stolen@U?$start_for@V?$blocked_range@_K@d1@detail@tbb@@V<lambda_5191551fa434103989ffbd56a46de547>@@$$CBVauto_partitioner@234@@d1@detail@tbb@@@?$dynamic_grainsize_mode@U?$adaptive_mode@Vauto_partition_type@d1@detail@tbb@@@d1@detail@tbb@@@d1@detail@tbb@@QEAA_NAEAU?$start_for@V?$blocked_range@_K@d1@detail@tbb@@V<lambda_5191551fa434103989ffbd56a46de547>@@$$CBVauto_partitioner@234@@123@AEBUexecution_data@123@@Z
	??$check_being_stolen@U?$start_for@V?$blocked_range@_K@d1@detail@tbb@@V<lambda_54c6a0e62c947039ea7ce7a79db9f988>@@$$CBVauto_partitioner@234@@d1@detail@tbb@@@?$dynamic_grainsize_mode@U?$adaptive_mode@Vauto_partition_type@d1@detail@tbb@@@d1@detail@tbb@@@d1@detail@tbb@@QEAA_NAEAU?$start_for@V?$blocked_range@_K@d1@detail@tbb@@V<lambda_54c6a0e62c947039ea7ce7a79db9f988>@@$$CBVauto_partitioner@234@@123@AEBUexecution_data@123@@Z
	??$check_being_stolen@U?$start_for@V?$blocked_range@_K@d1@detail@tbb@@V<lambda_55b7c4dcea7a3902f163245f32772ee8>@@$$CBVauto_partitioner@234@@d1@detail@tbb@@@?$dynamic_grainsize_mode@U?$adaptive_mode@Vauto_partition_type@d1@detail@tbb@@@d1@detail@tbb@@@d1@detail@tbb@@QEAA_NAEAU?$start_for@V?$blocked_range@_K@d1@detail@tbb@@V<lambda_55b7c4dcea7a3902f163245f32772ee8>@@$$CBVauto_partitioner@234@@123@AEBUexecution_data@123@@Z
	??$check_being_stolen@U?$start_for@V?$blocked_range@_K@d1@detail@tbb@@V<lambda_5ae50f2b451ce4a833235d87834aee37>@@$$CBVauto_partitioner@234@@d1@detail@tbb@@@?$dynamic_grainsize_mode@U?$adaptive_mode@Vauto_partition_type@d1@detail@tbb@@@d1@detail@tbb@@@d1@detail@tbb@@QEAA_NAEAU?$start_for@V?$blocked_range@_K@d1@detail@tbb@@V<lambda_5ae50f2b451ce4a833235d87834aee37>@@$$CBVauto_partitioner@234@@123@AEBUexecution_data@123@@Z
	??$check_being_stolen@U?$start_for@V?$blocked_range@_K@d1@detail@tbb@@V<lambda_5e980b7c07f1b28fb8e6a4f60c41d4ff>@@$$CBVauto_partitioner@234@@d1@detail@tbb@@@?$dynamic_grainsize_mode@U?$adaptive_mode@Vauto_partition_type@d1@detail@tbb@@@d1@detail@tbb@@@d1@detail@tbb@@QEAA_NAEAU?$start_for@V?$blocked_range@_K@d1@detail@tbb@@V<lambda_5e980b7c07f1b28fb8e6a4f60c41d4ff>@@$$CBVauto_partitioner@234@@123@AEBUexecution_data@123@@Z
	??$check_being_stolen@U?$start_for@V?$blocked_range@_K@d1@detail@tbb@@V<lambda_6b2095684ba54e50cdef01136ee8be0a>@@$$CBVauto_partitioner@234@@d1@detail@tbb@@@?$dynamic_grainsize_mode@U?$adaptive_mode@Vauto_partition_type@d1@detail@tbb@@@d1@detail@tbb@@@d1@detail@tbb@@QEAA_NAEAU?$start_for@V?$blocked_range@_K@d1@detail@tbb@@V<lambda_6b2095684ba54e50cdef01136ee8be0a>@@$$CBVauto_partitioner@234@@123@AEBUexecution_data@123@@Z
	??$check_being_stolen@U?$start_for@V?$blocked_range@_K@d1@detail@tbb@@V<lambda_6d64c9e8c7ac1bbeff75af7b660c5275>@@$$CBVauto_partitioner@234@@d1@detail@tbb@@@?$dynamic_grainsize_mode@U?$adaptive_mode@Vauto_partition_type@d1@detail@tbb@@@d1@detail@tbb@@@d1@detail@tbb@@QEAA_NAEAU?$start_for@V?$blocked_range@_K@d1@detail@tbb@@V<lambda_6d64c9e8c7ac1bbeff75af7b660c5275>@@$$CBVauto_partitioner@234@@123@AEBUexecution_data@123@@Z
	??$check_being_stolen@U?$start_for@V?$blocked_range@_K@d1@detail@tbb@@V<lambda_6e3e7d463341b46cb937fa7953520ac6>@@$$CBVauto_partitioner@234@@d1@detail@tbb@@@?$dynamic_grainsize_mode@U?$adaptive_mode@Vauto_partition_type@d1@detail@tbb@@@d1@detail@tbb@@@d1@detail@tbb@@QEAA_NAEAU?$start_for@V?$blocked_range@_K@d1@detail@tbb@@V<lambda_6e3e7d463341b46cb937fa7953520ac6>@@$$CBVauto_partitioner@234@@123@AEBUexecution_data@123@@Z
	??$check_being_stolen@U?$start_for@V?$blocked_range@_K@d1@detail@tbb@@V<lambda_81f818a6d773c7c34605d06f5b6a2793>@@$$CBVauto_partitioner@234@@d1@detail@tbb@@@?$dynamic_grainsize_mode@U?$adaptive_mode@Vauto_partition_type@d1@detail@tbb@@@d1@detail@tbb@@@d1@detail@tbb@@QEAA_NAEAU?$start_for@V?$blocked_range@_K@d1@detail@tbb@@V<lambda_81f818a6d773c7c34605d06f5b6a2793>@@$$CBVauto_partitioner@234@@123@AEBUexecution_data@123@@Z
	??$check_being_stolen@U?$start_for@V?$blocked_range@_K@d1@detail@tbb@@V<lambda_89e81f88a9ae10aeced00f3ca61a0458>@@$$CBVauto_partitioner@234@@d1@detail@tbb@@@?$dynamic_grainsize_mode@U?$adaptive_mode@Vauto_partition_type@d1@detail@tbb@@@d1@detail@tbb@@@d1@detail@tbb@@QEAA_NAEAU?$start_for@V?$blocked_range@_K@d1@detail@tbb@@V<lambda_89e81f88a9ae10aeced00f3ca61a0458>@@$$CBVauto_partitioner@234@@123@AEBUexecution_data@123@@Z
	??$check_being_stolen@U?$start_for@V?$blocked_range@_K@d1@detail@tbb@@V<lambda_98075f30228a2f77d099d86dc83106b5>@@$$CBVauto_partitioner@234@@d1@detail@tbb@@@?$dynamic_grainsize_mode@U?$adaptive_mode@Vauto_partition_type@d1@detail@tbb@@@d1@detail@tbb@@@d1@detail@tbb@@QEAA_NAEAU?$start_for@V?$blocked_range@_K@d1@detail@tbb@@V<lambda_98075f30228a2f77d099d86dc83106b5>@@$$CBVauto_partitioner@234@@123@AEBUexecution_data@123@@Z
	??$check_being_stolen@U?$start_for@V?$blocked_range@_K@d1@detail@tbb@@V<lambda_98381951680be79b2a69819a8c29dab0>@@$$CBVauto_partitioner@234@@d1@detail@tbb@@@?$dynamic_grainsize_mode@U?$adaptive_mode@Vauto_partition_type@d1@detail@tbb@@@d1@detail@tbb@@@d1@detail@tbb@@QEAA_NAEAU?$start_for@V?$blocked_range@_K@d1@detail@tbb@@V<lambda_98381951680be79b2a69819a8c29dab0>@@$$CBVauto_partitioner@234@@123@AEBUexecution_data@123@@Z
	??$check_being_stolen@U?$start_for@V?$blocked_range@_K@d1@detail@tbb@@V<lambda_9a4b9b95a691ab47a7180b1f1821cebb>@@$$CBVauto_partitioner@234@@d1@detail@tbb@@@?$dynamic_grainsize_mode@U?$adaptive_mode@Vauto_partition_type@d1@detail@tbb@@@d1@detail@tbb@@@d1@detail@tbb@@QEAA_NAEAU?$start_for@V?$blocked_range@_K@d1@detail@tbb@@V<lambda_9a4b9b95a691ab47a7180b1f1821cebb>@@$$CBVauto_partitioner@234@@123@AEBUexecution_data@123@@Z
	??$check_being_stolen@U?$start_for@V?$blocked_range@_K@d1@detail@tbb@@V<lambda_a0ae1ff2d5d9c5cac556e22fbfd4489c>@@$$CBVauto_partitioner@234@@d1@detail@tbb@@@?$dynamic_grainsize_mode@U?$adaptive_mode@Vauto_partition_type@d1@detail@tbb@@@d1@detail@tbb@@@d1@detail@tbb@@QEAA_NAEAU?$start_for@V?$blocked_range@_K@d1@detail@tbb@@V<lambda_a0ae1ff2d5d9c5cac556e22fbfd4489c>@@$$CBVauto_partitioner@234@@123@AEBUexecution_data@123@@Z
	??$check_being_stolen@U?$start_for@V?$blocked_range@_K@d1@detail@tbb@@V<lambda_a71979c87b6c294711a78ae3d13b1572>@@$$CBVauto_partitioner@234@@d1@detail@tbb@@@?$dynamic_grainsize_mode@U?$adaptive_mode@Vauto_partition_type@d1@detail@tbb@@@d1@detail@tbb@@@d1@detail@tbb@@QEAA_NAEAU?$start_for@V?$blocked_range@_K@d1@detail@tbb@@V<lambda_a71979c87b6c294711a78ae3d13b1572>@@$$CBVauto_partitioner@234@@123@AEBUexecution_data@123@@Z
	??$check_being_stolen@U?$start_for@V?$blocked_range@_K@d1@detail@tbb@@V<lambda_afd02db0a2147b3a58f0dfc9869ed237>@@$$CBVauto_partitioner@234@@d1@detail@tbb@@@?$dynamic_grainsize_mode@U?$adaptive_mode@Vauto_partition_type@d1@detail@tbb@@@d1@detail@tbb@@@d1@detail@tbb@@QEAA_NAEAU?$start_for@V?$blocked_range@_K@d1@detail@tbb@@V<lambda_afd02db0a2147b3a58f0dfc9869ed237>@@$$CBVauto_partitioner@234@@123@AEBUexecution_data@123@@Z
	??$check_being_stolen@U?$start_for@V?$blocked_range@_K@d1@detail@tbb@@V<lambda_b5cfbc6c772ee946f04adbc807d49f2f>@@$$CBVauto_partitioner@234@@d1@detail@tbb@@@?$dynamic_grainsize_mode@U?$adaptive_mode@Vauto_partition_type@d1@detail@tbb@@@d1@detail@tbb@@@d1@detail@tbb@@QEAA_NAEAU?$start_for@V?$blocked_range@_K@d1@detail@tbb@@V<lambda_b5cfbc6c772ee946f04adbc807d49f2f>@@$$CBVauto_partitioner@234@@123@AEBUexecution_data@123@@Z
	??$check_being_stolen@U?$start_for@V?$blocked_range@_K@d1@detail@tbb@@V<lambda_bd66f17d69b6a3fa46937ef45eef0dac>@@$$CBVauto_partitioner@234@@d1@detail@tbb@@@?$dynamic_grainsize_mode@U?$adaptive_mode@Vauto_partition_type@d1@detail@tbb@@@d1@detail@tbb@@@d1@detail@tbb@@QEAA_NAEAU?$start_for@V?$blocked_range@_K@d1@detail@tbb@@V<lambda_bd66f17d69b6a3fa46937ef45eef0dac>@@$$CBVauto_partitioner@234@@123@AEBUexecution_data@123@@Z
	??$check_being_stolen@U?$start_for@V?$blocked_range@_K@d1@detail@tbb@@V<lambda_c2c63180896229d7dd04f8aba5581d85>@@$$CBVauto_partitioner@234@@d1@detail@tbb@@@?$dynamic_grainsize_mode@U?$adaptive_mode@Vauto_partition_type@d1@detail@tbb@@@d1@detail@tbb@@@d1@detail@tbb@@QEAA_NAEAU?$start_for@V?$blocked_range@_K@d1@detail@tbb@@V<lambda_c2c63180896229d7dd04f8aba5581d85>@@$$CBVauto_partitioner@234@@123@AEBUexecution_data@123@@Z
	??$check_being_stolen@U?$start_for@V?$blocked_range@_K@d1@detail@tbb@@V<lambda_c3cac6f29c0ef45ccdb48a18f24fd6ab>@@$$CBVauto_partitioner@234@@d1@detail@tbb@@@?$dynamic_grainsize_mode@U?$adaptive_mode@Vauto_partition_type@d1@detail@tbb@@@d1@detail@tbb@@@d1@detail@tbb@@QEAA_NAEAU?$start_for@V?$blocked_range@_K@d1@detail@tbb@@V<lambda_c3cac6f29c0ef45ccdb48a18f24fd6ab>@@$$CBVauto_partitioner@234@@123@AEBUexecution_data@123@@Z
	??$check_being_stolen@U?$start_for@V?$blocked_range@_K@d1@detail@tbb@@V<lambda_cd4116d251a2c84c130b04d5b89c4083>@@$$CBVauto_partitioner@234@@d1@detail@tbb@@@?$dynamic_grainsize_mode@U?$adaptive_mode@Vauto_partition_type@d1@detail@tbb@@@d1@detail@tbb@@@d1@detail@tbb@@QEAA_NAEAU?$start_for@V?$blocked_range@_K@d1@detail@tbb@@V<lambda_cd4116d251a2c84c130b04d5b89c4083>@@$$CBVauto_partitioner@234@@123@AEBUexecution_data@123@@Z
	??$check_being_stolen@U?$start_for@V?$blocked_range@_K@d1@detail@tbb@@V<lambda_e1491ef019c5506a7d7701f7deba09de>@@$$CBVauto_partitioner@234@@d1@detail@tbb@@@?$dynamic_grainsize_mode@U?$adaptive_mode@Vauto_partition_type@d1@detail@tbb@@@d1@detail@tbb@@@d1@detail@tbb@@QEAA_NAEAU?$start_for@V?$blocked_range@_K@d1@detail@tbb@@V<lambda_e1491ef019c5506a7d7701f7deba09de>@@$$CBVauto_partitioner@234@@123@AEBUexecution_data@123@@Z
	??$check_being_stolen@U?$start_for@V?$blocked_range@_K@d1@detail@tbb@@V<lambda_e593b19c5b08a79fe55046e04800e3db>@@$$CBVauto_partitioner@234@@d1@detail@tbb@@@?$dynamic_grainsize_mode@U?$adaptive_mode@Vauto_partition_type@d1@detail@tbb@@@d1@detail@tbb@@@d1@detail@tbb@@QEAA_NAEAU?$start_for@V?$blocked_range@_K@d1@detail@tbb@@V<lambda_e593b19c5b08a79fe55046e04800e3db>@@$$CBVauto_partitioner@234@@123@AEBUexecution_data@123@@Z
	??$check_being_stolen@U?$start_for@V?$blocked_range@_K@d1@detail@tbb@@V<lambda_ebf7bcb4984ab947248b9aa0075fb9e0>@@$$CBVauto_partitioner@234@@d1@detail@tbb@@@?$dynamic_grainsize_mode@U?$adaptive_mode@Vauto_partition_type@d1@detail@tbb@@@d1@detail@tbb@@@d1@detail@tbb@@QEAA_NAEAU?$start_for@V?$blocked_range@_K@d1@detail@tbb@@V<lambda_ebf7bcb4984ab947248b9aa0075fb9e0>@@$$CBVauto_partitioner@234@@123@AEBUexecution_data@123@@Z
	??$check_being_stolen@U?$start_for@V?$blocked_range@_K@d1@detail@tbb@@V<lambda_edeaf69f9f53978458d813b9b4c071a4>@@$$CBVauto_partitioner@234@@d1@detail@tbb@@@?$dynamic_grainsize_mode@U?$adaptive_mode@Vauto_partition_type@d1@detail@tbb@@@d1@detail@tbb@@@d1@detail@tbb@@QEAA_NAEAU?$start_for@V?$blocked_range@_K@d1@detail@tbb@@V<lambda_edeaf69f9f53978458d813b9b4c071a4>@@$$CBVauto_partitioner@234@@123@AEBUexecution_data@123@@Z
	??$check_being_stolen@U?$start_for@V?$blocked_range@_K@d1@detail@tbb@@V<lambda_f53a955f9132fa7d20c11b141a1f56ae>@@$$CBVauto_partitioner@234@@d1@detail@tbb@@@?$dynamic_grainsize_mode@U?$adaptive_mode@Vauto_partition_type@d1@detail@tbb@@@d1@detail@tbb@@@d1@detail@tbb@@QEAA_NAEAU?$start_for@V?$blocked_range@_K@d1@detail@tbb@@V<lambda_f53a955f9132fa7d20c11b141a1f56ae>@@$$CBVauto_partitioner@234@@123@AEBUexecution_data@123@@Z
	??$check_being_stolen@U?$start_for@V?$blocked_range@_K@d1@detail@tbb@@V<lambda_f5b9d82fa8d71682793bdac43c7d37a5>@@$$CBVauto_partitioner@234@@d1@detail@tbb@@@?$dynamic_grainsize_mode@U?$adaptive_mode@Vauto_partition_type@d1@detail@tbb@@@d1@detail@tbb@@@d1@detail@tbb@@QEAA_NAEAU?$start_for@V?$blocked_range@_K@d1@detail@tbb@@V<lambda_f5b9d82fa8d71682793bdac43c7d37a5>@@$$CBVauto_partitioner@234@@123@AEBUexecution_data@123@@Z
	??$check_being_stolen@U?$start_for@V?$blocked_range@_K@d1@detail@tbb@@V<lambda_f6d95f579848c0db64d7108a6b4bb55b>@@$$CBVauto_partitioner@234@@d1@detail@tbb@@@?$dynamic_grainsize_mode@U?$adaptive_mode@Vauto_partition_type@d1@detail@tbb@@@d1@detail@tbb@@@d1@detail@tbb@@QEAA_NAEAU?$start_for@V?$blocked_range@_K@d1@detail@tbb@@V<lambda_f6d95f579848c0db64d7108a6b4bb55b>@@$$CBVauto_partitioner@234@@123@AEBUexecution_data@123@@Z
	??$check_being_stolen@U?$start_for@V?$blocked_range@_K@d1@detail@tbb@@V<lambda_f77dbcd751e2aed9cf96ded60b9aaaea>@@$$CBVauto_partitioner@234@@d1@detail@tbb@@@?$dynamic_grainsize_mode@U?$adaptive_mode@Vauto_partition_type@d1@detail@tbb@@@d1@detail@tbb@@@d1@detail@tbb@@QEAA_NAEAU?$start_for@V?$blocked_range@_K@d1@detail@tbb@@V<lambda_f77dbcd751e2aed9cf96ded60b9aaaea>@@$$CBVauto_partitioner@234@@123@AEBUexecution_data@123@@Z
	??$check_being_stolen@U?$start_reduce@V?$blocked_range@_K@d1@detail@tbb@@U?$SortedRange@_J_K@details@manifold@@$$CBVauto_partitioner@234@@d1@detail@tbb@@@?$dynamic_grainsize_mode@U?$adaptive_mode@Vauto_partition_type@d1@detail@tbb@@@d1@detail@tbb@@@d1@detail@tbb@@QEAA_NAEAU?$start_reduce@V?$blocked_range@_K@d1@detail@tbb@@U?$SortedRange@_J_K@details@manifold@@$$CBVauto_partitioner@234@@123@AEBUexecution_data@123@@Z
	??$check_for_demand@U?$start_for@V?$blocked_range@PEAD@d1@detail@tbb@@V<lambda_390e7650f5d708b0e84e59fd24728414>@@$$CBVauto_partitioner@234@@d1@detail@tbb@@@auto_partition_type@d1@detail@tbb@@QEAA_NAEAU?$start_for@V?$blocked_range@PEAD@d1@detail@tbb@@V<lambda_390e7650f5d708b0e84e59fd24728414>@@$$CBVauto_partitioner@234@@123@@Z
	??$check_for_demand@U?$start_for@V?$blocked_range@PEAE@d1@detail@tbb@@V<lambda_6b4fcd617dc3091fadf6e4783b22a839>@@$$CBVauto_partitioner@234@@d1@detail@tbb@@@auto_partition_type@d1@detail@tbb@@QEAA_NAEAU?$start_for@V?$blocked_range@PEAE@d1@detail@tbb@@V<lambda_6b4fcd617dc3091fadf6e4783b22a839>@@$$CBVauto_partitioner@234@@123@@Z
	??$check_for_demand@U?$start_for@V?$blocked_range@PEAH@d1@detail@tbb@@V<lambda_1c009478eeb148d97e9341582c6ebdef>@@$$CBVauto_partitioner@234@@d1@detail@tbb@@@auto_partition_type@d1@detail@tbb@@QEAA_NAEAU?$start_for@V?$blocked_range@PEAH@d1@detail@tbb@@V<lambda_1c009478eeb148d97e9341582c6ebdef>@@$$CBVauto_partitioner@234@@123@@Z
	??$check_for_demand@U?$start_for@V?$blocked_range@PEAI@d1@detail@tbb@@V<lambda_55bd6547379df8a8634d9ee152318fd0>@@$$CBVauto_partitioner@234@@d1@detail@tbb@@@auto_partition_type@d1@detail@tbb@@QEAA_NAEAU?$start_for@V?$blocked_range@PEAI@d1@detail@tbb@@V<lambda_55bd6547379df8a8634d9ee152318fd0>@@$$CBVauto_partitioner@234@@123@@Z
	??$check_for_demand@U?$start_for@V?$blocked_range@PEAN@d1@detail@tbb@@V<lambda_96b4ac76a702b60061fd6b4388172533>@@$$CBVauto_partitioner@234@@d1@detail@tbb@@@auto_partition_type@d1@detail@tbb@@QEAA_NAEAU?$start_for@V?$blocked_range@PEAN@d1@detail@tbb@@V<lambda_96b4ac76a702b60061fd6b4388172533>@@$$CBVauto_partitioner@234@@123@@Z
	??$check_for_demand@U?$start_for@V?$blocked_range@PEAU?$pair@HH@std@@@d1@detail@tbb@@V<lambda_cacf0e9b7eff79c3447974a54ad57622>@@$$CBVauto_partitioner@234@@d1@detail@tbb@@@auto_partition_type@d1@detail@tbb@@QEAA_NAEAU?$start_for@V?$blocked_range@PEAU?$pair@HH@std@@@d1@detail@tbb@@V<lambda_cacf0e9b7eff79c3447974a54ad57622>@@$$CBVauto_partitioner@234@@123@@Z
	??$check_for_demand@U?$start_for@V?$blocked_range@PEAU?$vec@H$02@linalg@@@d1@detail@tbb@@V<lambda_50c73d532b09eac601dfed511085ee3f>@@$$CBVauto_partitioner@234@@d1@detail@tbb@@@auto_partition_type@d1@detail@tbb@@QEAA_NAEAU?$start_for@V?$blocked_range@PEAU?$vec@H$02@linalg@@@d1@detail@tbb@@V<lambda_50c73d532b09eac601dfed511085ee3f>@@$$CBVauto_partitioner@234@@123@@Z
	??$check_for_demand@U?$start_for@V?$blocked_range@PEAU?$vec@N$02@linalg@@@d1@detail@tbb@@V<lambda_7aa2ab451ab11e4b32889fdc5782f714>@@$$CBVauto_partitioner@234@@d1@detail@tbb@@@auto_partition_type@d1@detail@tbb@@QEAA_NAEAU?$start_for@V?$blocked_range@PEAU?$vec@N$02@linalg@@@d1@detail@tbb@@V<lambda_7aa2ab451ab11e4b32889fdc5782f714>@@$$CBVauto_partitioner@234@@123@@Z
	??$check_for_demand@U?$start_for@V?$blocked_range@PEAU?$vec@N$02@linalg@@@d1@detail@tbb@@V<lambda_bf52f877fdec0d85ccd27fa3a28cde87>@@$$CBVauto_partitioner@234@@d1@detail@tbb@@@auto_partition_type@d1@detail@tbb@@QEAA_NAEAU?$start_for@V?$blocked_range@PEAU?$vec@N$02@linalg@@@d1@detail@tbb@@V<lambda_bf52f877fdec0d85ccd27fa3a28cde87>@@$$CBVauto_partitioner@234@@123@@Z
	??$check_for_demand@U?$start_for@V?$blocked_range@PEAU?$vec@N$03@linalg@@@d1@detail@tbb@@V<lambda_ac42147e527b84c1e18e82d2239b4e00>@@$$CBVauto_partitioner@234@@d1@detail@tbb@@@auto_partition_type@d1@detail@tbb@@QEAA_NAEAU?$start_for@V?$blocked_range@PEAU?$vec@N$03@linalg@@@d1@detail@tbb@@V<lambda_ac42147e527b84c1e18e82d2239b4e00>@@$$CBVauto_partitioner@234@@123@@Z
	??$check_for_demand@U?$start_for@V?$blocked_range@PEAUBarycentric@manifold@@@d1@detail@tbb@@V<lambda_5a1b5cf6847d2627f3fed7e4e384c5a5>@@$$CBVauto_partitioner@234@@d1@detail@tbb@@@auto_partition_type@d1@detail@tbb@@QEAA_NAEAU?$start_for@V?$blocked_range@PEAUBarycentric@manifold@@@d1@detail@tbb@@V<lambda_5a1b5cf6847d2627f3fed7e4e384c5a5>@@$$CBVauto_partitioner@234@@123@@Z
	??$check_for_demand@U?$start_for@V?$blocked_range@PEAUBox@manifold@@@d1@detail@tbb@@V<lambda_94e8667c3c22bf3bc3eec35b8ed39056>@@$$CBVauto_partitioner@234@@d1@detail@tbb@@@auto_partition_type@d1@detail@tbb@@QEAA_NAEAU?$start_for@V?$blocked_range@PEAUBox@manifold@@@d1@detail@tbb@@V<lambda_94e8667c3c22bf3bc3eec35b8ed39056>@@$$CBVauto_partitioner@234@@123@@Z
	??$check_for_demand@U?$start_for@V?$blocked_range@PEAUBox@manifold@@@d1@detail@tbb@@V<lambda_9da81faedc09361c6a787386af9b6f8e>@@$$CBVauto_partitioner@234@@d1@detail@tbb@@@auto_partition_type@d1@detail@tbb@@QEAA_NAEAU?$start_for@V?$blocked_range@PEAUBox@manifold@@@d1@detail@tbb@@V<lambda_9da81faedc09361c6a787386af9b6f8e>@@$$CBVauto_partitioner@234@@123@@Z
	??$check_for_demand@U?$start_for@V?$blocked_range@PEAUFaceData@QuickHull@manifold@@@d1@detail@tbb@@V<lambda_dba04a9a13962c0282956f647a169345>@@$$CBVauto_partitioner@234@@d1@detail@tbb@@@auto_partition_type@d1@detail@tbb@@QEAA_NAEAU?$start_for@V?$blocked_range@PEAUFaceData@QuickHull@manifold@@@d1@detail@tbb@@V<lambda_dba04a9a13962c0282956f647a169345>@@$$CBVauto_partitioner@234@@123@@Z
	??$check_for_demand@U?$start_for@V?$blocked_range@PEAUHalfedge@manifold@@@d1@detail@tbb@@V<lambda_32c00d621959975f1324ec5a60fb61a7>@@$$CBVauto_partitioner@234@@d1@detail@tbb@@@auto_partition_type@d1@detail@tbb@@QEAA_NAEAU?$start_for@V?$blocked_range@PEAUHalfedge@manifold@@@d1@detail@tbb@@V<lambda_32c00d621959975f1324ec5a60fb61a7>@@$$CBVauto_partitioner@234@@123@@Z
	??$check_for_demand@U?$start_for@V?$blocked_range@PEAUTmpEdge@manifold@@@d1@detail@tbb@@V<lambda_02035d049f954c25fedd5e3c2f22d9ba>@@$$CBVauto_partitioner@234@@d1@detail@tbb@@@auto_partition_type@d1@detail@tbb@@QEAA_NAEAU?$start_for@V?$blocked_range@PEAUTmpEdge@manifold@@@d1@detail@tbb@@V<lambda_02035d049f954c25fedd5e3c2f22d9ba>@@$$CBVauto_partitioner@234@@123@@Z
	??$check_for_demand@U?$start_for@V?$blocked_range@PEAUTriRef@manifold@@@d1@detail@tbb@@V<lambda_2764dc2231b3bfb2b26de9434b902a3c>@@$$CBVauto_partitioner@234@@d1@detail@tbb@@@auto_partition_type@d1@detail@tbb@@QEAA_NAEAU?$start_for@V?$blocked_range@PEAUTriRef@manifold@@@d1@detail@tbb@@V<lambda_2764dc2231b3bfb2b26de9434b902a3c>@@$$CBVauto_partitioner@234@@123@@Z
	??$check_for_demand@U?$start_for@V?$blocked_range@PEA_K@d1@detail@tbb@@V<lambda_7c11afd42849bd32ee6b867925cb3ab3>@@$$CBVauto_partitioner@234@@d1@detail@tbb@@@auto_partition_type@d1@detail@tbb@@QEAA_NAEAU?$start_for@V?$blocked_range@PEA_K@d1@detail@tbb@@V<lambda_7c11afd42849bd32ee6b867925cb3ab3>@@$$CBVauto_partitioner@234@@123@@Z
	??$check_for_demand@U?$start_for@V?$blocked_range@PEA_N@d1@detail@tbb@@V<lambda_0bdef824febffa99a1b8265514128764>@@$$CBVauto_partitioner@234@@d1@detail@tbb@@@auto_partition_type@d1@detail@tbb@@QEAA_NAEAU?$start_for@V?$blocked_range@PEA_N@d1@detail@tbb@@V<lambda_0bdef824febffa99a1b8265514128764>@@$$CBVauto_partitioner@234@@123@@Z
	??$check_for_demand@U?$start_for@V?$blocked_range@U?$CountingIterator@_K@manifold@@@d1@detail@tbb@@V<lambda_02dc4021b47f890e4339536daea4e2ea>@@$$CBVauto_partitioner@234@@d1@detail@tbb@@@auto_partition_type@d1@detail@tbb@@QEAA_NAEAU?$start_for@V?$blocked_range@U?$CountingIterator@_K@manifold@@@d1@detail@tbb@@V<lambda_02dc4021b47f890e4339536daea4e2ea>@@$$CBVauto_partitioner@234@@123@@Z
	??$check_for_demand@U?$start_for@V?$blocked_range@U?$CountingIterator@_K@manifold@@@d1@detail@tbb@@V<lambda_125395722cd87c64d27ded1c3ab4c003>@@$$CBVauto_partitioner@234@@d1@detail@tbb@@@auto_partition_type@d1@detail@tbb@@QEAA_NAEAU?$start_for@V?$blocked_range@U?$CountingIterator@_K@manifold@@@d1@detail@tbb@@V<lambda_125395722cd87c64d27ded1c3ab4c003>@@$$CBVauto_partitioner@234@@123@@Z
	??$check_for_demand@U?$start_for@V?$blocked_range@U?$CountingIterator@_K@manifold@@@d1@detail@tbb@@V<lambda_1956f3c9293dc6d188bf97bfdeab53ed>@@$$CBVauto_partitioner@234@@d1@detail@tbb@@@auto_partition_type@d1@detail@tbb@@QEAA_NAEAU?$start_for@V?$blocked_range@U?$CountingIterator@_K@manifold@@@d1@detail@tbb@@V<lambda_1956f3c9293dc6d188bf97bfdeab53ed>@@$$CBVauto_partitioner@234@@123@@Z
	??$check_for_demand@U?$start_for@V?$blocked_range@U?$CountingIterator@_K@manifold@@@d1@detail@tbb@@V<lambda_1e9adf9048cd241e89e58bbd0f247b09>@@$$CBVauto_partitioner@234@@d1@detail@tbb@@@auto_partition_type@d1@detail@tbb@@QEAA_NAEAU?$start_for@V?$blocked_range@U?$CountingIterator@_K@manifold@@@d1@detail@tbb@@V<lambda_1e9adf9048cd241e89e58bbd0f247b09>@@$$CBVauto_partitioner@234@@123@@Z
	??$check_for_demand@U?$start_for@V?$blocked_range@U?$CountingIterator@_K@manifold@@@d1@detail@tbb@@V<lambda_26d504527354b7114cdfe56beddf2178>@@$$CBVauto_partitioner@234@@d1@detail@tbb@@@auto_partition_type@d1@detail@tbb@@QEAA_NAEAU?$start_for@V?$blocked_range@U?$CountingIterator@_K@manifold@@@d1@detail@tbb@@V<lambda_26d504527354b7114cdfe56beddf2178>@@$$CBVauto_partitioner@234@@123@@Z
	??$check_for_demand@U?$start_for@V?$blocked_range@U?$CountingIterator@_K@manifold@@@d1@detail@tbb@@V<lambda_27db5046e7932e3dbada70de608fd096>@@$$CBVauto_partitioner@234@@d1@detail@tbb@@@auto_partition_type@d1@detail@tbb@@QEAA_NAEAU?$start_for@V?$blocked_range@U?$CountingIterator@_K@manifold@@@d1@detail@tbb@@V<lambda_27db5046e7932e3dbada70de608fd096>@@$$CBVauto_partitioner@234@@123@@Z
	??$check_for_demand@U?$start_for@V?$blocked_range@U?$CountingIterator@_K@manifold@@@d1@detail@tbb@@V<lambda_29f1866b8f287452ff90a23a0252edd9>@@$$CBVauto_partitioner@234@@d1@detail@tbb@@@auto_partition_type@d1@detail@tbb@@QEAA_NAEAU?$start_for@V?$blocked_range@U?$CountingIterator@_K@manifold@@@d1@detail@tbb@@V<lambda_29f1866b8f287452ff90a23a0252edd9>@@$$CBVauto_partitioner@234@@123@@Z
	??$check_for_demand@U?$start_for@V?$blocked_range@U?$CountingIterator@_K@manifold@@@d1@detail@tbb@@V<lambda_2cd0ea27e88ac2e9c5e2ad6664d98df1>@@$$CBVauto_partitioner@234@@d1@detail@tbb@@@auto_partition_type@d1@detail@tbb@@QEAA_NAEAU?$start_for@V?$blocked_range@U?$CountingIterator@_K@manifold@@@d1@detail@tbb@@V<lambda_2cd0ea27e88ac2e9c5e2ad6664d98df1>@@$$CBVauto_partitioner@234@@123@@Z
	??$check_for_demand@U?$start_for@V?$blocked_range@U?$CountingIterator@_K@manifold@@@d1@detail@tbb@@V<lambda_2daf603a677dabb13dc391e4046b315a>@@$$CBVauto_partitioner@234@@d1@detail@tbb@@@auto_partition_type@d1@detail@tbb@@QEAA_NAEAU?$start_for@V?$blocked_range@U?$CountingIterator@_K@manifold@@@d1@detail@tbb@@V<lambda_2daf603a677dabb13dc391e4046b315a>@@$$CBVauto_partitioner@234@@123@@Z
	??$check_for_demand@U?$start_for@V?$blocked_range@U?$CountingIterator@_K@manifold@@@d1@detail@tbb@@V<lambda_3f9f3dbeef3d29af65db1e28354a7aa4>@@$$CBVauto_partitioner@234@@d1@detail@tbb@@@auto_partition_type@d1@detail@tbb@@QEAA_NAEAU?$start_for@V?$blocked_range@U?$CountingIterator@_K@manifold@@@d1@detail@tbb@@V<lambda_3f9f3dbeef3d29af65db1e28354a7aa4>@@$$CBVauto_partitioner@234@@123@@Z
	??$check_for_demand@U?$start_for@V?$blocked_range@U?$CountingIterator@_K@manifold@@@d1@detail@tbb@@V<lambda_4d78262fb9bb70ea4fa831a94ffef145>@@$$CBVauto_partitioner@234@@d1@detail@tbb@@@auto_partition_type@d1@detail@tbb@@QEAA_NAEAU?$start_for@V?$blocked_range@U?$CountingIterator@_K@manifold@@@d1@detail@tbb@@V<lambda_4d78262fb9bb70ea4fa831a94ffef145>@@$$CBVauto_partitioner@234@@123@@Z
	??$check_for_demand@U?$start_for@V?$blocked_range@U?$CountingIterator@_K@manifold@@@d1@detail@tbb@@V<lambda_506f0b934a600660933fc1862c825f02>@@$$CBVauto_partitioner@234@@d1@detail@tbb@@@auto_partition_type@d1@detail@tbb@@QEAA_NAEAU?$start_for@V?$blocked_range@U?$CountingIterator@_K@manifold@@@d1@detail@tbb@@V<lambda_506f0b934a600660933fc1862c825f02>@@$$CBVauto_partitioner@234@@123@@Z
	??$check_for_demand@U?$start_for@V?$blocked_range@U?$CountingIterator@_K@manifold@@@d1@detail@tbb@@V<lambda_521749c93a96c6436d07fd36b74bbab8>@@$$CBVauto_partitioner@234@@d1@detail@tbb@@@auto_partition_type@d1@detail@tbb@@QEAA_NAEAU?$start_for@V?$blocked_range@U?$CountingIterator@_K@manifold@@@d1@detail@tbb@@V<lambda_521749c93a96c6436d07fd36b74bbab8>@@$$CBVauto_partitioner@234@@123@@Z
	??$check_for_demand@U?$start_for@V?$blocked_range@U?$CountingIterator@_K@manifold@@@d1@detail@tbb@@V<lambda_63da45c9d74e932208bb009736d1b485>@@$$CBVauto_partitioner@234@@d1@detail@tbb@@@auto_partition_type@d1@detail@tbb@@QEAA_NAEAU?$start_for@V?$blocked_range@U?$CountingIterator@_K@manifold@@@d1@detail@tbb@@V<lambda_63da45c9d74e932208bb009736d1b485>@@$$CBVauto_partitioner@234@@123@@Z
	??$check_for_demand@U?$start_for@V?$blocked_range@U?$CountingIterator@_K@manifold@@@d1@detail@tbb@@V<lambda_6ccdfb7e6dff4e8edb19856de089cf21>@@$$CBVauto_partitioner@234@@d1@detail@tbb@@@auto_partition_type@d1@detail@tbb@@QEAA_NAEAU?$start_for@V?$blocked_range@U?$CountingIterator@_K@manifold@@@d1@detail@tbb@@V<lambda_6ccdfb7e6dff4e8edb19856de089cf21>@@$$CBVauto_partitioner@234@@123@@Z
	??$check_for_demand@U?$start_for@V?$blocked_range@U?$CountingIterator@_K@manifold@@@d1@detail@tbb@@V<lambda_780a3844230d1dc8481661a1830dc147>@@$$CBVauto_partitioner@234@@d1@detail@tbb@@@auto_partition_type@d1@detail@tbb@@QEAA_NAEAU?$start_for@V?$blocked_range@U?$CountingIterator@_K@manifold@@@d1@detail@tbb@@V<lambda_780a3844230d1dc8481661a1830dc147>@@$$CBVauto_partitioner@234@@123@@Z
	??$check_for_demand@U?$start_for@V?$blocked_range@U?$CountingIterator@_K@manifold@@@d1@detail@tbb@@V<lambda_783a3fe3c5efa311c27c14ac40e01e03>@@$$CBVauto_partitioner@234@@d1@detail@tbb@@@auto_partition_type@d1@detail@tbb@@QEAA_NAEAU?$start_for@V?$blocked_range@U?$CountingIterator@_K@manifold@@@d1@detail@tbb@@V<lambda_783a3fe3c5efa311c27c14ac40e01e03>@@$$CBVauto_partitioner@234@@123@@Z
	??$check_for_demand@U?$start_for@V?$blocked_range@U?$CountingIterator@_K@manifold@@@d1@detail@tbb@@V<lambda_7cff2e5c2a465897ae733acbfff853fd>@@$$CBVauto_partitioner@234@@d1@detail@tbb@@@auto_partition_type@d1@detail@tbb@@QEAA_NAEAU?$start_for@V?$blocked_range@U?$CountingIterator@_K@manifold@@@d1@detail@tbb@@V<lambda_7cff2e5c2a465897ae733acbfff853fd>@@$$CBVauto_partitioner@234@@123@@Z
	??$check_for_demand@U?$start_for@V?$blocked_range@U?$CountingIterator@_K@manifold@@@d1@detail@tbb@@V<lambda_7f9eca30be8c6242d9cf5c6758733a69>@@$$CBVauto_partitioner@234@@d1@detail@tbb@@@auto_partition_type@d1@detail@tbb@@QEAA_NAEAU?$start_for@V?$blocked_range@U?$CountingIterator@_K@manifold@@@d1@detail@tbb@@V<lambda_7f9eca30be8c6242d9cf5c6758733a69>@@$$CBVauto_partitioner@234@@123@@Z
	??$check_for_demand@U?$start_for@V?$blocked_range@U?$CountingIterator@_K@manifold@@@d1@detail@tbb@@V<lambda_9126d938adfe72b43d3fb711e32fec58>@@$$CBVauto_partitioner@234@@d1@detail@tbb@@@auto_partition_type@d1@detail@tbb@@QEAA_NAEAU?$start_for@V?$blocked_range@U?$CountingIterator@_K@manifold@@@d1@detail@tbb@@V<lambda_9126d938adfe72b43d3fb711e32fec58>@@$$CBVauto_partitioner@234@@123@@Z
	??$check_for_demand@U?$start_for@V?$blocked_range@U?$CountingIterator@_K@manifold@@@d1@detail@tbb@@V<lambda_92e66cac9d1178a2b8523200e0fabdd2>@@$$CBVauto_partitioner@234@@d1@detail@tbb@@@auto_partition_type@d1@detail@tbb@@QEAA_NAEAU?$start_for@V?$blocked_range@U?$CountingIterator@_K@manifold@@@d1@detail@tbb@@V<lambda_92e66cac9d1178a2b8523200e0fabdd2>@@$$CBVauto_partitioner@234@@123@@Z
	??$check_for_demand@U?$start_for@V?$blocked_range@U?$CountingIterator@_K@manifold@@@d1@detail@tbb@@V<lambda_9575f5f0cae48ec85373a7fe1fcbfa72>@@$$CBVauto_partitioner@234@@d1@detail@tbb@@@auto_partition_type@d1@detail@tbb@@QEAA_NAEAU?$start_for@V?$blocked_range@U?$CountingIterator@_K@manifold@@@d1@detail@tbb@@V<lambda_9575f5f0cae48ec85373a7fe1fcbfa72>@@$$CBVauto_partitioner@234@@123@@Z
	??$check_for_demand@U?$start_for@V?$blocked_range@U?$CountingIterator@_K@manifold@@@d1@detail@tbb@@V<lambda_bc749e62b33a04bf20a9f89018c24ad9>@@$$CBVauto_partitioner@234@@d1@detail@tbb@@@auto_partition_type@d1@detail@tbb@@QEAA_NAEAU?$start_for@V?$blocked_range@U?$CountingIterator@_K@manifold@@@d1@detail@tbb@@V<lambda_bc749e62b33a04bf20a9f89018c24ad9>@@$$CBVauto_partitioner@234@@123@@Z
	??$check_for_demand@U?$start_for@V?$blocked_range@U?$CountingIterator@_K@manifold@@@d1@detail@tbb@@V<lambda_be6873c193848cc6e247d065b3b956d7>@@$$CBVauto_partitioner@234@@d1@detail@tbb@@@auto_partition_type@d1@detail@tbb@@QEAA_NAEAU?$start_for@V?$blocked_range@U?$CountingIterator@_K@manifold@@@d1@detail@tbb@@V<lambda_be6873c193848cc6e247d065b3b956d7>@@$$CBVauto_partitioner@234@@123@@Z
	??$check_for_demand@U?$start_for@V?$blocked_range@U?$CountingIterator@_K@manifold@@@d1@detail@tbb@@V<lambda_c4d2a604a53dfe3c4acd8238ff486975>@@$$CBVauto_partitioner@234@@d1@detail@tbb@@@auto_partition_type@d1@detail@tbb@@QEAA_NAEAU?$start_for@V?$blocked_range@U?$CountingIterator@_K@manifold@@@d1@detail@tbb@@V<lambda_c4d2a604a53dfe3c4acd8238ff486975>@@$$CBVauto_partitioner@234@@123@@Z
	??$check_for_demand@U?$start_for@V?$blocked_range@U?$CountingIterator@_K@manifold@@@d1@detail@tbb@@V<lambda_c500369bacae8e90d52452af9e0c5a5f>@@$$CBVauto_partitioner@234@@d1@detail@tbb@@@auto_partition_type@d1@detail@tbb@@QEAA_NAEAU?$start_for@V?$blocked_range@U?$CountingIterator@_K@manifold@@@d1@detail@tbb@@V<lambda_c500369bacae8e90d52452af9e0c5a5f>@@$$CBVauto_partitioner@234@@123@@Z
	??$check_for_demand@U?$start_for@V?$blocked_range@U?$CountingIterator@_K@manifold@@@d1@detail@tbb@@V<lambda_cbc8108a9ae962306fcccb3ede9dfe7b>@@$$CBVauto_partitioner@234@@d1@detail@tbb@@@auto_partition_type@d1@detail@tbb@@QEAA_NAEAU?$start_for@V?$blocked_range@U?$CountingIterator@_K@manifold@@@d1@detail@tbb@@V<lambda_cbc8108a9ae962306fcccb3ede9dfe7b>@@$$CBVauto_partitioner@234@@123@@Z
	??$check_for_demand@U?$start_for@V?$blocked_range@U?$CountingIterator@_K@manifold@@@d1@detail@tbb@@V<lambda_e0f95191e147729669e5502af0d8c78f>@@$$CBVauto_partitioner@234@@d1@detail@tbb@@@auto_partition_type@d1@detail@tbb@@QEAA_NAEAU?$start_for@V?$blocked_range@U?$CountingIterator@_K@manifold@@@d1@detail@tbb@@V<lambda_e0f95191e147729669e5502af0d8c78f>@@$$CBVauto_partitioner@234@@123@@Z
	??$check_for_demand@U?$start_for@V?$blocked_range@U?$CountingIterator@_K@manifold@@@d1@detail@tbb@@V<lambda_e6ccefc8389025fdae3070ad6547df8b>@@$$CBVauto_partitioner@234@@d1@detail@tbb@@@auto_partition_type@d1@detail@tbb@@QEAA_NAEAU?$start_for@V?$blocked_range@U?$CountingIterator@_K@manifold@@@d1@detail@tbb@@V<lambda_e6ccefc8389025fdae3070ad6547df8b>@@$$CBVauto_partitioner@234@@123@@Z
	??$check_for_demand@U?$start_for@V?$blocked_range@U?$CountingIterator@_K@manifold@@@d1@detail@tbb@@V<lambda_e9d4c16dd2ddde8e2352556dc7221143>@@$$CBVauto_partitioner@234@@d1@detail@tbb@@@auto_partition_type@d1@detail@tbb@@QEAA_NAEAU?$start_for@V?$blocked_range@U?$CountingIterator@_K@manifold@@@d1@detail@tbb@@V<lambda_e9d4c16dd2ddde8e2352556dc7221143>@@$$CBVauto_partitioner@234@@123@@Z
	??$check_for_demand@U?$start_for@V?$blocked_range@U?$CountingIterator@_K@manifold@@@d1@detail@tbb@@V<lambda_eb78ce1719e35291698c7f0f9fb1de42>@@$$CBVauto_partitioner@234@@d1@detail@tbb@@@auto_partition_type@d1@detail@tbb@@QEAA_NAEAU?$start_for@V?$blocked_range@U?$CountingIterator@_K@manifold@@@d1@detail@tbb@@V<lambda_eb78ce1719e35291698c7f0f9fb1de42>@@$$CBVauto_partitioner@234@@123@@Z
	??$check_for_demand@U?$start_for@V?$blocked_range@U?$CountingIterator@_K@manifold@@@d1@detail@tbb@@V<lambda_ed823f9406acb25c9c1e9beef7ffd72e>@@$$CBVauto_partitioner@234@@d1@detail@tbb@@@auto_partition_type@d1@detail@tbb@@QEAA_NAEAU?$start_for@V?$blocked_range@U?$CountingIterator@_K@manifold@@@d1@detail@tbb@@V<lambda_ed823f9406acb25c9c1e9beef7ffd72e>@@$$CBVauto_partitioner@234@@123@@Z
	??$check_for_demand@U?$start_for@V?$blocked_range@U?$CountingIterator@_K@manifold@@@d1@detail@tbb@@V<lambda_f6d20b7269383540cbe04483b9eb90fa>@@$$CBVauto_partitioner@234@@d1@detail@tbb@@@auto_partition_type@d1@detail@tbb@@QEAA_NAEAU?$start_for@V?$blocked_range@U?$CountingIterator@_K@manifold@@@d1@detail@tbb@@V<lambda_f6d20b7269383540cbe04483b9eb90fa>@@$$CBVauto_partitioner@234@@123@@Z
	??$check_for_demand@U?$start_for@V?$blocked_range@U?$CountingIterator@_K@manifold@@@d1@detail@tbb@@V<lambda_fd0eb947c4292ddc7c05e12e85dc0560>@@$$CBVauto_partitioner@234@@d1@detail@tbb@@@auto_partition_type@d1@detail@tbb@@QEAA_NAEAU?$start_for@V?$blocked_range@U?$CountingIterator@_K@manifold@@@d1@detail@tbb@@V<lambda_fd0eb947c4292ddc7c05e12e85dc0560>@@$$CBVauto_partitioner@234@@123@@Z
	??$check_for_demand@U?$start_for@V?$blocked_range@_K@d1@detail@tbb@@V<lambda_03fb884a4cd862991adc5f74fb847a05>@@$$CBVauto_partitioner@234@@d1@detail@tbb@@@auto_partition_type@d1@detail@tbb@@QEAA_NAEAU?$start_for@V?$blocked_range@_K@d1@detail@tbb@@V<lambda_03fb884a4cd862991adc5f74fb847a05>@@$$CBVauto_partitioner@234@@123@@Z
	??$check_for_demand@U?$start_for@V?$blocked_range@_K@d1@detail@tbb@@V<lambda_11b10d549c18cb6f5807ee78b48dc7bd>@@$$CBVauto_partitioner@234@@d1@detail@tbb@@@auto_partition_type@d1@detail@tbb@@QEAA_NAEAU?$start_for@V?$blocked_range@_K@d1@detail@tbb@@V<lambda_11b10d549c18cb6f5807ee78b48dc7bd>@@$$CBVauto_partitioner@234@@123@@Z
	??$check_for_demand@U?$start_for@V?$blocked_range@_K@d1@detail@tbb@@V<lambda_16b5223be46195286e2e8405f732d4b5>@@$$CBVauto_partitioner@234@@d1@detail@tbb@@@auto_partition_type@d1@detail@tbb@@QEAA_NAEAU?$start_for@V?$blocked_range@_K@d1@detail@tbb@@V<lambda_16b5223be46195286e2e8405f732d4b5>@@$$CBVauto_partitioner@234@@123@@Z
	??$check_for_demand@U?$start_for@V?$blocked_range@_K@d1@detail@tbb@@V<lambda_2028fcf9990d21ed7bffc3cba0404ce0>@@$$CBVauto_partitioner@234@@d1@detail@tbb@@@auto_partition_type@d1@detail@tbb@@QEAA_NAEAU?$start_for@V?$blocked_range@_K@d1@detail@tbb@@V<lambda_2028fcf9990d21ed7bffc3cba0404ce0>@@$$CBVauto_partitioner@234@@123@@Z
	??$check_for_demand@U?$start_for@V?$blocked_range@_K@d1@detail@tbb@@V<lambda_23aea90e25cc54a4a61e14d1812e73f1>@@$$CBVauto_partitioner@234@@d1@detail@tbb@@@auto_partition_type@d1@detail@tbb@@QEAA_NAEAU?$start_for@V?$blocked_range@_K@d1@detail@tbb@@V<lambda_23aea90e25cc54a4a61e14d1812e73f1>@@$$CBVauto_partitioner@234@@123@@Z
	??$check_for_demand@U?$start_for@V?$blocked_range@_K@d1@detail@tbb@@V<lambda_2596da0e62de8e522dfd94f3c01ad496>@@$$CBVauto_partitioner@234@@d1@detail@tbb@@@auto_partition_type@d1@detail@tbb@@QEAA_NAEAU?$start_for@V?$blocked_range@_K@d1@detail@tbb@@V<lambda_2596da0e62de8e522dfd94f3c01ad496>@@$$CBVauto_partitioner@234@@123@@Z
	??$check_for_demand@U?$start_for@V?$blocked_range@_K@d1@detail@tbb@@V<lambda_26f1855a7dd848bca9cb6ca2551d675b>@@$$CBVauto_partitioner@234@@d1@detail@tbb@@@auto_partition_type@d1@detail@tbb@@QEAA_NAEAU?$start_for@V?$blocked_range@_K@d1@detail@tbb@@V<lambda_26f1855a7dd848bca9cb6ca2551d675b>@@$$CBVauto_partitioner@234@@123@@Z
	??$check_for_demand@U?$start_for@V?$blocked_range@_K@d1@detail@tbb@@V<lambda_2b54008fd670a063f1c547b58f1ed842>@@$$CBVauto_partitioner@234@@d1@detail@tbb@@@auto_partition_type@d1@detail@tbb@@QEAA_NAEAU?$start_for@V?$blocked_range@_K@d1@detail@tbb@@V<lambda_2b54008fd670a063f1c547b58f1ed842>@@$$CBVauto_partitioner@234@@123@@Z
	??$check_for_demand@U?$start_for@V?$blocked_range@_K@d1@detail@tbb@@V<lambda_46c595594061512c0c3ea99d0c6996f4>@@$$CBVauto_partitioner@234@@d1@detail@tbb@@@auto_partition_type@d1@detail@tbb@@QEAA_NAEAU?$start_for@V?$blocked_range@_K@d1@detail@tbb@@V<lambda_46c595594061512c0c3ea99d0c6996f4>@@$$CBVauto_partitioner@234@@123@@Z
	??$check_for_demand@U?$start_for@V?$blocked_range@_K@d1@detail@tbb@@V<lambda_4fe243d2ac3a58c8cc3c365283b19d0a>@@$$CBVauto_partitioner@234@@d1@detail@tbb@@@auto_partition_type@d1@detail@tbb@@QEAA_NAEAU?$start_for@V?$blocked_range@_K@d1@detail@tbb@@V<lambda_4fe243d2ac3a58c8cc3c365283b19d0a>@@$$CBVauto_partitioner@234@@123@@Z
	??$check_for_demand@U?$start_for@V?$blocked_range@_K@d1@detail@tbb@@V<lambda_5191551fa434103989ffbd56a46de547>@@$$CBVauto_partitioner@234@@d1@detail@tbb@@@auto_partition_type@d1@detail@tbb@@QEAA_NAEAU?$start_for@V?$blocked_range@_K@d1@detail@tbb@@V<lambda_5191551fa434103989ffbd56a46de547>@@$$CBVauto_partitioner@234@@123@@Z
	??$check_for_demand@U?$start_for@V?$blocked_range@_K@d1@detail@tbb@@V<lambda_54c6a0e62c947039ea7ce7a79db9f988>@@$$CBVauto_partitioner@234@@d1@detail@tbb@@@auto_partition_type@d1@detail@tbb@@QEAA_NAEAU?$start_for@V?$blocked_range@_K@d1@detail@tbb@@V<lambda_54c6a0e62c947039ea7ce7a79db9f988>@@$$CBVauto_partitioner@234@@123@@Z
	??$check_for_demand@U?$start_for@V?$blocked_range@_K@d1@detail@tbb@@V<lambda_55b7c4dcea7a3902f163245f32772ee8>@@$$CBVauto_partitioner@234@@d1@detail@tbb@@@auto_partition_type@d1@detail@tbb@@QEAA_NAEAU?$start_for@V?$blocked_range@_K@d1@detail@tbb@@V<lambda_55b7c4dcea7a3902f163245f32772ee8>@@$$CBVauto_partitioner@234@@123@@Z
	??$check_for_demand@U?$start_for@V?$blocked_range@_K@d1@detail@tbb@@V<lambda_5ae50f2b451ce4a833235d87834aee37>@@$$CBVauto_partitioner@234@@d1@detail@tbb@@@auto_partition_type@d1@detail@tbb@@QEAA_NAEAU?$start_for@V?$blocked_range@_K@d1@detail@tbb@@V<lambda_5ae50f2b451ce4a833235d87834aee37>@@$$CBVauto_partitioner@234@@123@@Z
	??$check_for_demand@U?$start_for@V?$blocked_range@_K@d1@detail@tbb@@V<lambda_5e980b7c07f1b28fb8e6a4f60c41d4ff>@@$$CBVauto_partitioner@234@@d1@detail@tbb@@@auto_partition_type@d1@detail@tbb@@QEAA_NAEAU?$start_for@V?$blocked_range@_K@d1@detail@tbb@@V<lambda_5e980b7c07f1b28fb8e6a4f60c41d4ff>@@$$CBVauto_partitioner@234@@123@@Z
	??$check_for_demand@U?$start_for@V?$blocked_range@_K@d1@detail@tbb@@V<lambda_6b2095684ba54e50cdef01136ee8be0a>@@$$CBVauto_partitioner@234@@d1@detail@tbb@@@auto_partition_type@d1@detail@tbb@@QEAA_NAEAU?$start_for@V?$blocked_range@_K@d1@detail@tbb@@V<lambda_6b2095684ba54e50cdef01136ee8be0a>@@$$CBVauto_partitioner@234@@123@@Z
	??$check_for_demand@U?$start_for@V?$blocked_range@_K@d1@detail@tbb@@V<lambda_6d64c9e8c7ac1bbeff75af7b660c5275>@@$$CBVauto_partitioner@234@@d1@detail@tbb@@@auto_partition_type@d1@detail@tbb@@QEAA_NAEAU?$start_for@V?$blocked_range@_K@d1@detail@tbb@@V<lambda_6d64c9e8c7ac1bbeff75af7b660c5275>@@$$CBVauto_partitioner@234@@123@@Z
	??$check_for_demand@U?$start_for@V?$blocked_range@_K@d1@detail@tbb@@V<lambda_6e3e7d463341b46cb937fa7953520ac6>@@$$CBVauto_partitioner@234@@d1@detail@tbb@@@auto_partition_type@d1@detail@tbb@@QEAA_NAEAU?$start_for@V?$blocked_range@_K@d1@detail@tbb@@V<lambda_6e3e7d463341b46cb937fa7953520ac6>@@$$CBVauto_partitioner@234@@123@@Z
	??$check_for_demand@U?$start_for@V?$blocked_range@_K@d1@detail@tbb@@V<lambda_81f818a6d773c7c34605d06f5b6a2793>@@$$CBVauto_partitioner@234@@d1@detail@tbb@@@auto_partition_type@d1@detail@tbb@@QEAA_NAEAU?$start_for@V?$blocked_range@_K@d1@detail@tbb@@V<lambda_81f818a6d773c7c34605d06f5b6a2793>@@$$CBVauto_partitioner@234@@123@@Z
	??$check_for_demand@U?$start_for@V?$blocked_range@_K@d1@detail@tbb@@V<lambda_89e81f88a9ae10aeced00f3ca61a0458>@@$$CBVauto_partitioner@234@@d1@detail@tbb@@@auto_partition_type@d1@detail@tbb@@QEAA_NAEAU?$start_for@V?$blocked_range@_K@d1@detail@tbb@@V<lambda_89e81f88a9ae10aeced00f3ca61a0458>@@$$CBVauto_partitioner@234@@123@@Z
	??$check_for_demand@U?$start_for@V?$blocked_range@_K@d1@detail@tbb@@V<lambda_98075f30228a2f77d099d86dc83106b5>@@$$CBVauto_partitioner@234@@d1@detail@tbb@@@auto_partition_type@d1@detail@tbb@@QEAA_NAEAU?$start_for@V?$blocked_range@_K@d1@detail@tbb@@V<lambda_98075f30228a2f77d099d86dc83106b5>@@$$CBVauto_partitioner@234@@123@@Z
	??$check_for_demand@U?$start_for@V?$blocked_range@_K@d1@detail@tbb@@V<lambda_98381951680be79b2a69819a8c29dab0>@@$$CBVauto_partitioner@234@@d1@detail@tbb@@@auto_partition_type@d1@detail@tbb@@QEAA_NAEAU?$start_for@V?$blocked_range@_K@d1@detail@tbb@@V<lambda_98381951680be79b2a69819a8c29dab0>@@$$CBVauto_partitioner@234@@123@@Z
	??$check_for_demand@U?$start_for@V?$blocked_range@_K@d1@detail@tbb@@V<lambda_9a4b9b95a691ab47a7180b1f1821cebb>@@$$CBVauto_partitioner@234@@d1@detail@tbb@@@auto_partition_type@d1@detail@tbb@@QEAA_NAEAU?$start_for@V?$blocked_range@_K@d1@detail@tbb@@V<lambda_9a4b9b95a691ab47a7180b1f1821cebb>@@$$CBVauto_partitioner@234@@123@@Z
	??$check_for_demand@U?$start_for@V?$blocked_range@_K@d1@detail@tbb@@V<lambda_a0ae1ff2d5d9c5cac556e22fbfd4489c>@@$$CBVauto_partitioner@234@@d1@detail@tbb@@@auto_partition_type@d1@detail@tbb@@QEAA_NAEAU?$start_for@V?$blocked_range@_K@d1@detail@tbb@@V<lambda_a0ae1ff2d5d9c5cac556e22fbfd4489c>@@$$CBVauto_partitioner@234@@123@@Z
	??$check_for_demand@U?$start_for@V?$blocked_range@_K@d1@detail@tbb@@V<lambda_a71979c87b6c294711a78ae3d13b1572>@@$$CBVauto_partitioner@234@@d1@detail@tbb@@@auto_partition_type@d1@detail@tbb@@QEAA_NAEAU?$start_for@V?$blocked_range@_K@d1@detail@tbb@@V<lambda_a71979c87b6c294711a78ae3d13b1572>@@$$CBVauto_partitioner@234@@123@@Z
	??$check_for_demand@U?$start_for@V?$blocked_range@_K@d1@detail@tbb@@V<lambda_afd02db0a2147b3a58f0dfc9869ed237>@@$$CBVauto_partitioner@234@@d1@detail@tbb@@@auto_partition_type@d1@detail@tbb@@QEAA_NAEAU?$start_for@V?$blocked_range@_K@d1@detail@tbb@@V<lambda_afd02db0a2147b3a58f0dfc9869ed237>@@$$CBVauto_partitioner@234@@123@@Z
	??$check_for_demand@U?$start_for@V?$blocked_range@_K@d1@detail@tbb@@V<lambda_b5cfbc6c772ee946f04adbc807d49f2f>@@$$CBVauto_partitioner@234@@d1@detail@tbb@@@auto_partition_type@d1@detail@tbb@@QEAA_NAEAU?$start_for@V?$blocked_range@_K@d1@detail@tbb@@V<lambda_b5cfbc6c772ee946f04adbc807d49f2f>@@$$CBVauto_partitioner@234@@123@@Z
	??$check_for_demand@U?$start_for@V?$blocked_range@_K@d1@detail@tbb@@V<lambda_bd66f17d69b6a3fa46937ef45eef0dac>@@$$CBVauto_partitioner@234@@d1@detail@tbb@@@auto_partition_type@d1@detail@tbb@@QEAA_NAEAU?$start_for@V?$blocked_range@_K@d1@detail@tbb@@V<lambda_bd66f17d69b6a3fa46937ef45eef0dac>@@$$CBVauto_partitioner@234@@123@@Z
	??$check_for_demand@U?$start_for@V?$blocked_range@_K@d1@detail@tbb@@V<lambda_c2c63180896229d7dd04f8aba5581d85>@@$$CBVauto_partitioner@234@@d1@detail@tbb@@@auto_partition_type@d1@detail@tbb@@QEAA_NAEAU?$start_for@V?$blocked_range@_K@d1@detail@tbb@@V<lambda_c2c63180896229d7dd04f8aba5581d85>@@$$CBVauto_partitioner@234@@123@@Z
	??$check_for_demand@U?$start_for@V?$blocked_range@_K@d1@detail@tbb@@V<lambda_c3cac6f29c0ef45ccdb48a18f24fd6ab>@@$$CBVauto_partitioner@234@@d1@detail@tbb@@@auto_partition_type@d1@detail@tbb@@QEAA_NAEAU?$start_for@V?$blocked_range@_K@d1@detail@tbb@@V<lambda_c3cac6f29c0ef45ccdb48a18f24fd6ab>@@$$CBVauto_partitioner@234@@123@@Z
	??$check_for_demand@U?$start_for@V?$blocked_range@_K@d1@detail@tbb@@V<lambda_cd4116d251a2c84c130b04d5b89c4083>@@$$CBVauto_partitioner@234@@d1@detail@tbb@@@auto_partition_type@d1@detail@tbb@@QEAA_NAEAU?$start_for@V?$blocked_range@_K@d1@detail@tbb@@V<lambda_cd4116d251a2c84c130b04d5b89c4083>@@$$CBVauto_partitioner@234@@123@@Z
	??$check_for_demand@U?$start_for@V?$blocked_range@_K@d1@detail@tbb@@V<lambda_e1491ef019c5506a7d7701f7deba09de>@@$$CBVauto_partitioner@234@@d1@detail@tbb@@@auto_partition_type@d1@detail@tbb@@QEAA_NAEAU?$start_for@V?$blocked_range@_K@d1@detail@tbb@@V<lambda_e1491ef019c5506a7d7701f7deba09de>@@$$CBVauto_partitioner@234@@123@@Z
	??$check_for_demand@U?$start_for@V?$blocked_range@_K@d1@detail@tbb@@V<lambda_e593b19c5b08a79fe55046e04800e3db>@@$$CBVauto_partitioner@234@@d1@detail@tbb@@@auto_partition_type@d1@detail@tbb@@QEAA_NAEAU?$start_for@V?$blocked_range@_K@d1@detail@tbb@@V<lambda_e593b19c5b08a79fe55046e04800e3db>@@$$CBVauto_partitioner@234@@123@@Z
	??$check_for_demand@U?$start_for@V?$blocked_range@_K@d1@detail@tbb@@V<lambda_ebf7bcb4984ab947248b9aa0075fb9e0>@@$$CBVauto_partitioner@234@@d1@detail@tbb@@@auto_partition_type@d1@detail@tbb@@QEAA_NAEAU?$start_for@V?$blocked_range@_K@d1@detail@tbb@@V<lambda_ebf7bcb4984ab947248b9aa0075fb9e0>@@$$CBVauto_partitioner@234@@123@@Z
	??$check_for_demand@U?$start_for@V?$blocked_range@_K@d1@detail@tbb@@V<lambda_edeaf69f9f53978458d813b9b4c071a4>@@$$CBVauto_partitioner@234@@d1@detail@tbb@@@auto_partition_type@d1@detail@tbb@@QEAA_NAEAU?$start_for@V?$blocked_range@_K@d1@detail@tbb@@V<lambda_edeaf69f9f53978458d813b9b4c071a4>@@$$CBVauto_partitioner@234@@123@@Z
	??$check_for_demand@U?$start_for@V?$blocked_range@_K@d1@detail@tbb@@V<lambda_f53a955f9132fa7d20c11b141a1f56ae>@@$$CBVauto_partitioner@234@@d1@detail@tbb@@@auto_partition_type@d1@detail@tbb@@QEAA_NAEAU?$start_for@V?$blocked_range@_K@d1@detail@tbb@@V<lambda_f53a955f9132fa7d20c11b141a1f56ae>@@$$CBVauto_partitioner@234@@123@@Z
	??$check_for_demand@U?$start_for@V?$blocked_range@_K@d1@detail@tbb@@V<lambda_f5b9d82fa8d71682793bdac43c7d37a5>@@$$CBVauto_partitioner@234@@d1@detail@tbb@@@auto_partition_type@d1@detail@tbb@@QEAA_NAEAU?$start_for@V?$blocked_range@_K@d1@detail@tbb@@V<lambda_f5b9d82fa8d71682793bdac43c7d37a5>@@$$CBVauto_partitioner@234@@123@@Z
	??$check_for_demand@U?$start_for@V?$blocked_range@_K@d1@detail@tbb@@V<lambda_f6d95f579848c0db64d7108a6b4bb55b>@@$$CBVauto_partitioner@234@@d1@detail@tbb@@@auto_partition_type@d1@detail@tbb@@QEAA_NAEAU?$start_for@V?$blocked_range@_K@d1@detail@tbb@@V<lambda_f6d95f579848c0db64d7108a6b4bb55b>@@$$CBVauto_partitioner@234@@123@@Z
	??$check_for_demand@U?$start_for@V?$blocked_range@_K@d1@detail@tbb@@V<lambda_f77dbcd751e2aed9cf96ded60b9aaaea>@@$$CBVauto_partitioner@234@@d1@detail@tbb@@@auto_partition_type@d1@detail@tbb@@QEAA_NAEAU?$start_for@V?$blocked_range@_K@d1@detail@tbb@@V<lambda_f77dbcd751e2aed9cf96ded60b9aaaea>@@$$CBVauto_partitioner@234@@123@@Z
	??$check_for_demand@U?$start_reduce@V?$blocked_range@_K@d1@detail@tbb@@U?$SortedRange@_J_K@details@manifold@@$$CBVauto_partitioner@234@@d1@detail@tbb@@@auto_partition_type@d1@detail@tbb@@QEAA_NAEAU?$start_reduce@V?$blocked_range@_K@d1@detail@tbb@@U?$SortedRange@_J_K@details@manifold@@$$CBVauto_partitioner@234@@123@@Z
	??$clamp@NNN@linalg@@YANAEBN00@Z
	??$cmul@NU?$mat@N$01$01@linalg@@@linalg@@YA?AU?$mat@N$01$01@0@AEBNAEBU10@@Z
	??$cmul@NU?$mat@N$02$02@linalg@@@linalg@@YA?AU?$mat@N$02$02@0@AEBNAEBU10@@Z
	??$cmul@NU?$vec@N$01@linalg@@@linalg@@YA?AU?$vec@N$01@0@AEBNAEBU10@@Z
	??$cmul@NU?$vec@N$02@linalg@@@linalg@@YA?AU?$vec@N$02@0@AEBNAEBU10@@Z
	??$cmul@NU?$vec@N$03@linalg@@@linalg@@YA?AU?$vec@N$03@0@AEBNAEBU10@@Z
	??$cmul@U?$mat@N$02$02@linalg@@N@linalg@@YA?AU?$mat@N$02$02@0@AEBU10@AEBN@Z
	??$cmul@U?$vec@N$01@linalg@@N@linalg@@YA?AU?$vec@N$01@0@AEBU10@AEBN@Z
	??$cmul@U?$vec@N$01@linalg@@U12@@linalg@@YA?AU?$vec@N$01@0@AEBU10@0@Z
	??$cmul@U?$vec@N$02@linalg@@N@linalg@@YA?AU?$vec@N$02@0@AEBU10@AEBN@Z
	??$cmul@U?$vec@N$02@linalg@@U12@@linalg@@YA?AU?$vec@N$02@0@AEBU10@0@Z
	??$cmul@U?$vec@N$03@linalg@@U12@@linalg@@YA?AU?$vec@N$03@0@AEBU10@0@Z
	??$combine_each@V<lambda_2a1fff2746945d3d0a705fc8d5cb81b7>@@@?$combinable@VSparseIndices@manifold@@@d1@detail@tbb@@QEAAXV<lambda_2a1fff2746945d3d0a705fc8d5cb81b7>@@@Z
	??$combine_each@V<lambda_2a1fff2746945d3d0a705fc8d5cb81b7>@@@?$enumerable_thread_specific@VSparseIndices@manifold@@V?$cache_aligned_allocator@VSparseIndices@manifold@@@d1@detail@tbb@@$00@d1@detail@tbb@@QEAAXV<lambda_2a1fff2746945d3d0a705fc8d5cb81b7>@@@Z
	??$combine_each@V<lambda_7f90e08ea593715445d8978f8c0522ad>@@@?$combinable@VSparseIndices@manifold@@@d1@detail@tbb@@QEAAXV<lambda_7f90e08ea593715445d8978f8c0522ad>@@@Z
	??$combine_each@V<lambda_7f90e08ea593715445d8978f8c0522ad>@@@?$enumerable_thread_specific@VSparseIndices@manifold@@V?$cache_aligned_allocator@VSparseIndices@manifold@@@d1@detail@tbb@@$00@d1@detail@tbb@@QEAAXV<lambda_7f90e08ea593715445d8978f8c0522ad>@@@Z
	??$combine_each@V<lambda_80caf0d99927747362c28a4b2fa7f02e>@@@?$combinable@U?$Hist@_K$07@details@manifold@@@d1@detail@tbb@@QEAAXV<lambda_80caf0d99927747362c28a4b2fa7f02e>@@@Z
	??$combine_each@V<lambda_80caf0d99927747362c28a4b2fa7f02e>@@@?$enumerable_thread_specific@U?$Hist@_K$07@details@manifold@@V?$cache_aligned_allocator@U?$Hist@_K$07@details@manifold@@@d1@detail@tbb@@$00@d1@detail@tbb@@QEAAXV<lambda_80caf0d99927747362c28a4b2fa7f02e>@@@Z
	??$combine_each@V<lambda_88872d96faf0bc24068698d566eeef3a>@@@?$combinable@VSparseIndices@manifold@@@d1@detail@tbb@@QEAAXV<lambda_88872d96faf0bc24068698d566eeef3a>@@@Z
	??$combine_each@V<lambda_88872d96faf0bc24068698d566eeef3a>@@@?$enumerable_thread_specific@VSparseIndices@manifold@@V?$cache_aligned_allocator@VSparseIndices@manifold@@@d1@detail@tbb@@$00@d1@detail@tbb@@QEAAXV<lambda_88872d96faf0bc24068698d566eeef3a>@@@Z
	??$combine_each@V<lambda_ed4122aaeceba4e7a48771aca1c4de55>@@@?$combinable@VSparseIndices@manifold@@@d1@detail@tbb@@QEAAXV<lambda_ed4122aaeceba4e7a48771aca1c4de55>@@@Z
	??$combine_each@V<lambda_ed4122aaeceba4e7a48771aca1c4de55>@@@?$enumerable_thread_specific@VSparseIndices@manifold@@V?$cache_aligned_allocator@VSparseIndices@manifold@@@d1@detail@tbb@@$00@d1@detail@tbb@@QEAAXV<lambda_ed4122aaeceba4e7a48771aca1c4de55>@@@Z
	??$combine_each@V<lambda_fc4ae006126213f686a18ec1cc19265c>@@@?$combinable@VSparseIndices@manifold@@@d1@detail@tbb@@QEAAXV<lambda_fc4ae006126213f686a18ec1cc19265c>@@@Z
	??$combine_each@V<lambda_fc4ae006126213f686a18ec1cc19265c>@@@?$enumerable_thread_specific@VSparseIndices@manifold@@V?$cache_aligned_allocator@VSparseIndices@manifold@@@d1@detail@tbb@@$00@d1@detail@tbb@@QEAAXV<lambda_fc4ae006126213f686a18ec1cc19265c>@@@Z
	??$compare@U?$mat@N$01$02@linalg@@U12@@linalg@@YA?AU?$ord@N@detail@0@AEBU?$mat@N$01$02@0@0@Z
	??$compare@U?$mat@N$02$03@linalg@@U12@@linalg@@YA?AU?$ord@N@detail@0@AEBU?$mat@N$02$03@0@0@Z
	??$compare@U?$vec@H$02@linalg@@U12@@linalg@@YA?AU?$ord@H@detail@0@AEBU?$vec@H$02@0@0@Z
	??$compare@U?$vec@H$03@linalg@@U12@@linalg@@YA?AU?$ord@H@detail@0@AEBU?$vec@H$03@0@0@Z
	??$compare@U?$vec@N$01@linalg@@U12@@linalg@@YA?AU?$ord@N@detail@0@AEBU?$vec@N$01@0@0@Z
	??$compare@U?$vec@N$02@linalg@@U12@@linalg@@YA?AU?$ord@N@detail@0@AEBU?$vec@N$02@0@0@Z
	??$construct@H$$V@?$_Default_allocator_traits@V?$allocator@H@std@@@std@@SAXAEAV?$allocator@H@1@QEAH@Z
	??$construct@HAEBH@?$_Default_allocator_traits@V?$allocator@H@std@@@std@@SAXAEAV?$allocator@H@1@QEAHAEBH@Z
	??$construct@HAEBH@?$_Default_allocator_traits@V?$allocator@U?$_List_node@HPEAX@std@@@std@@@std@@SAXAEAV?$allocator@U?$_List_node@HPEAX@std@@@1@QEAHAEBH@Z
	??$construct@HH@?$_Default_allocator_traits@V?$allocator@H@std@@@std@@SAXAEAV?$allocator@H@1@QEAH$$QEAH@Z
	??$construct@I$$V@?$_Default_allocator_traits@V?$allocator@I@std@@@std@@SAXAEAV?$allocator@I@1@QEAI@Z
	??$construct@IAEAI@?$_Default_allocator_traits@V?$allocator@I@std@@@std@@SAXAEAV?$allocator@I@1@QEAIAEAI@Z
	??$construct@IAEBI@?$_Default_allocator_traits@V?$allocator@I@std@@@std@@SAXAEAV?$allocator@I@1@QEAIAEBI@Z
	??$construct@II@?$_Default_allocator_traits@V?$allocator@I@std@@@std@@SAXAEAV?$allocator@I@1@QEAI$$QEAI@Z
	??$construct@M$$V@?$_Default_allocator_traits@V?$allocator@M@std@@@std@@SAXAEAV?$allocator@M@1@QEAM@Z
	??$construct@MM@?$_Default_allocator_traits@V?$allocator@M@std@@@std@@SAXAEAV?$allocator@M@1@QEAM$$QEAM@Z
	??$construct@N$$V@?$_Default_allocator_traits@V?$allocator@N@std@@@std@@SAXAEAV?$allocator@N@1@QEAN@Z
	??$construct@NAEBN@?$_Default_allocator_traits@V?$allocator@N@std@@@std@@SAXAEAV?$allocator@N@1@QEANAEBN@Z
	??$construct@NN@?$_Default_allocator_traits@V?$allocator@N@std@@@std@@SAXAEAV?$allocator@N@1@QEAN$$QEAN@Z
	??$construct@U?$Point@N@Clipper2Lib@@$$V@?$_Default_allocator_traits@V?$allocator@U?$Point@N@Clipper2Lib@@@std@@@std@@SAXAEAV?$allocator@U?$Point@N@Clipper2Lib@@@1@QEAU?$Point@N@Clipper2Lib@@@Z
	??$construct@U?$Point@N@Clipper2Lib@@AEAU12@@?$_Default_allocator_traits@V?$allocator@U?$Point@N@Clipper2Lib@@@std@@@std@@SAXAEAV?$allocator@U?$Point@N@Clipper2Lib@@@1@QEAU?$Point@N@Clipper2Lib@@AEAU34@@Z
	??$construct@U?$Point@N@Clipper2Lib@@AEBU12@@?$_Default_allocator_traits@V?$allocator@U?$Point@N@Clipper2Lib@@@std@@@std@@SAXAEAV?$allocator@U?$Point@N@Clipper2Lib@@@1@QEAU?$Point@N@Clipper2Lib@@AEBU34@@Z
	??$construct@U?$Point@N@Clipper2Lib@@U12@@?$_Default_allocator_traits@V?$allocator@U?$Point@N@Clipper2Lib@@@std@@@std@@SAXAEAV?$allocator@U?$Point@N@Clipper2Lib@@@1@QEAU?$Point@N@Clipper2Lib@@$$QEAU34@@Z
	??$construct@U?$Point@_J@Clipper2Lib@@U12@@?$_Default_allocator_traits@V?$allocator@U?$Point@_J@Clipper2Lib@@@std@@@std@@SAXAEAV?$allocator@U?$Point@_J@Clipper2Lib@@@1@QEAU?$Point@_J@Clipper2Lib@@$$QEAU34@@Z
	??$construct@U?$atomic@PEAU?$padded@U?$ets_element@U?$Hist@_K$07@details@manifold@@@d1@detail@tbb@@$0IA@@d0@detail@tbb@@@std@@$$T@?$_Normal_allocator_traits@V?$cache_aligned_allocator@U?$atomic@PEAU?$padded@U?$ets_element@U?$Hist@_K$07@details@manifold@@@d1@detail@tbb@@$0IA@@d0@detail@tbb@@@std@@@d1@detail@tbb@@@std@@SAXAEAV?$cache_aligned_allocator@U?$atomic@PEAU?$padded@U?$ets_element@U?$Hist@_K$07@details@manifold@@@d1@detail@tbb@@$0IA@@d0@detail@tbb@@@std@@@d1@detail@tbb@@PEAU?$atomic@PEAU?$padded@U?$ets_element@U?$Hist@_K$07@details@manifold@@@d1@detail@tbb@@$0IA@@d0@detail@tbb@@@1@$$QEA$$T@Z
	??$construct@U?$atomic@PEAU?$padded@U?$ets_element@U?$Hist@_K$07@details@manifold@@@d1@detail@tbb@@$0IA@@d0@detail@tbb@@@std@@PEAU?$padded@U?$ets_element@U?$Hist@_K$07@details@manifold@@@d1@detail@tbb@@$0IA@@d0@detail@tbb@@@?$_Normal_allocator_traits@V?$cache_aligned_allocator@U?$atomic@PEAU?$padded@U?$ets_element@U?$Hist@_K$07@details@manifold@@@d1@detail@tbb@@$0IA@@d0@detail@tbb@@@std@@@d1@detail@tbb@@@std@@SAXAEAV?$cache_aligned_allocator@U?$atomic@PEAU?$padded@U?$ets_element@U?$Hist@_K$07@details@manifold@@@d1@detail@tbb@@$0IA@@d0@detail@tbb@@@std@@@d1@detail@tbb@@PEAU?$atomic@PEAU?$padded@U?$ets_element@U?$Hist@_K$07@details@manifold@@@d1@detail@tbb@@$0IA@@d0@detail@tbb@@@1@$$QEAPEAU?$padded@U?$ets_element@U?$Hist@_K$07@details@manifold@@@d1@detail@tbb@@$0IA@@d0@45@@Z
	??$construct@U?$atomic@PEAU?$padded@U?$ets_element@V?$linear_congruential_engine@I$0LMIP@$0A@$0HPPPPPPP@@std@@@d1@detail@tbb@@$0IA@@d0@detail@tbb@@@std@@$$T@?$_Normal_allocator_traits@V?$cache_aligned_allocator@U?$atomic@PEAU?$padded@U?$ets_element@V?$linear_congruential_engine@I$0LMIP@$0A@$0HPPPPPPP@@std@@@d1@detail@tbb@@$0IA@@d0@detail@tbb@@@std@@@d1@detail@tbb@@@std@@SAXAEAV?$cache_aligned_allocator@U?$atomic@PEAU?$padded@U?$ets_element@V?$linear_congruential_engine@I$0LMIP@$0A@$0HPPPPPPP@@std@@@d1@detail@tbb@@$0IA@@d0@detail@tbb@@@std@@@d1@detail@tbb@@PEAU?$atomic@PEAU?$padded@U?$ets_element@V?$linear_congruential_engine@I$0LMIP@$0A@$0HPPPPPPP@@std@@@d1@detail@tbb@@$0IA@@d0@detail@tbb@@@1@$$QEA$$T@Z
	??$construct@U?$atomic@PEAU?$padded@U?$ets_element@V?$linear_congruential_engine@I$0LMIP@$0A@$0HPPPPPPP@@std@@@d1@detail@tbb@@$0IA@@d0@detail@tbb@@@std@@PEAU?$padded@U?$ets_element@V?$linear_congruential_engine@I$0LMIP@$0A@$0HPPPPPPP@@std@@@d1@detail@tbb@@$0IA@@d0@detail@tbb@@@?$_Normal_allocator_traits@V?$cache_aligned_allocator@U?$atomic@PEAU?$padded@U?$ets_element@V?$linear_congruential_engine@I$0LMIP@$0A@$0HPPPPPPP@@std@@@d1@detail@tbb@@$0IA@@d0@detail@tbb@@@std@@@d1@detail@tbb@@@std@@SAXAEAV?$cache_aligned_allocator@U?$atomic@PEAU?$padded@U?$ets_element@V?$linear_congruential_engine@I$0LMIP@$0A@$0HPPPPPPP@@std@@@d1@detail@tbb@@$0IA@@d0@detail@tbb@@@std@@@d1@detail@tbb@@PEAU?$atomic@PEAU?$padded@U?$ets_element@V?$linear_congruential_engine@I$0LMIP@$0A@$0HPPPPPPP@@std@@@d1@detail@tbb@@$0IA@@d0@detail@tbb@@@1@$$QEAPEAU?$padded@U?$ets_element@V?$linear_congruential_engine@I$0LMIP@$0A@$0HPPPPPPP@@std@@@d1@detail@tbb@@$0IA@@d0@45@@Z
	??$construct@U?$atomic@PEAU?$padded@U?$ets_element@VSparseIndices@manifold@@@d1@detail@tbb@@$0IA@@d0@detail@tbb@@@std@@$$T@?$_Normal_allocator_traits@V?$cache_aligned_allocator@U?$atomic@PEAU?$padded@U?$ets_element@VSparseIndices@manifold@@@d1@detail@tbb@@$0IA@@d0@detail@tbb@@@std@@@d1@detail@tbb@@@std@@SAXAEAV?$cache_aligned_allocator@U?$atomic@PEAU?$padded@U?$ets_element@VSparseIndices@manifold@@@d1@detail@tbb@@$0IA@@d0@detail@tbb@@@std@@@d1@detail@tbb@@PEAU?$atomic@PEAU?$padded@U?$ets_element@VSparseIndices@manifold@@@d1@detail@tbb@@$0IA@@d0@detail@tbb@@@1@$$QEA$$T@Z
	??$construct@U?$atomic@PEAU?$padded@U?$ets_element@VSparseIndices@manifold@@@d1@detail@tbb@@$0IA@@d0@detail@tbb@@@std@@PEAU?$padded@U?$ets_element@VSparseIndices@manifold@@@d1@detail@tbb@@$0IA@@d0@detail@tbb@@@?$_Normal_allocator_traits@V?$cache_aligned_allocator@U?$atomic@PEAU?$padded@U?$ets_element@VSparseIndices@manifold@@@d1@detail@tbb@@$0IA@@d0@detail@tbb@@@std@@@d1@detail@tbb@@@std@@SAXAEAV?$cache_aligned_allocator@U?$atomic@PEAU?$padded@U?$ets_element@VSparseIndices@manifold@@@d1@detail@tbb@@$0IA@@d0@detail@tbb@@@std@@@d1@detail@tbb@@PEAU?$atomic@PEAU?$padded@U?$ets_element@VSparseIndices@manifold@@@d1@detail@tbb@@$0IA@@d0@detail@tbb@@@1@$$QEAPEAU?$padded@U?$ets_element@VSparseIndices@manifold@@@d1@detail@tbb@@$0IA@@d0@45@@Z
	??$construct@U?$atomic@PEAV?$list_node@_K@d2@detail@tbb@@@std@@$$T@?$_Normal_allocator_traits@V?$tbb_allocator@U?$atomic@PEAV?$list_node@_K@d2@detail@tbb@@@std@@@d1@detail@tbb@@@std@@SAXAEAV?$tbb_allocator@U?$atomic@PEAV?$list_node@_K@d2@detail@tbb@@@std@@@d1@detail@tbb@@PEAU?$atomic@PEAV?$list_node@_K@d2@detail@tbb@@@1@$$QEA$$T@Z
	??$construct@U?$mat@N$02$02@linalg@@U12@@?$_Default_allocator_traits@V?$allocator@U?$mat@N$02$02@linalg@@@std@@@std@@SAXAEAV?$allocator@U?$mat@N$02$02@linalg@@@1@QEAU?$mat@N$02$02@linalg@@$$QEAU34@@Z
	??$construct@U?$padded@U?$ets_element@U?$Hist@_K$07@details@manifold@@@d1@detail@tbb@@$0IA@@d0@detail@tbb@@$$V@?$_Normal_allocator_traits@V?$cache_aligned_allocator@U?$atomic@PEAU?$padded@U?$ets_element@U?$Hist@_K$07@details@manifold@@@d1@detail@tbb@@$0IA@@d0@detail@tbb@@@std@@@d1@detail@tbb@@@std@@SAXAEAV?$cache_aligned_allocator@U?$atomic@PEAU?$padded@U?$ets_element@U?$Hist@_K$07@details@manifold@@@d1@detail@tbb@@$0IA@@d0@detail@tbb@@@std@@@d1@detail@tbb@@PEAU?$padded@U?$ets_element@U?$Hist@_K$07@details@manifold@@@d1@detail@tbb@@$0IA@@d0@45@@Z
	??$construct@U?$padded@U?$ets_element@V?$linear_congruential_engine@I$0LMIP@$0A@$0HPPPPPPP@@std@@@d1@detail@tbb@@$0IA@@d0@detail@tbb@@$$V@?$_Normal_allocator_traits@V?$cache_aligned_allocator@U?$atomic@PEAU?$padded@U?$ets_element@V?$linear_congruential_engine@I$0LMIP@$0A@$0HPPPPPPP@@std@@@d1@detail@tbb@@$0IA@@d0@detail@tbb@@@std@@@d1@detail@tbb@@@std@@SAXAEAV?$cache_aligned_allocator@U?$atomic@PEAU?$padded@U?$ets_element@V?$linear_congruential_engine@I$0LMIP@$0A@$0HPPPPPPP@@std@@@d1@detail@tbb@@$0IA@@d0@detail@tbb@@@std@@@d1@detail@tbb@@PEAU?$padded@U?$ets_element@V?$linear_congruential_engine@I$0LMIP@$0A@$0HPPPPPPP@@std@@@d1@detail@tbb@@$0IA@@d0@45@@Z
	??$construct@U?$padded@U?$ets_element@VSparseIndices@manifold@@@d1@detail@tbb@@$0IA@@d0@detail@tbb@@$$V@?$_Normal_allocator_traits@V?$cache_aligned_allocator@U?$atomic@PEAU?$padded@U?$ets_element@VSparseIndices@manifold@@@d1@detail@tbb@@$0IA@@d0@detail@tbb@@@std@@@d1@detail@tbb@@@std@@SAXAEAV?$cache_aligned_allocator@U?$atomic@PEAU?$padded@U?$ets_element@VSparseIndices@manifold@@@d1@detail@tbb@@$0IA@@d0@detail@tbb@@@std@@@d1@detail@tbb@@PEAU?$padded@U?$ets_element@VSparseIndices@manifold@@@d1@detail@tbb@@$0IA@@d0@45@@Z
	??$construct@U?$pair@$$CBHH@std@@AEBUpiecewise_construct_t@2@V?$tuple@$$QEAH@2@V?$tuple@$$V@2@@?$_Default_allocator_traits@V?$allocator@U?$_List_node@U?$pair@$$CBHH@std@@PEAX@std@@@std@@@std@@SAXAEAV?$allocator@U?$_List_node@U?$pair@$$CBHH@std@@PEAX@std@@@1@QEAU?$pair@$$CBHH@1@AEBUpiecewise_construct_t@1@$$QEAV?$tuple@$$QEAH@1@$$QEAV?$tuple@$$V@1@@Z
	??$construct@U?$pair@$$CBHH@std@@U?$pair@HH@2@@?$_Default_allocator_traits@V?$allocator@U?$_List_node@U?$pair@$$CBHH@std@@PEAX@std@@@std@@@std@@SAXAEAV?$allocator@U?$_List_node@U?$pair@$$CBHH@std@@PEAX@std@@@1@QEAU?$pair@$$CBHH@1@$$QEAU?$pair@HH@1@@Z
	??$construct@U?$pair@$$CBHH@std@@U?$pair@HH@2@@?$_Default_allocator_traits@V?$allocator@U?$_Tree_node@U?$pair@$$CBHH@std@@PEAX@std@@@std@@@std@@SAXAEAV?$allocator@U?$_Tree_node@U?$pair@$$CBHH@std@@PEAX@std@@@1@QEAU?$pair@$$CBHH@1@$$QEAU?$pair@HH@1@@Z
	??$construct@U?$pair@$$CBHU?$pair@USmoothness@manifold@@U12@@std@@@std@@AEBUpiecewise_construct_t@2@V?$tuple@AEBH@2@V?$tuple@$$V@2@@?$_Default_allocator_traits@V?$allocator@U?$_Tree_node@U?$pair@$$CBHU?$pair@USmoothness@manifold@@U12@@std@@@std@@PEAX@std@@@std@@@std@@SAXAEAV?$allocator@U?$_Tree_node@U?$pair@$$CBHU?$pair@USmoothness@manifold@@U12@@std@@@std@@PEAX@std@@@1@QEAU?$pair@$$CBHU?$pair@USmoothness@manifold@@U12@@std@@@1@AEBUpiecewise_construct_t@1@$$QEAV?$tuple@AEBH@1@$$QEAV?$tuple@$$V@1@@Z
	??$construct@U?$pair@$$CBHURelation@Impl@Manifold@manifold@@@std@@AEAU12@@?$_Default_allocator_traits@V?$allocator@U?$_Tree_node@U?$pair@$$CBHURelation@Impl@Manifold@manifold@@@std@@PEAX@std@@@std@@@std@@SAXAEAV?$allocator@U?$_Tree_node@U?$pair@$$CBHURelation@Impl@Manifold@manifold@@@std@@PEAX@std@@@1@QEAU?$pair@$$CBHURelation@Impl@Manifold@manifold@@@1@AEAU31@@Z
	??$construct@U?$pair@$$CBHURelation@Impl@Manifold@manifold@@@std@@AEBUpiecewise_construct_t@2@V?$tuple@$$QEAH@2@V?$tuple@$$V@2@@?$_Default_allocator_traits@V?$allocator@U?$_Tree_node@U?$pair@$$CBHURelation@Impl@Manifold@manifold@@@std@@PEAX@std@@@std@@@std@@SAXAEAV?$allocator@U?$_Tree_node@U?$pair@$$CBHURelation@Impl@Manifold@manifold@@@std@@PEAX@std@@@1@QEAU?$pair@$$CBHURelation@Impl@Manifold@manifold@@@1@AEBUpiecewise_construct_t@1@$$QEAV?$tuple@$$QEAH@1@$$QEAV?$tuple@$$V@1@@Z
	??$construct@U?$pair@$$CBHURelation@Impl@Manifold@manifold@@@std@@AEBUpiecewise_construct_t@2@V?$tuple@AEBH@2@V?$tuple@$$V@2@@?$_Default_allocator_traits@V?$allocator@U?$_Tree_node@U?$pair@$$CBHURelation@Impl@Manifold@manifold@@@std@@PEAX@std@@@std@@@std@@SAXAEAV?$allocator@U?$_Tree_node@U?$pair@$$CBHURelation@Impl@Manifold@manifold@@@std@@PEAX@std@@@1@QEAU?$pair@$$CBHURelation@Impl@Manifold@manifold@@@1@AEBUpiecewise_construct_t@1@$$QEAV?$tuple@AEBH@1@$$QEAV?$tuple@$$V@1@@Z
	??$construct@U?$pair@$$CBHV?$vector@U?$pair@USmoothness@manifold@@U12@@std@@V?$allocator@U?$pair@USmoothness@manifold@@U12@@std@@@2@@std@@@std@@AEBUpiecewise_construct_t@2@V?$tuple@AEBH@2@V?$tuple@$$V@2@@?$_Default_allocator_traits@V?$allocator@U?$_Tree_node@U?$pair@$$CBHV?$vector@U?$pair@USmoothness@manifold@@U12@@std@@V?$allocator@U?$pair@USmoothness@manifold@@U12@@std@@@2@@std@@@std@@PEAX@std@@@std@@@std@@SAXAEAV?$allocator@U?$_Tree_node@U?$pair@$$CBHV?$vector@U?$pair@USmoothness@manifold@@U12@@std@@V?$allocator@U?$pair@USmoothness@manifold@@U12@@std@@@2@@std@@@std@@PEAX@std@@@1@QEAU?$pair@$$CBHV?$vector@U?$pair@USmoothness@manifold@@U12@@std@@V?$allocator@U?$pair@USmoothness@manifold@@U12@@std@@@2@@std@@@1@AEBUpiecewise_construct_t@1@$$QEAV?$tuple@AEBH@1@$$QEAV?$tuple@$$V@1@@Z
	??$construct@U?$pair@$$CBHV?$vector@U?$vec@H$02@linalg@@V?$allocator@U?$vec@H$02@linalg@@@std@@@std@@@std@@AEBUpiecewise_construct_t@2@V?$tuple@$$QEAH@2@V?$tuple@$$V@2@@?$_Normal_allocator_traits@V?$tbb_allocator@V?$value_node@U?$pair@$$CBHV?$vector@U?$vec@H$02@linalg@@V?$allocator@U?$vec@H$02@linalg@@@std@@@std@@@std@@_K@d2@detail@tbb@@@d1@detail@tbb@@@std@@SAXAEAV?$tbb_allocator@V?$value_node@U?$pair@$$CBHV?$vector@U?$vec@H$02@linalg@@V?$allocator@U?$vec@H$02@linalg@@@std@@@std@@@std@@_K@d2@detail@tbb@@@d1@detail@tbb@@PEAU?$pair@$$CBHV?$vector@U?$vec@H$02@linalg@@V?$allocator@U?$vec@H$02@linalg@@@std@@@std@@@1@AEBUpiecewise_construct_t@1@$$QEAV?$tuple@$$QEAH@1@$$QEAV?$tuple@$$V@1@@Z
	??$construct@U?$pair@$$CB_K_K@std@@AEBUpiecewise_construct_t@2@V?$tuple@$$QEA_K@2@V?$tuple@$$V@2@@?$_Default_allocator_traits@V?$allocator@U?$_List_node@U?$pair@$$CB_K_K@std@@PEAX@std@@@std@@@std@@SAXAEAV?$allocator@U?$_List_node@U?$pair@$$CB_K_K@std@@PEAX@std@@@1@QEAU?$pair@$$CB_K_K@1@AEBUpiecewise_construct_t@1@$$QEAV?$tuple@$$QEA_K@1@$$QEAV?$tuple@$$V@1@@Z
	??$construct@U?$pair@$$CB_K_K@std@@AEBUpiecewise_construct_t@2@V?$tuple@AEB_K@2@V?$tuple@$$V@2@@?$_Default_allocator_traits@V?$allocator@U?$_List_node@U?$pair@$$CB_K_K@std@@PEAX@std@@@std@@@std@@SAXAEAV?$allocator@U?$_List_node@U?$pair@$$CB_K_K@std@@PEAX@std@@@1@QEAU?$pair@$$CB_K_K@1@AEBUpiecewise_construct_t@1@$$QEAV?$tuple@AEB_K@1@$$QEAV?$tuple@$$V@1@@Z
	??$construct@U?$pair@HH@std@@AEBU12@@?$_Default_allocator_traits@V?$allocator@U?$_Tree_node@U?$pair@HH@std@@PEAX@std@@@std@@@std@@SAXAEAV?$allocator@U?$_Tree_node@U?$pair@HH@std@@PEAX@std@@@1@QEAU?$pair@HH@1@AEBU31@@Z
	??$construct@U?$pair@U?$vec@H$02@linalg@@H@std@@U12@@?$_Default_allocator_traits@V?$allocator@U?$pair@U?$vec@H$02@linalg@@H@std@@@std@@@std@@SAXAEAV?$allocator@U?$pair@U?$vec@H$02@linalg@@H@std@@@1@QEAU?$pair@U?$vec@H$02@linalg@@H@1@$$QEAU31@@Z
	??$construct@U?$pair@USmoothness@manifold@@U12@@std@@AEBU12@@?$_Default_allocator_traits@V?$allocator@U?$pair@USmoothness@manifold@@U12@@std@@@std@@@std@@SAXAEAV?$allocator@U?$pair@USmoothness@manifold@@U12@@std@@@1@QEAU?$pair@USmoothness@manifold@@U12@@1@AEBU31@@Z
	??$construct@U?$pair@USmoothness@manifold@@U12@@std@@U12@@?$_Default_allocator_traits@V?$allocator@U?$pair@USmoothness@manifold@@U12@@std@@@std@@@std@@SAXAEAV?$allocator@U?$pair@USmoothness@manifold@@U12@@std@@@1@QEAU?$pair@USmoothness@manifold@@U12@@1@$$QEAU31@@Z
	??$construct@U?$vec@H$01@linalg@@U12@@?$_Default_allocator_traits@V?$allocator@U?$vec@H$01@linalg@@@std@@@std@@SAXAEAV?$allocator@U?$vec@H$01@linalg@@@1@QEAU?$vec@H$01@linalg@@$$QEAU34@@Z
	??$construct@U?$vec@H$02@linalg@@AEAU12@@?$_Default_allocator_traits@V?$allocator@U?$vec@H$02@linalg@@@std@@@std@@SAXAEAV?$allocator@U?$vec@H$02@linalg@@@1@QEAU?$vec@H$02@linalg@@AEAU34@@Z
	??$construct@U?$vec@H$02@linalg@@AEBU12@@?$_Default_allocator_traits@V?$allocator@U?$vec@H$02@linalg@@@std@@@std@@SAXAEAV?$allocator@U?$vec@H$02@linalg@@@1@QEAU?$vec@H$02@linalg@@AEBU34@@Z
	??$construct@U?$vec@H$02@linalg@@U12@@?$_Default_allocator_traits@V?$allocator@U?$vec@H$02@linalg@@@std@@@std@@SAXAEAV?$allocator@U?$vec@H$02@linalg@@@1@QEAU?$vec@H$02@linalg@@$$QEAU34@@Z
	??$construct@U?$vec@N$01@linalg@@$$V@?$_Default_allocator_traits@V?$allocator@U?$vec@N$01@linalg@@@std@@@std@@SAXAEAV?$allocator@U?$vec@N$01@linalg@@@1@QEAU?$vec@N$01@linalg@@@Z
	??$construct@U?$vec@N$01@linalg@@AEAU12@@?$_Default_allocator_traits@V?$allocator@U?$vec@N$01@linalg@@@std@@@std@@SAXAEAV?$allocator@U?$vec@N$01@linalg@@@1@QEAU?$vec@N$01@linalg@@AEAU34@@Z
	??$construct@U?$vec@N$01@linalg@@AEBU12@@?$_Default_allocator_traits@V?$allocator@U?$vec@N$01@linalg@@@std@@@std@@SAXAEAV?$allocator@U?$vec@N$01@linalg@@@1@QEAU?$vec@N$01@linalg@@AEBU34@@Z
	??$construct@U?$vec@N$01@linalg@@U12@@?$_Default_allocator_traits@V?$allocator@U?$vec@N$01@linalg@@@std@@@std@@SAXAEAV?$allocator@U?$vec@N$01@linalg@@@1@QEAU?$vec@N$01@linalg@@$$QEAU34@@Z
	??$construct@U?$vec@N$02@linalg@@AEBU12@@?$_Default_allocator_traits@V?$allocator@U?$vec@N$02@linalg@@@std@@@std@@SAXAEAV?$allocator@U?$vec@N$02@linalg@@@1@QEAU?$vec@N$02@linalg@@AEBU34@@Z
	??$construct@U?$vec@N$02@linalg@@U12@@?$_Default_allocator_traits@V?$allocator@U?$vec@N$02@linalg@@@std@@@std@@SAXAEAV?$allocator@U?$vec@N$02@linalg@@@1@QEAU?$vec@N$02@linalg@@$$QEAU34@@Z
	??$construct@UFace@MeshBuilder@manifold@@$$V@?$_Default_allocator_traits@V?$allocator@UFace@MeshBuilder@manifold@@@std@@@std@@SAXAEAV?$allocator@UFace@MeshBuilder@manifold@@@1@QEAUFace@MeshBuilder@manifold@@@Z
	??$construct@UFace@MeshBuilder@manifold@@H@?$_Default_allocator_traits@V?$allocator@UFace@MeshBuilder@manifold@@@std@@@std@@SAXAEAV?$allocator@UFace@MeshBuilder@manifold@@@1@QEAUFace@MeshBuilder@manifold@@$$QEAH@Z
	??$construct@UFace@MeshBuilder@manifold@@U123@@?$_Default_allocator_traits@V?$allocator@UFace@MeshBuilder@manifold@@@std@@@std@@SAXAEAV?$allocator@UFace@MeshBuilder@manifold@@@1@QEAUFace@MeshBuilder@manifold@@$$QEAU345@@Z
	??$construct@UHalfedge@manifold@@U12@@?$_Default_allocator_traits@V?$allocator@UHalfedge@manifold@@@std@@@std@@SAXAEAV?$allocator@UHalfedge@manifold@@@1@QEAUHalfedge@manifold@@$$QEAU34@@Z
	??$construct@UPolyVert@manifold@@AEAU12@@?$_Default_allocator_traits@V?$allocator@UPolyVert@manifold@@@std@@@std@@SAXAEAV?$allocator@UPolyVert@manifold@@@1@QEAUPolyVert@manifold@@AEAU34@@Z
	??$construct@UPolyVert@manifold@@U12@@?$_Default_allocator_traits@V?$allocator@UPolyVert@manifold@@@std@@@std@@SAXAEAV?$allocator@UPolyVert@manifold@@@1@QEAUPolyVert@manifold@@$$QEAU34@@Z
	??$construct@USmoothness@manifold@@AEAU12@@?$_Default_allocator_traits@V?$allocator@USmoothness@manifold@@@std@@@std@@SAXAEAV?$allocator@USmoothness@manifold@@@1@QEAUSmoothness@manifold@@AEAU34@@Z
	??$construct@USmoothness@manifold@@U12@@?$_Default_allocator_traits@V?$allocator@USmoothness@manifold@@@std@@@std@@SAXAEAV?$allocator@USmoothness@manifold@@@1@QEAUSmoothness@manifold@@$$QEAU34@@Z
	??$construct@V?$Vec@_K@manifold@@AEAV12@@?$_Default_allocator_traits@V?$allocator@V?$Vec@_K@manifold@@@std@@@std@@SAXAEAV?$allocator@V?$Vec@_K@manifold@@@1@QEAV?$Vec@_K@manifold@@AEAV34@@Z
	??$construct@V?$Vec@_K@manifold@@V12@@?$_Default_allocator_traits@V?$allocator@V?$Vec@_K@manifold@@@std@@@std@@SAXAEAV?$allocator@V?$Vec@_K@manifold@@@1@QEAV?$Vec@_K@manifold@@$$QEAV34@@Z
	??$construct@V?$list_node@_K@d2@detail@tbb@@AEA_K@?$_Normal_allocator_traits@V?$tbb_allocator@V?$list_node@_K@d2@detail@tbb@@@d1@detail@tbb@@@std@@SAXAEAV?$tbb_allocator@V?$list_node@_K@d2@detail@tbb@@@d1@detail@tbb@@PEAV?$list_node@_K@d2@45@AEA_K@Z
	??$construct@V?$shared_ptr@UCsgStackFrame@manifold@@@std@@V12@@?$_Default_allocator_traits@V?$allocator@V?$shared_ptr@UCsgStackFrame@manifold@@@std@@@std@@@std@@SAXAEAV?$allocator@V?$shared_ptr@UCsgStackFrame@manifold@@@std@@@1@QEAV?$shared_ptr@UCsgStackFrame@manifold@@@1@$$QEAV31@@Z
	??$construct@V?$shared_ptr@VCsgLeafNode@manifold@@@std@@AEBV12@@?$_Default_allocator_traits@V?$allocator@V?$shared_ptr@VCsgLeafNode@manifold@@@std@@@std@@@std@@SAXAEAV?$allocator@V?$shared_ptr@VCsgLeafNode@manifold@@@std@@@1@QEAV?$shared_ptr@VCsgLeafNode@manifold@@@1@AEBV31@@Z
	??$construct@V?$shared_ptr@VCsgLeafNode@manifold@@@std@@AEBV12@@?$_Normal_allocator_traits@V?$cache_aligned_allocator@V?$shared_ptr@VCsgLeafNode@manifold@@@std@@@d1@detail@tbb@@@std@@SAXAEAV?$cache_aligned_allocator@V?$shared_ptr@VCsgLeafNode@manifold@@@std@@@d1@detail@tbb@@PEAV?$shared_ptr@VCsgLeafNode@manifold@@@1@AEBV61@@Z
	??$construct@V?$shared_ptr@VCsgLeafNode@manifold@@@std@@V12@@?$_Default_allocator_traits@V?$allocator@V?$shared_ptr@VCsgLeafNode@manifold@@@std@@@std@@@std@@SAXAEAV?$allocator@V?$shared_ptr@VCsgLeafNode@manifold@@@std@@@1@QEAV?$shared_ptr@VCsgLeafNode@manifold@@@1@$$QEAV31@@Z
	??$construct@V?$shared_ptr@VCsgLeafNode@manifold@@@std@@V12@@?$_Normal_allocator_traits@V?$cache_aligned_allocator@V?$shared_ptr@VCsgLeafNode@manifold@@@std@@@d1@detail@tbb@@@std@@SAXAEAV?$cache_aligned_allocator@V?$shared_ptr@VCsgLeafNode@manifold@@@std@@@d1@detail@tbb@@PEAV?$shared_ptr@VCsgLeafNode@manifold@@@1@$$QEAV61@@Z
	??$construct@V?$shared_ptr@VCsgNode@manifold@@@std@@AEAV12@@?$_Default_allocator_traits@V?$allocator@V?$shared_ptr@VCsgNode@manifold@@@std@@@std@@@std@@SAXAEAV?$allocator@V?$shared_ptr@VCsgNode@manifold@@@std@@@1@QEAV?$shared_ptr@VCsgNode@manifold@@@1@AEAV31@@Z
	??$construct@V?$shared_ptr@VCsgNode@manifold@@@std@@AEBV12@@?$_Default_allocator_traits@V?$allocator@V?$shared_ptr@VCsgNode@manifold@@@std@@@std@@@std@@SAXAEAV?$allocator@V?$shared_ptr@VCsgNode@manifold@@@std@@@1@QEAV?$shared_ptr@VCsgNode@manifold@@@1@AEBV31@@Z
	??$construct@V?$shared_ptr@VCsgNode@manifold@@@std@@V12@@?$_Default_allocator_traits@V?$allocator@V?$shared_ptr@VCsgNode@manifold@@@std@@@std@@@std@@SAXAEAV?$allocator@V?$shared_ptr@VCsgNode@manifold@@@std@@@1@QEAV?$shared_ptr@VCsgNode@manifold@@@1@$$QEAV31@@Z
	??$construct@V?$shared_ptr@VCsgOpNode@manifold@@@std@@V12@@?$_Default_allocator_traits@V?$allocator@V?$shared_ptr@VCsgOpNode@manifold@@@std@@@std@@@std@@SAXAEAV?$allocator@V?$shared_ptr@VCsgOpNode@manifold@@@std@@@1@QEAV?$shared_ptr@VCsgOpNode@manifold@@@1@$$QEAV31@@Z
	??$construct@V?$unique_ptr@V?$Vec@_K@manifold@@U?$default_delete@V?$Vec@_K@manifold@@@std@@@std@@V12@@?$_Default_allocator_traits@V?$allocator@V?$unique_ptr@V?$Vec@_K@manifold@@U?$default_delete@V?$Vec@_K@manifold@@@std@@@std@@@std@@@std@@SAXAEAV?$allocator@V?$unique_ptr@V?$Vec@_K@manifold@@U?$default_delete@V?$Vec@_K@manifold@@@std@@@std@@@1@QEAV?$unique_ptr@V?$Vec@_K@manifold@@U?$default_delete@V?$Vec@_K@manifold@@@std@@@1@$$QEAV31@@Z
	??$construct@V?$unique_ptr@VPolyPathD@Clipper2Lib@@U?$default_delete@VPolyPathD@Clipper2Lib@@@std@@@std@@$$V@?$_Default_allocator_traits@V?$allocator@V?$unique_ptr@VPolyPathD@Clipper2Lib@@U?$default_delete@VPolyPathD@Clipper2Lib@@@std@@@std@@@std@@@std@@SAXAEAV?$allocator@V?$unique_ptr@VPolyPathD@Clipper2Lib@@U?$default_delete@VPolyPathD@Clipper2Lib@@@std@@@std@@@1@QEAV?$unique_ptr@VPolyPathD@Clipper2Lib@@U?$default_delete@VPolyPathD@Clipper2Lib@@@std@@@1@@Z
	??$construct@V?$unique_ptr@VPolyPathD@Clipper2Lib@@U?$default_delete@VPolyPathD@Clipper2Lib@@@std@@@std@@V12@@?$_Default_allocator_traits@V?$allocator@V?$unique_ptr@VPolyPathD@Clipper2Lib@@U?$default_delete@VPolyPathD@Clipper2Lib@@@std@@@std@@@std@@@std@@SAXAEAV?$allocator@V?$unique_ptr@VPolyPathD@Clipper2Lib@@U?$default_delete@VPolyPathD@Clipper2Lib@@@std@@@std@@@1@QEAV?$unique_ptr@VPolyPathD@Clipper2Lib@@U?$default_delete@VPolyPathD@Clipper2Lib@@@std@@@1@$$QEAV31@@Z
	??$construct@V?$value_node@U?$pair@$$CBHV?$vector@U?$vec@H$02@linalg@@V?$allocator@U?$vec@H$02@linalg@@@std@@@std@@@std@@_K@d2@detail@tbb@@AEA_K@?$_Normal_allocator_traits@V?$tbb_allocator@V?$value_node@U?$pair@$$CBHV?$vector@U?$vec@H$02@linalg@@V?$allocator@U?$vec@H$02@linalg@@@std@@@std@@@std@@_K@d2@detail@tbb@@@d1@detail@tbb@@@std@@SAXAEAV?$tbb_allocator@V?$value_node@U?$pair@$$CBHV?$vector@U?$vec@H$02@linalg@@V?$allocator@U?$vec@H$02@linalg@@@std@@@std@@@std@@_K@d2@detail@tbb@@@d1@detail@tbb@@PEAV?$value_node@U?$pair@$$CBHV?$vector@U?$vec@H$02@linalg@@V?$allocator@U?$vec@H$02@linalg@@@std@@@std@@@std@@_K@d2@45@AEA_K@Z
	??$construct@V?$vector@U?$Point@N@Clipper2Lib@@V?$allocator@U?$Point@N@Clipper2Lib@@@std@@@std@@$$V@?$_Default_allocator_traits@V?$allocator@V?$vector@U?$Point@N@Clipper2Lib@@V?$allocator@U?$Point@N@Clipper2Lib@@@std@@@std@@@std@@@std@@SAXAEAV?$allocator@V?$vector@U?$Point@N@Clipper2Lib@@V?$allocator@U?$Point@N@Clipper2Lib@@@std@@@std@@@1@QEAV?$vector@U?$Point@N@Clipper2Lib@@V?$allocator@U?$Point@N@Clipper2Lib@@@std@@@1@@Z
	??$construct@V?$vector@U?$Point@N@Clipper2Lib@@V?$allocator@U?$Point@N@Clipper2Lib@@@std@@@std@@AEAV12@@?$_Default_allocator_traits@V?$allocator@V?$vector@U?$Point@N@Clipper2Lib@@V?$allocator@U?$Point@N@Clipper2Lib@@@std@@@std@@@std@@@std@@SAXAEAV?$allocator@V?$vector@U?$Point@N@Clipper2Lib@@V?$allocator@U?$Point@N@Clipper2Lib@@@std@@@std@@@1@QEAV?$vector@U?$Point@N@Clipper2Lib@@V?$allocator@U?$Point@N@Clipper2Lib@@@std@@@1@AEAV31@@Z
	??$construct@V?$vector@U?$Point@N@Clipper2Lib@@V?$allocator@U?$Point@N@Clipper2Lib@@@std@@@std@@AEBV12@@?$_Default_allocator_traits@V?$allocator@V?$vector@U?$Point@N@Clipper2Lib@@V?$allocator@U?$Point@N@Clipper2Lib@@@std@@@std@@@std@@@std@@SAXAEAV?$allocator@V?$vector@U?$Point@N@Clipper2Lib@@V?$allocator@U?$Point@N@Clipper2Lib@@@std@@@std@@@1@QEAV?$vector@U?$Point@N@Clipper2Lib@@V?$allocator@U?$Point@N@Clipper2Lib@@@std@@@1@AEBV31@@Z
	??$construct@V?$vector@U?$Point@N@Clipper2Lib@@V?$allocator@U?$Point@N@Clipper2Lib@@@std@@@std@@V12@@?$_Default_allocator_traits@V?$allocator@V?$vector@U?$Point@N@Clipper2Lib@@V?$allocator@U?$Point@N@Clipper2Lib@@@std@@@std@@@std@@@std@@SAXAEAV?$allocator@V?$vector@U?$Point@N@Clipper2Lib@@V?$allocator@U?$Point@N@Clipper2Lib@@@std@@@std@@@1@QEAV?$vector@U?$Point@N@Clipper2Lib@@V?$allocator@U?$Point@N@Clipper2Lib@@@std@@@1@$$QEAV31@@Z
	??$construct@V?$vector@U?$Point@_J@Clipper2Lib@@V?$allocator@U?$Point@_J@Clipper2Lib@@@std@@@std@@V12@@?$_Default_allocator_traits@V?$allocator@V?$vector@U?$Point@_J@Clipper2Lib@@V?$allocator@U?$Point@_J@Clipper2Lib@@@std@@@std@@@std@@@std@@SAXAEAV?$allocator@V?$vector@U?$Point@_J@Clipper2Lib@@V?$allocator@U?$Point@_J@Clipper2Lib@@@std@@@std@@@1@QEAV?$vector@U?$Point@_J@Clipper2Lib@@V?$allocator@U?$Point@_J@Clipper2Lib@@@std@@@1@$$QEAV31@@Z
	??$construct@V?$vector@U?$pair@U?$vec@H$02@linalg@@H@std@@V?$allocator@U?$pair@U?$vec@H$02@linalg@@H@std@@@2@@std@@$$V@?$_Default_allocator_traits@V?$allocator@V?$vector@U?$pair@U?$vec@H$02@linalg@@H@std@@V?$allocator@U?$pair@U?$vec@H$02@linalg@@H@std@@@2@@std@@@std@@@std@@SAXAEAV?$allocator@V?$vector@U?$pair@U?$vec@H$02@linalg@@H@std@@V?$allocator@U?$pair@U?$vec@H$02@linalg@@H@std@@@2@@std@@@1@QEAV?$vector@U?$pair@U?$vec@H$02@linalg@@H@std@@V?$allocator@U?$pair@U?$vec@H$02@linalg@@H@std@@@2@@1@@Z
	??$construct@V?$vector@U?$vec@H$01@linalg@@V?$allocator@U?$vec@H$01@linalg@@@std@@@std@@$$V@?$_Default_allocator_traits@V?$allocator@V?$vector@U?$vec@H$01@linalg@@V?$allocator@U?$vec@H$01@linalg@@@std@@@std@@@std@@@std@@SAXAEAV?$allocator@V?$vector@U?$vec@H$01@linalg@@V?$allocator@U?$vec@H$01@linalg@@@std@@@std@@@1@QEAV?$vector@U?$vec@H$01@linalg@@V?$allocator@U?$vec@H$01@linalg@@@std@@@1@@Z
	??$construct@V?$vector@U?$vec@N$01@linalg@@V?$allocator@U?$vec@N$01@linalg@@@std@@@std@@AEBV12@@?$_Default_allocator_traits@V?$allocator@V?$vector@U?$vec@N$01@linalg@@V?$allocator@U?$vec@N$01@linalg@@@std@@@std@@@std@@@std@@SAXAEAV?$allocator@V?$vector@U?$vec@N$01@linalg@@V?$allocator@U?$vec@N$01@linalg@@@std@@@std@@@1@QEAV?$vector@U?$vec@N$01@linalg@@V?$allocator@U?$vec@N$01@linalg@@@std@@@1@AEBV31@@Z
	??$construct@V?$vector@U?$vec@N$01@linalg@@V?$allocator@U?$vec@N$01@linalg@@@std@@@std@@V12@@?$_Default_allocator_traits@V?$allocator@V?$vector@U?$vec@N$01@linalg@@V?$allocator@U?$vec@N$01@linalg@@@std@@@std@@@std@@@std@@SAXAEAV?$allocator@V?$vector@U?$vec@N$01@linalg@@V?$allocator@U?$vec@N$01@linalg@@@std@@@std@@@1@QEAV?$vector@U?$vec@N$01@linalg@@V?$allocator@U?$vec@N$01@linalg@@@std@@@1@$$QEAV31@@Z
	??$construct@V?$vector@UPolyVert@manifold@@V?$allocator@UPolyVert@manifold@@@std@@@std@@AEBV12@@?$_Default_allocator_traits@V?$allocator@V?$vector@UPolyVert@manifold@@V?$allocator@UPolyVert@manifold@@@std@@@std@@@std@@@std@@SAXAEAV?$allocator@V?$vector@UPolyVert@manifold@@V?$allocator@UPolyVert@manifold@@@std@@@std@@@1@QEAV?$vector@UPolyVert@manifold@@V?$allocator@UPolyVert@manifold@@@std@@@1@AEBV31@@Z
	??$construct@V?$vector@UPolyVert@manifold@@V?$allocator@UPolyVert@manifold@@@std@@@std@@V12@@?$_Default_allocator_traits@V?$allocator@V?$vector@UPolyVert@manifold@@V?$allocator@UPolyVert@manifold@@@std@@@std@@@std@@@std@@SAXAEAV?$allocator@V?$vector@UPolyVert@manifold@@V?$allocator@UPolyVert@manifold@@@std@@@std@@@1@QEAV?$vector@UPolyVert@manifold@@V?$allocator@UPolyVert@manifold@@@std@@@1@$$QEAV31@@Z
	??$construct@V?$vector@V?$vector@U?$Point@N@Clipper2Lib@@V?$allocator@U?$Point@N@Clipper2Lib@@@std@@@std@@V?$allocator@V?$vector@U?$Point@N@Clipper2Lib@@V?$allocator@U?$Point@N@Clipper2Lib@@@std@@@std@@@2@@std@@AEBV12@@?$_Default_allocator_traits@V?$allocator@V?$vector@V?$vector@U?$Point@N@Clipper2Lib@@V?$allocator@U?$Point@N@Clipper2Lib@@@std@@@std@@V?$allocator@V?$vector@U?$Point@N@Clipper2Lib@@V?$allocator@U?$Point@N@Clipper2Lib@@@std@@@std@@@2@@std@@@std@@@std@@SAXAEAV?$allocator@V?$vector@V?$vector@U?$Point@N@Clipper2Lib@@V?$allocator@U?$Point@N@Clipper2Lib@@@std@@@std@@V?$allocator@V?$vector@U?$Point@N@Clipper2Lib@@V?$allocator@U?$Point@N@Clipper2Lib@@@std@@@std@@@2@@std@@@1@QEAV?$vector@V?$vector@U?$Point@N@Clipper2Lib@@V?$allocator@U?$Point@N@Clipper2Lib@@@std@@@std@@V?$allocator@V?$vector@U?$Point@N@Clipper2Lib@@V?$allocator@U?$Point@N@Clipper2Lib@@@std@@@std@@@2@@1@AEBV31@@Z
	??$construct@V?$vector@V?$vector@U?$Point@N@Clipper2Lib@@V?$allocator@U?$Point@N@Clipper2Lib@@@std@@@std@@V?$allocator@V?$vector@U?$Point@N@Clipper2Lib@@V?$allocator@U?$Point@N@Clipper2Lib@@@std@@@std@@@2@@std@@V12@@?$_Default_allocator_traits@V?$allocator@V?$vector@V?$vector@U?$Point@N@Clipper2Lib@@V?$allocator@U?$Point@N@Clipper2Lib@@@std@@@std@@V?$allocator@V?$vector@U?$Point@N@Clipper2Lib@@V?$allocator@U?$Point@N@Clipper2Lib@@@std@@@std@@@2@@std@@@std@@@std@@SAXAEAV?$allocator@V?$vector@V?$vector@U?$Point@N@Clipper2Lib@@V?$allocator@U?$Point@N@Clipper2Lib@@@std@@@std@@V?$allocator@V?$vector@U?$Point@N@Clipper2Lib@@V?$allocator@U?$Point@N@Clipper2Lib@@@std@@@std@@@2@@std@@@1@QEAV?$vector@V?$vector@U?$Point@N@Clipper2Lib@@V?$allocator@U?$Point@N@Clipper2Lib@@@std@@@std@@V?$allocator@V?$vector@U?$Point@N@Clipper2Lib@@V?$allocator@U?$Point@N@Clipper2Lib@@@std@@@std@@@2@@1@$$QEAV31@@Z
	??$construct@VCrossSection@manifold@@AEBV12@@?$_Default_allocator_traits@V?$allocator@VCrossSection@manifold@@@std@@@std@@SAXAEAV?$allocator@VCrossSection@manifold@@@1@QEAVCrossSection@manifold@@AEBV34@@Z
	??$construct@VCrossSection@manifold@@V12@@?$_Default_allocator_traits@V?$allocator@VCrossSection@manifold@@@std@@@std@@SAXAEAV?$allocator@VCrossSection@manifold@@@1@QEAVCrossSection@manifold@@$$QEAV34@@Z
	??$construct@VManifold@manifold@@$$V@?$_Default_allocator_traits@V?$allocator@VManifold@manifold@@@std@@@std@@SAXAEAV?$allocator@VManifold@manifold@@@1@QEAVManifold@manifold@@@Z
	??$construct@VManifold@manifold@@V12@@?$_Default_allocator_traits@V?$allocator@VManifold@manifold@@@std@@@std@@SAXAEAV?$allocator@VManifold@manifold@@@1@QEAVManifold@manifold@@$$QEAV34@@Z
	??$construct@VSparseIndices@manifold@@AEAV12@@?$_Default_allocator_traits@V?$allocator@VSparseIndices@manifold@@@std@@@std@@SAXAEAV?$allocator@VSparseIndices@manifold@@@1@QEAVSparseIndices@manifold@@AEAV34@@Z
	??$construct@VSparseIndices@manifold@@V12@@?$_Default_allocator_traits@V?$allocator@VSparseIndices@manifold@@@std@@@std@@SAXAEAV?$allocator@VSparseIndices@manifold@@@1@QEAVSparseIndices@manifold@@$$QEAV34@@Z
	??$construct@_K$$V@?$_Default_allocator_traits@V?$allocator@_K@std@@@std@@SAXAEAV?$allocator@_K@1@QEA_K@Z
	??$construct@_KAEA_K@?$_Default_allocator_traits@V?$allocator@_K@std@@@std@@SAXAEAV?$allocator@_K@1@QEA_KAEA_K@Z
	??$construct@_KAEB_K@?$_Default_allocator_traits@V?$allocator@_K@std@@@std@@SAXAEAV?$allocator@_K@1@QEA_KAEB_K@Z
	??$construct@_K_K@?$_Default_allocator_traits@V?$allocator@_K@std@@@std@@SAXAEAV?$allocator@_K@1@QEA_K$$QEA_K@Z
	??$copy@PEADPEAD@manifold@@YAXPEAD00@Z
	??$copy@PEADPEAD@manifold@@YAXW4ExecutionPolicy@0@PEAD11@Z
	??$copy@PEADPEAD@std@@YAPEADPEAD00@Z
	??$copy@PEAEPEAE@manifold@@YAXPEAE00@Z
	??$copy@PEAEPEAE@manifold@@YAXW4ExecutionPolicy@0@PEAE11@Z
	??$copy@PEAEPEAE@std@@YAPEAEPEAE00@Z
	??$copy@PEAHPEAH@manifold@@YAXPEAH00@Z
	??$copy@PEAHPEAH@manifold@@YAXW4ExecutionPolicy@0@PEAH11@Z
	??$copy@PEAHPEAH@std@@YAPEAHPEAH00@Z
	??$copy@PEAIPEAI@manifold@@YAXPEAI00@Z
	??$copy@PEAIPEAI@manifold@@YAXW4ExecutionPolicy@0@PEAI11@Z
	??$copy@PEAIPEAI@std@@YAPEAIPEAI00@Z
	??$copy@PEANPEAN@manifold@@YAXPEAN00@Z
	??$copy@PEANPEAN@manifold@@YAXW4ExecutionPolicy@0@PEAN11@Z
	??$copy@PEANPEAN@std@@YAPEANPEAN00@Z
	??$copy@PEAU?$pair@HH@std@@PEAU12@@manifold@@YAXPEAU?$pair@HH@std@@00@Z
	??$copy@PEAU?$pair@HH@std@@PEAU12@@manifold@@YAXW4ExecutionPolicy@0@PEAU?$pair@HH@std@@11@Z
	??$copy@PEAU?$pair@HH@std@@PEAU12@@std@@YAPEAU?$pair@HH@0@PEAU10@00@Z
	??$copy@PEAU?$vec@H$02@linalg@@PEAU12@@manifold@@YAXPEAU?$vec@H$02@linalg@@00@Z
	??$copy@PEAU?$vec@H$02@linalg@@PEAU12@@manifold@@YAXW4ExecutionPolicy@0@PEAU?$vec@H$02@linalg@@11@Z
	??$copy@PEAU?$vec@H$02@linalg@@PEAU12@@std@@YAPEAU?$vec@H$02@linalg@@PEAU12@00@Z
	??$copy@PEAU?$vec@H$03@linalg@@PEAU12@@manifold@@YAXW4ExecutionPolicy@0@PEAU?$vec@H$03@linalg@@11@Z
	??$copy@PEAU?$vec@H$03@linalg@@PEAU12@@std@@YAPEAU?$vec@H$03@linalg@@PEAU12@00@Z
	??$copy@PEAU?$vec@N$02@linalg@@PEAU12@@manifold@@YAXPEAU?$vec@N$02@linalg@@00@Z
	??$copy@PEAU?$vec@N$02@linalg@@PEAU12@@manifold@@YAXW4ExecutionPolicy@0@PEAU?$vec@N$02@linalg@@11@Z
	??$copy@PEAU?$vec@N$02@linalg@@PEAU12@@std@@YAPEAU?$vec@N$02@linalg@@PEAU12@00@Z
	??$copy@PEAU?$vec@N$03@linalg@@PEAU12@@manifold@@YAXPEAU?$vec@N$03@linalg@@00@Z
	??$copy@PEAU?$vec@N$03@linalg@@PEAU12@@manifold@@YAXW4ExecutionPolicy@0@PEAU?$vec@N$03@linalg@@11@Z
	??$copy@PEAU?$vec@N$03@linalg@@PEAU12@@std@@YAPEAU?$vec@N$03@linalg@@PEAU12@00@Z
	??$copy@PEAUBarycentric@manifold@@PEAU12@@manifold@@YAXPEAUBarycentric@0@00@Z
	??$copy@PEAUBarycentric@manifold@@PEAU12@@manifold@@YAXW4ExecutionPolicy@0@PEAUBarycentric@0@11@Z
	??$copy@PEAUBarycentric@manifold@@PEAU12@@std@@YAPEAUBarycentric@manifold@@PEAU12@00@Z
	??$copy@PEAUBox@manifold@@PEAU12@@manifold@@YAXPEAUBox@0@00@Z
	??$copy@PEAUBox@manifold@@PEAU12@@manifold@@YAXW4ExecutionPolicy@0@PEAUBox@0@11@Z
	??$copy@PEAUBox@manifold@@PEAU12@@std@@YAPEAUBox@manifold@@PEAU12@00@Z
	??$copy@PEAUFaceData@QuickHull@manifold@@PEAU123@@manifold@@YAXPEAUFaceData@QuickHull@0@00@Z
	??$copy@PEAUFaceData@QuickHull@manifold@@PEAU123@@manifold@@YAXW4ExecutionPolicy@0@PEAUFaceData@QuickHull@0@11@Z
	??$copy@PEAUFaceData@QuickHull@manifold@@PEAU123@@std@@YAPEAUFaceData@QuickHull@manifold@@PEAU123@00@Z
	??$copy@PEAUHalfedge@manifold@@PEAU12@@manifold@@YAXPEAUHalfedge@0@00@Z
	??$copy@PEAUHalfedge@manifold@@PEAU12@@manifold@@YAXW4ExecutionPolicy@0@PEAUHalfedge@0@11@Z
	??$copy@PEAUHalfedge@manifold@@PEAU12@@std@@YAPEAUHalfedge@manifold@@PEAU12@00@Z
	??$copy@PEAUTmpEdge@manifold@@PEAU12@@manifold@@YAXPEAUTmpEdge@0@00@Z
	??$copy@PEAUTmpEdge@manifold@@PEAU12@@manifold@@YAXW4ExecutionPolicy@0@PEAUTmpEdge@0@11@Z
	??$copy@PEAUTmpEdge@manifold@@PEAU12@@std@@YAPEAUTmpEdge@manifold@@PEAU12@00@Z
	??$copy@PEAUTriRef@manifold@@PEAU12@@manifold@@YAXPEAUTriRef@0@00@Z
	??$copy@PEAUTriRef@manifold@@PEAU12@@manifold@@YAXW4ExecutionPolicy@0@PEAUTriRef@0@11@Z
	??$copy@PEAUTriRef@manifold@@PEAU12@@std@@YAPEAUTriRef@manifold@@PEAU12@00@Z
	??$copy@PEA_JPEA_J@manifold@@YAXPEA_J00@Z
	??$copy@PEA_JPEA_J@manifold@@YAXW4ExecutionPolicy@0@PEA_J11@Z
	??$copy@PEA_JPEA_J@std@@YAPEA_JPEA_J00@Z
	??$copy@PEA_KPEA_K@manifold@@YAXPEA_K00@Z
	??$copy@PEA_KPEA_K@manifold@@YAXW4ExecutionPolicy@0@PEA_K11@Z
	??$copy@PEA_KPEA_K@std@@YAPEA_KPEA_K00@Z
	??$copy@PEA_NPEA_N@manifold@@YAXPEA_N00@Z
	??$copy@PEA_NPEA_N@manifold@@YAXW4ExecutionPolicy@0@PEA_N11@Z
	??$copy@PEA_NPEA_N@std@@YAPEA_NPEA_N00@Z
	??$copy@PEBDPEAD@manifold@@YAXW4ExecutionPolicy@0@PEBD1PEAD@Z
	??$copy@PEBDPEAD@std@@YAPEADPEBD0PEAD@Z
	??$copy@PEBHPEAH@manifold@@YAXPEBH0PEAH@Z
	??$copy@PEBHPEAH@manifold@@YAXW4ExecutionPolicy@0@PEBH1PEAH@Z
	??$copy@PEBHPEAH@std@@YAPEAHPEBH0PEAH@Z
	??$copy@PEBNPEAN@manifold@@YAXPEBN0PEAN@Z
	??$copy@PEBNPEAN@manifold@@YAXW4ExecutionPolicy@0@PEBN1PEAN@Z
	??$copy@PEBNPEAN@std@@YAPEANPEBN0PEAN@Z
	??$copy@PEBU?$pair@HH@std@@PEAU12@@manifold@@YAXPEBU?$pair@HH@std@@0PEAU12@@Z
	??$copy@PEBU?$pair@HH@std@@PEAU12@@manifold@@YAXW4ExecutionPolicy@0@PEBU?$pair@HH@std@@1PEAU23@@Z
	??$copy@PEBU?$pair@HH@std@@PEAU12@@std@@YAPEAU?$pair@HH@0@PEBU10@0PEAU10@@Z
	??$copy@PEBU?$vec@H$02@linalg@@PEAU12@@manifold@@YAXPEBU?$vec@H$02@linalg@@0PEAU12@@Z
	??$copy@PEBU?$vec@H$02@linalg@@PEAU12@@manifold@@YAXW4ExecutionPolicy@0@PEBU?$vec@H$02@linalg@@1PEAU23@@Z
	??$copy@PEBU?$vec@H$02@linalg@@PEAU12@@std@@YAPEAU?$vec@H$02@linalg@@PEBU12@0PEAU12@@Z
	??$copy@PEBU?$vec@N$02@linalg@@PEAU12@@manifold@@YAXPEBU?$vec@N$02@linalg@@0PEAU12@@Z
	??$copy@PEBU?$vec@N$02@linalg@@PEAU12@@manifold@@YAXW4ExecutionPolicy@0@PEBU?$vec@N$02@linalg@@1PEAU23@@Z
	??$copy@PEBU?$vec@N$02@linalg@@PEAU12@@std@@YAPEAU?$vec@N$02@linalg@@PEBU12@0PEAU12@@Z
	??$copy@PEBU?$vec@N$03@linalg@@PEAU12@@manifold@@YAXPEBU?$vec@N$03@linalg@@0PEAU12@@Z
	??$copy@PEBU?$vec@N$03@linalg@@PEAU12@@manifold@@YAXW4ExecutionPolicy@0@PEBU?$vec@N$03@linalg@@1PEAU23@@Z
	??$copy@PEBU?$vec@N$03@linalg@@PEAU12@@std@@YAPEAU?$vec@N$03@linalg@@PEBU12@0PEAU12@@Z
	??$copy@PEBUBox@manifold@@PEAU12@@manifold@@YAXPEBUBox@0@0PEAU10@@Z
	??$copy@PEBUBox@manifold@@PEAU12@@manifold@@YAXW4ExecutionPolicy@0@PEBUBox@0@1PEAU20@@Z
	??$copy@PEBUBox@manifold@@PEAU12@@std@@YAPEAUBox@manifold@@PEBU12@0PEAU12@@Z
	??$copy@PEBUBox@manifold@@UStridedRangeIter@?$StridedRange@PEAUBox@manifold@@@2@@manifold@@YAXPEBUBox@0@0UStridedRangeIter@?$StridedRange@PEAUBox@manifold@@@0@@Z
	??$copy@PEBUBox@manifold@@UStridedRangeIter@?$StridedRange@PEAUBox@manifold@@@2@@manifold@@YAXW4ExecutionPolicy@0@PEBUBox@0@1UStridedRangeIter@?$StridedRange@PEAUBox@manifold@@@0@@Z
	??$copy@PEBUBox@manifold@@UStridedRangeIter@?$StridedRange@PEAUBox@manifold@@@2@@std@@YA?AUStridedRangeIter@?$StridedRange@PEAUBox@manifold@@@manifold@@PEBUBox@3@0U123@@Z
	??$copy@PEBUHalfedge@manifold@@PEAU12@@manifold@@YAXPEBUHalfedge@0@0PEAU10@@Z
	??$copy@PEBUHalfedge@manifold@@PEAU12@@manifold@@YAXW4ExecutionPolicy@0@PEBUHalfedge@0@1PEAU20@@Z
	??$copy@PEBUHalfedge@manifold@@PEAU12@@std@@YAPEAUHalfedge@manifold@@PEBU12@0PEAU12@@Z
	??$copy@PEBUTriRef@manifold@@PEAU12@@manifold@@YAXPEBUTriRef@0@0PEAU10@@Z
	??$copy@PEBUTriRef@manifold@@PEAU12@@manifold@@YAXW4ExecutionPolicy@0@PEBUTriRef@0@1PEAU20@@Z
	??$copy@PEBUTriRef@manifold@@PEAU12@@std@@YAPEAUTriRef@manifold@@PEBU12@0PEAU12@@Z
	??$copy@PEB_KPEA_K@manifold@@YAXPEB_K0PEA_K@Z
	??$copy@PEB_KPEA_K@manifold@@YAXW4ExecutionPolicy@0@PEB_K1PEA_K@Z
	??$copy@PEB_KPEA_K@std@@YAPEA_KPEB_K0PEA_K@Z
	??$copy@UStridedRangeIter@?$StridedRange@PEBN@manifold@@U1?$StridedRange@PEAN@3@@manifold@@YAXUStridedRangeIter@?$StridedRange@PEBN@0@0U1?$StridedRange@PEAN@0@@Z
	??$copy@UStridedRangeIter@?$StridedRange@PEBN@manifold@@U1?$StridedRange@PEAN@3@@manifold@@YAXW4ExecutionPolicy@0@UStridedRangeIter@?$StridedRange@PEBN@0@1U2?$StridedRange@PEAN@0@@Z
	??$copy@UStridedRangeIter@?$StridedRange@PEBN@manifold@@U1?$StridedRange@PEAN@3@@std@@YA?AUStridedRangeIter@?$StridedRange@PEAN@manifold@@U1?$StridedRange@PEBN@3@0U123@@Z
	??$copy@V?$_Vector_const_iterator@V?$_Vector_val@U?$_Simple_types@H@std@@@std@@@std@@PEAH@manifold@@YAXW4ExecutionPolicy@0@V?$_Vector_const_iterator@V?$_Vector_val@U?$_Simple_types@H@std@@@std@@@std@@1PEAH@Z
	??$copy@V?$_Vector_const_iterator@V?$_Vector_val@U?$_Simple_types@H@std@@@std@@@std@@PEAH@std@@YAPEAHV?$_Vector_const_iterator@V?$_Vector_val@U?$_Simple_types@H@std@@@std@@@0@0PEAH@Z
	??$copy@V?$_Vector_const_iterator@V?$_Vector_val@U?$_Simple_types@M@std@@@std@@@std@@PEAM@manifold@@YAXW4ExecutionPolicy@0@V?$_Vector_const_iterator@V?$_Vector_val@U?$_Simple_types@M@std@@@std@@@std@@1PEAM@Z
	??$copy@V?$_Vector_const_iterator@V?$_Vector_val@U?$_Simple_types@M@std@@@std@@@std@@PEAM@std@@YAPEAMV?$_Vector_const_iterator@V?$_Vector_val@U?$_Simple_types@M@std@@@std@@@0@0PEAM@Z
	??$copy@V?$_Vector_const_iterator@V?$_Vector_val@U?$_Simple_types@N@std@@@std@@@std@@PEAN@manifold@@YAXW4ExecutionPolicy@0@V?$_Vector_const_iterator@V?$_Vector_val@U?$_Simple_types@N@std@@@std@@@std@@1PEAN@Z
	??$copy@V?$_Vector_const_iterator@V?$_Vector_val@U?$_Simple_types@N@std@@@std@@@std@@PEAN@std@@YAPEANV?$_Vector_const_iterator@V?$_Vector_val@U?$_Simple_types@N@std@@@std@@@0@0PEAN@Z
